(dp1
S'comment'
p2
(dp3
S'type'
p4
S'text'
p5
sS'sortable'
p6
I2
sS'sql'
p7
S'TEXT'
p8
ssS'ratedate'
p9
(dp10
g4
S'datetime'
p11
sg6
I5
sg7
S'TIMESTAMP'
p12
ssS'id'
p13
(dp14
g4
S'id'
p15
sg6
I1
sg7
S'INTEGER PRIMARY KEY AUTOINCREMENT'
p16
ssS'belongto'
p17
(dp18
g4
S'reference Recipes'
p19
sg6
I3
sg7
S'INTEGER REFERENCES Recipes (id) ON DELETE CASCADE'
p20
ssS'commentor'
p21
(dp22
g4
S'string'
p23
sg6
I4
sg7
S'CHAR(1000)'
p24
ss.