(dp1
S'output'
p2
S"<type 'exceptions.NameError'> name 'db' is not defined"
p3
sS'layer'
p4
S'D:\\web2py_win\\web2py\\applications\\QSunTasteBudsV2\\models\\comments.py'
p5
sS'code'
p6
S'db.define_table("Comments",\n    Field(\'comment\', \'text\'),\n    Field(\'belongTo\', \'reference Recipes\'),\n    Field(\'commentor\', \'string\', length = 1000)\n)\n'
p7
sS'snapshot'
p8
(dp9
S'exception'
p10
(dp11
S'__hash__'
p12
S"<method-wrapper '__hash__' of exceptions.NameError object>"
p13
sS'__setattr__'
p14
S"<method-wrapper '__setattr__' of exceptions.NameError object>"
p15
sS'__reduce_ex__'
p16
S'<built-in method __reduce_ex__ of exceptions.NameError object>'
p17
sS'__getslice__'
p18
S"<method-wrapper '__getslice__' of exceptions.NameError object>"
p19
sS'__getitem__'
p20
S"<method-wrapper '__getitem__' of exceptions.NameError object>"
p21
sS'__setstate__'
p22
S'<built-in method __setstate__ of exceptions.NameError object>'
p23
sS'__reduce__'
p24
S'<built-in method __reduce__ of exceptions.NameError object>'
p25
sS'__str__'
p26
S"<method-wrapper '__str__' of exceptions.NameError object>"
p27
sS'__format__'
p28
S'<built-in method __format__ of exceptions.NameError object>'
p29
sS'__getattribute__'
p30
S"<method-wrapper '__getattribute__' of exceptions.NameError object>"
p31
sS'__class__'
p32
S"<type 'exceptions.NameError'>"
p33
sS'__unicode__'
p34
S'<built-in method __unicode__ of exceptions.NameError object>'
p35
sS'__delattr__'
p36
S"<method-wrapper '__delattr__' of exceptions.NameError object>"
p37
sS'__subclasshook__'
p38
S'<built-in method __subclasshook__ of type object>'
p39
sS'__repr__'
p40
S"<method-wrapper '__repr__' of exceptions.NameError object>"
p41
sS'args'
p42
S'("name \'db\' is not defined",)'
p43
sS'__dict__'
p44
S'{}'
p45
sS'__sizeof__'
p46
S'<built-in method __sizeof__ of exceptions.NameError object>'
p47
sS'__doc__'
p48
S"'Name not found globally.'"
p49
sS'__init__'
p50
S"<method-wrapper '__init__' of exceptions.NameError object>"
p51
sS'__new__'
p52
S'<built-in method __new__ of type object>'
p53
ssS'evalue'
p54
S"name 'db' is not defined"
p55
sS'request'
p56
ccopy_reg
_reconstructor
p57
(cgluon.html
BEAUTIFY
p58
c__builtin__
object
p59
NtRp60
(dp61
S'attributes'
p62
(dp63
sS'components'
p64
(lp65
g57
(cgluon.html
TABLE
p66
g59
NtRp67
(dp68
g62
(dp69
S'level'
p70
I5
ssS'parent'
p71
Nsg64
(lp72
g57
(cgluon.html
TR
p73
g59
NtRp74
(dp75
g62
(dp76
sg71
g67
sg64
(lp77
g57
(cgluon.html
TD
p78
g59
NtRp79
(dp80
g62
(dp81
S'_style'
p82
S'font-weight:bold;vertical-align:top'
p83
ssg71
g74
sg64
(lp84
S'ajax'
p85
asbag57
(g78
g59
NtRp86
(dp87
g62
(dp88
S'_valign'
p89
S'top'
p90
ssg71
g74
sg64
(lp91
S':'
asbag57
(g78
g59
NtRp92
(dp93
g62
(dp94
sg71
g74
sg64
(lp95
g57
(g58
g59
NtRp96
(dp97
g62
(dp98
g70
I5
ssg71
g92
sg64
(lp99
S'False'
p100
asbasbasbag57
(g73
g59
NtRp101
(dp102
g62
(dp103
sg71
g67
sg64
(lp104
g57
(g78
g59
NtRp105
(dp106
g62
(dp107
g82
g83
ssg71
g101
sg64
(lp108
S'application'
p109
asbag57
(g78
g59
NtRp110
(dp111
g62
(dp112
g89
g90
ssg71
g101
sg64
(lp113
S':'
asbag57
(g78
g59
NtRp114
(dp115
g62
(dp116
sg71
g101
sg64
(lp117
g57
(g58
g59
NtRp118
(dp119
g62
(dp120
g70
I5
ssg71
g114
sg64
(lp121
S'QSunTasteBudsV2'
p122
asbasbasbag57
(g73
g59
NtRp123
(dp124
g62
(dp125
sg71
g67
sg64
(lp126
g57
(g78
g59
NtRp127
(dp128
g62
(dp129
g82
g83
ssg71
g123
sg64
(lp130
g42
asbag57
(g78
g59
NtRp131
(dp132
g62
(dp133
g89
g90
ssg71
g123
sg64
(lp134
S':'
asbag57
(g78
g59
NtRp135
(dp136
g62
(dp137
sg71
g123
sg64
(lp138
g57
(g58
g59
NtRp139
(dp140
g62
(dp141
g70
I5
ssg71
g135
sg64
(lp142
g57
(g66
g59
NtRp143
(dp144
g62
(dp145
g70
I4
ssg71
Nsg64
(lp146
sbasbasbasbag57
(g73
g59
NtRp147
(dp148
g62
(dp149
sg71
g67
sg64
(lp150
g57
(g78
g59
NtRp151
(dp152
g62
(dp153
g82
g83
ssg71
g147
sg64
(lp154
S'body'
p155
asbag57
(g78
g59
NtRp156
(dp157
g62
(dp158
g89
g90
ssg71
g147
sg64
(lp159
S':'
asbag57
(g78
g59
NtRp160
(dp161
g62
(dp162
sg71
g147
sg64
(lp163
g57
(g58
g59
NtRp164
(dp165
g62
(dp166
g70
I5
ssg71
g160
sg64
(lp167
S'<cStringIO.StringO object at 0x04EFF900>'
p168
asbasbasbag57
(g73
g59
NtRp169
(dp170
g62
(dp171
sg71
g67
sg64
(lp172
g57
(g78
g59
NtRp173
(dp174
g62
(dp175
g82
g83
ssg71
g169
sg64
(lp176
S'cid'
p177
asbag57
(g78
g59
NtRp178
(dp179
g62
(dp180
g89
g90
ssg71
g169
sg64
(lp181
S':'
asbag57
(g78
g59
NtRp182
(dp183
g62
(dp184
sg71
g169
sg64
(lp185
g57
(g58
g59
NtRp186
(dp187
g62
(dp188
g70
I5
ssg71
g182
sg64
(lp189
S'None'
p190
asbasbasbag57
(g73
g59
NtRp191
(dp192
g62
(dp193
sg71
g67
sg64
(lp194
g57
(g78
g59
NtRp195
(dp196
g62
(dp197
g82
g83
ssg71
g191
sg64
(lp198
S'client'
p199
asbag57
(g78
g59
NtRp200
(dp201
g62
(dp202
g89
g90
ssg71
g191
sg64
(lp203
S':'
asbag57
(g78
g59
NtRp204
(dp205
g62
(dp206
sg71
g191
sg64
(lp207
g57
(g58
g59
NtRp208
(dp209
g62
(dp210
g70
I5
ssg71
g204
sg64
(lp211
S'127.0.0.1'
p212
asbasbasbag57
(g73
g59
NtRp213
(dp214
g62
(dp215
sg71
g67
sg64
(lp216
g57
(g78
g59
NtRp217
(dp218
g62
(dp219
g82
g83
ssg71
g213
sg64
(lp220
S'controller'
p221
asbag57
(g78
g59
NtRp222
(dp223
g62
(dp224
g89
g90
ssg71
g213
sg64
(lp225
S':'
asbag57
(g78
g59
NtRp226
(dp227
g62
(dp228
sg71
g213
sg64
(lp229
g57
(g58
g59
NtRp230
(dp231
g62
(dp232
g70
I5
ssg71
g226
sg64
(lp233
S'default'
p234
asbasbasbag57
(g73
g59
NtRp235
(dp236
g62
(dp237
sg71
g67
sg64
(lp238
g57
(g78
g59
NtRp239
(dp240
g62
(dp241
g82
g83
ssg71
g235
sg64
(lp242
S'cookies'
p243
asbag57
(g78
g59
NtRp244
(dp245
g62
(dp246
g89
g90
ssg71
g235
sg64
(lp247
S':'
asbag57
(g78
g59
NtRp248
(dp249
g62
(dp250
sg71
g235
sg64
(lp251
g57
(g58
g59
NtRp252
(dp253
g62
(dp254
g70
I5
ssg71
g248
sg64
(lp255
g57
(g66
g59
NtRp256
(dp257
g62
(dp258
g70
I4
ssg71
Nsg64
(lp259
g57
(g73
g59
NtRp260
(dp261
g62
(dp262
sg71
g256
sg64
(lp263
g57
(g78
g59
NtRp264
(dp265
g62
(dp266
g82
g83
ssg71
g260
sg64
(lp267
S'session_id_admin'
p268
asbag57
(g78
g59
NtRp269
(dp270
g62
(dp271
g89
g90
ssg71
g260
sg64
(lp272
S':'
asbag57
(g78
g59
NtRp273
(dp274
g62
(dp275
sg71
g260
sg64
(lp276
g57
(g58
g59
NtRp277
(dp278
g62
(dp279
g70
I4
ssg71
g273
sg64
(lp280
S'127.0.0.1-304ee069-1576-4fbf-bd8b-3f7ad31c7229'
p281
ag57
(g66
g59
NtRp282
(dp283
g62
(dp284
g70
I3
ssg71
Nsg64
(lp285
g57
(g73
g59
NtRp286
(dp287
g62
(dp288
sg71
g282
sg64
(lp289
g57
(g78
g59
NtRp290
(dp291
g62
(dp292
g82
g83
ssg71
g286
sg64
(lp293
S'comment'
p294
asbag57
(g78
g59
NtRp295
(dp296
g62
(dp297
g89
g90
ssg71
g286
sg64
(lp298
S':'
asbag57
(g78
g59
NtRp299
(dp300
g62
(dp301
sg71
g286
sg64
(lp302
g57
(g58
g59
NtRp303
(dp304
g62
(dp305
g70
I3
ssg71
g299
sg64
(lp306
S''
asbasbasbag57
(g73
g59
NtRp307
(dp308
g62
(dp309
sg71
g282
sg64
(lp310
g57
(g78
g59
NtRp311
(dp312
g62
(dp313
g82
g83
ssg71
g307
sg64
(lp314
S'domain'
p315
asbag57
(g78
g59
NtRp316
(dp317
g62
(dp318
g89
g90
ssg71
g307
sg64
(lp319
S':'
asbag57
(g78
g59
NtRp320
(dp321
g62
(dp322
sg71
g307
sg64
(lp323
g57
(g58
g59
NtRp324
(dp325
g62
(dp326
g70
I3
ssg71
g320
sg64
(lp327
S''
asbasbasbag57
(g73
g59
NtRp328
(dp329
g62
(dp330
sg71
g282
sg64
(lp331
g57
(g78
g59
NtRp332
(dp333
g62
(dp334
g82
g83
ssg71
g328
sg64
(lp335
S'expires'
p336
asbag57
(g78
g59
NtRp337
(dp338
g62
(dp339
g89
g90
ssg71
g328
sg64
(lp340
S':'
asbag57
(g78
g59
NtRp341
(dp342
g62
(dp343
sg71
g328
sg64
(lp344
g57
(g58
g59
NtRp345
(dp346
g62
(dp347
g70
I3
ssg71
g341
sg64
(lp348
S''
asbasbasbag57
(g73
g59
NtRp349
(dp350
g62
(dp351
sg71
g282
sg64
(lp352
g57
(g78
g59
NtRp353
(dp354
g62
(dp355
g82
g83
ssg71
g349
sg64
(lp356
S'httponly'
p357
asbag57
(g78
g59
NtRp358
(dp359
g62
(dp360
g89
g90
ssg71
g349
sg64
(lp361
S':'
asbag57
(g78
g59
NtRp362
(dp363
g62
(dp364
sg71
g349
sg64
(lp365
g57
(g58
g59
NtRp366
(dp367
g62
(dp368
g70
I3
ssg71
g362
sg64
(lp369
S''
asbasbasbag57
(g73
g59
NtRp370
(dp371
g62
(dp372
sg71
g282
sg64
(lp373
g57
(g78
g59
NtRp374
(dp375
g62
(dp376
g82
g83
ssg71
g370
sg64
(lp377
S'max-age'
p378
asbag57
(g78
g59
NtRp379
(dp380
g62
(dp381
g89
g90
ssg71
g370
sg64
(lp382
S':'
asbag57
(g78
g59
NtRp383
(dp384
g62
(dp385
sg71
g370
sg64
(lp386
g57
(g58
g59
NtRp387
(dp388
g62
(dp389
g70
I3
ssg71
g383
sg64
(lp390
S''
asbasbasbag57
(g73
g59
NtRp391
(dp392
g62
(dp393
sg71
g282
sg64
(lp394
g57
(g78
g59
NtRp395
(dp396
g62
(dp397
g82
g83
ssg71
g391
sg64
(lp398
S'path'
p399
asbag57
(g78
g59
NtRp400
(dp401
g62
(dp402
g89
g90
ssg71
g391
sg64
(lp403
S':'
asbag57
(g78
g59
NtRp404
(dp405
g62
(dp406
sg71
g391
sg64
(lp407
g57
(g58
g59
NtRp408
(dp409
g62
(dp410
g70
I3
ssg71
g404
sg64
(lp411
S''
asbasbasbag57
(g73
g59
NtRp412
(dp413
g62
(dp414
sg71
g282
sg64
(lp415
g57
(g78
g59
NtRp416
(dp417
g62
(dp418
g82
g83
ssg71
g412
sg64
(lp419
S'secure'
p420
asbag57
(g78
g59
NtRp421
(dp422
g62
(dp423
g89
g90
ssg71
g412
sg64
(lp424
S':'
asbag57
(g78
g59
NtRp425
(dp426
g62
(dp427
sg71
g412
sg64
(lp428
g57
(g58
g59
NtRp429
(dp430
g62
(dp431
g70
I3
ssg71
g425
sg64
(lp432
S''
asbasbasbag57
(g73
g59
NtRp433
(dp434
g62
(dp435
sg71
g282
sg64
(lp436
g57
(g78
g59
NtRp437
(dp438
g62
(dp439
g82
g83
ssg71
g433
sg64
(lp440
S'version'
p441
asbag57
(g78
g59
NtRp442
(dp443
g62
(dp444
g89
g90
ssg71
g433
sg64
(lp445
S':'
asbag57
(g78
g59
NtRp446
(dp447
g62
(dp448
sg71
g433
sg64
(lp449
g57
(g58
g59
NtRp450
(dp451
g62
(dp452
g70
I3
ssg71
g446
sg64
(lp453
S''
asbasbasbasbasbasbasbag57
(g73
g59
NtRp454
(dp455
g62
(dp456
sg71
g256
sg64
(lp457
g57
(g78
g59
NtRp458
(dp459
g62
(dp460
g82
g83
ssg71
g454
sg64
(lp461
S'session_id_qsuntastebudsv2'
p462
asbag57
(g78
g59
NtRp463
(dp464
g62
(dp465
g89
g90
ssg71
g454
sg64
(lp466
S':'
asbag57
(g78
g59
NtRp467
(dp468
g62
(dp469
sg71
g454
sg64
(lp470
g57
(g58
g59
NtRp471
(dp472
g62
(dp473
g70
I4
ssg71
g467
sg64
(lp474
S'127.0.0.1-03c509ec-2cef-426f-a88b-6eb0c079c2a6'
p475
ag57
(g66
g59
NtRp476
(dp477
g62
(dp478
g70
I3
ssg71
Nsg64
(lp479
g57
(g73
g59
NtRp480
(dp481
g62
(dp482
sg71
g476
sg64
(lp483
g57
(g78
g59
NtRp484
(dp485
g62
(dp486
g82
g83
ssg71
g480
sg64
(lp487
g294
asbag57
(g78
g59
NtRp488
(dp489
g62
(dp490
g89
g90
ssg71
g480
sg64
(lp491
S':'
asbag57
(g78
g59
NtRp492
(dp493
g62
(dp494
sg71
g480
sg64
(lp495
g57
(g58
g59
NtRp496
(dp497
g62
(dp498
g70
I3
ssg71
g492
sg64
(lp499
S''
asbasbasbag57
(g73
g59
NtRp500
(dp501
g62
(dp502
sg71
g476
sg64
(lp503
g57
(g78
g59
NtRp504
(dp505
g62
(dp506
g82
g83
ssg71
g500
sg64
(lp507
g315
asbag57
(g78
g59
NtRp508
(dp509
g62
(dp510
g89
g90
ssg71
g500
sg64
(lp511
S':'
asbag57
(g78
g59
NtRp512
(dp513
g62
(dp514
sg71
g500
sg64
(lp515
g57
(g58
g59
NtRp516
(dp517
g62
(dp518
g70
I3
ssg71
g512
sg64
(lp519
S''
asbasbasbag57
(g73
g59
NtRp520
(dp521
g62
(dp522
sg71
g476
sg64
(lp523
g57
(g78
g59
NtRp524
(dp525
g62
(dp526
g82
g83
ssg71
g520
sg64
(lp527
g336
asbag57
(g78
g59
NtRp528
(dp529
g62
(dp530
g89
g90
ssg71
g520
sg64
(lp531
S':'
asbag57
(g78
g59
NtRp532
(dp533
g62
(dp534
sg71
g520
sg64
(lp535
g57
(g58
g59
NtRp536
(dp537
g62
(dp538
g70
I3
ssg71
g532
sg64
(lp539
S''
asbasbasbag57
(g73
g59
NtRp540
(dp541
g62
(dp542
sg71
g476
sg64
(lp543
g57
(g78
g59
NtRp544
(dp545
g62
(dp546
g82
g83
ssg71
g540
sg64
(lp547
g357
asbag57
(g78
g59
NtRp548
(dp549
g62
(dp550
g89
g90
ssg71
g540
sg64
(lp551
S':'
asbag57
(g78
g59
NtRp552
(dp553
g62
(dp554
sg71
g540
sg64
(lp555
g57
(g58
g59
NtRp556
(dp557
g62
(dp558
g70
I3
ssg71
g552
sg64
(lp559
S''
asbasbasbag57
(g73
g59
NtRp560
(dp561
g62
(dp562
sg71
g476
sg64
(lp563
g57
(g78
g59
NtRp564
(dp565
g62
(dp566
g82
g83
ssg71
g560
sg64
(lp567
g378
asbag57
(g78
g59
NtRp568
(dp569
g62
(dp570
g89
g90
ssg71
g560
sg64
(lp571
S':'
asbag57
(g78
g59
NtRp572
(dp573
g62
(dp574
sg71
g560
sg64
(lp575
g57
(g58
g59
NtRp576
(dp577
g62
(dp578
g70
I3
ssg71
g572
sg64
(lp579
S''
asbasbasbag57
(g73
g59
NtRp580
(dp581
g62
(dp582
sg71
g476
sg64
(lp583
g57
(g78
g59
NtRp584
(dp585
g62
(dp586
g82
g83
ssg71
g580
sg64
(lp587
g399
asbag57
(g78
g59
NtRp588
(dp589
g62
(dp590
g89
g90
ssg71
g580
sg64
(lp591
S':'
asbag57
(g78
g59
NtRp592
(dp593
g62
(dp594
sg71
g580
sg64
(lp595
g57
(g58
g59
NtRp596
(dp597
g62
(dp598
g70
I3
ssg71
g592
sg64
(lp599
S''
asbasbasbag57
(g73
g59
NtRp600
(dp601
g62
(dp602
sg71
g476
sg64
(lp603
g57
(g78
g59
NtRp604
(dp605
g62
(dp606
g82
g83
ssg71
g600
sg64
(lp607
g420
asbag57
(g78
g59
NtRp608
(dp609
g62
(dp610
g89
g90
ssg71
g600
sg64
(lp611
S':'
asbag57
(g78
g59
NtRp612
(dp613
g62
(dp614
sg71
g600
sg64
(lp615
g57
(g58
g59
NtRp616
(dp617
g62
(dp618
g70
I3
ssg71
g612
sg64
(lp619
S''
asbasbasbag57
(g73
g59
NtRp620
(dp621
g62
(dp622
sg71
g476
sg64
(lp623
g57
(g78
g59
NtRp624
(dp625
g62
(dp626
g82
g83
ssg71
g620
sg64
(lp627
g441
asbag57
(g78
g59
NtRp628
(dp629
g62
(dp630
g89
g90
ssg71
g620
sg64
(lp631
S':'
asbag57
(g78
g59
NtRp632
(dp633
g62
(dp634
sg71
g620
sg64
(lp635
g57
(g58
g59
NtRp636
(dp637
g62
(dp638
g70
I3
ssg71
g632
sg64
(lp639
S''
asbasbasbasbasbasbasbag57
(g73
g59
NtRp640
(dp641
g62
(dp642
sg71
g256
sg64
(lp643
g57
(g78
g59
NtRp644
(dp645
g62
(dp646
g82
g83
ssg71
g640
sg64
(lp647
S'session_id_welcome'
p648
asbag57
(g78
g59
NtRp649
(dp650
g62
(dp651
g89
g90
ssg71
g640
sg64
(lp652
S':'
asbag57
(g78
g59
NtRp653
(dp654
g62
(dp655
sg71
g640
sg64
(lp656
g57
(g58
g59
NtRp657
(dp658
g62
(dp659
g70
I4
ssg71
g653
sg64
(lp660
S'127.0.0.1-85cf6716-f458-4c20-b470-30e58294b230'
p661
ag57
(g66
g59
NtRp662
(dp663
g62
(dp664
g70
I3
ssg71
Nsg64
(lp665
g57
(g73
g59
NtRp666
(dp667
g62
(dp668
sg71
g662
sg64
(lp669
g57
(g78
g59
NtRp670
(dp671
g62
(dp672
g82
g83
ssg71
g666
sg64
(lp673
g294
asbag57
(g78
g59
NtRp674
(dp675
g62
(dp676
g89
g90
ssg71
g666
sg64
(lp677
S':'
asbag57
(g78
g59
NtRp678
(dp679
g62
(dp680
sg71
g666
sg64
(lp681
g57
(g58
g59
NtRp682
(dp683
g62
(dp684
g70
I3
ssg71
g678
sg64
(lp685
S''
asbasbasbag57
(g73
g59
NtRp686
(dp687
g62
(dp688
sg71
g662
sg64
(lp689
g57
(g78
g59
NtRp690
(dp691
g62
(dp692
g82
g83
ssg71
g686
sg64
(lp693
g315
asbag57
(g78
g59
NtRp694
(dp695
g62
(dp696
g89
g90
ssg71
g686
sg64
(lp697
S':'
asbag57
(g78
g59
NtRp698
(dp699
g62
(dp700
sg71
g686
sg64
(lp701
g57
(g58
g59
NtRp702
(dp703
g62
(dp704
g70
I3
ssg71
g698
sg64
(lp705
S''
asbasbasbag57
(g73
g59
NtRp706
(dp707
g62
(dp708
sg71
g662
sg64
(lp709
g57
(g78
g59
NtRp710
(dp711
g62
(dp712
g82
g83
ssg71
g706
sg64
(lp713
g336
asbag57
(g78
g59
NtRp714
(dp715
g62
(dp716
g89
g90
ssg71
g706
sg64
(lp717
S':'
asbag57
(g78
g59
NtRp718
(dp719
g62
(dp720
sg71
g706
sg64
(lp721
g57
(g58
g59
NtRp722
(dp723
g62
(dp724
g70
I3
ssg71
g718
sg64
(lp725
S''
asbasbasbag57
(g73
g59
NtRp726
(dp727
g62
(dp728
sg71
g662
sg64
(lp729
g57
(g78
g59
NtRp730
(dp731
g62
(dp732
g82
g83
ssg71
g726
sg64
(lp733
g357
asbag57
(g78
g59
NtRp734
(dp735
g62
(dp736
g89
g90
ssg71
g726
sg64
(lp737
S':'
asbag57
(g78
g59
NtRp738
(dp739
g62
(dp740
sg71
g726
sg64
(lp741
g57
(g58
g59
NtRp742
(dp743
g62
(dp744
g70
I3
ssg71
g738
sg64
(lp745
S''
asbasbasbag57
(g73
g59
NtRp746
(dp747
g62
(dp748
sg71
g662
sg64
(lp749
g57
(g78
g59
NtRp750
(dp751
g62
(dp752
g82
g83
ssg71
g746
sg64
(lp753
g378
asbag57
(g78
g59
NtRp754
(dp755
g62
(dp756
g89
g90
ssg71
g746
sg64
(lp757
S':'
asbag57
(g78
g59
NtRp758
(dp759
g62
(dp760
sg71
g746
sg64
(lp761
g57
(g58
g59
NtRp762
(dp763
g62
(dp764
g70
I3
ssg71
g758
sg64
(lp765
S''
asbasbasbag57
(g73
g59
NtRp766
(dp767
g62
(dp768
sg71
g662
sg64
(lp769
g57
(g78
g59
NtRp770
(dp771
g62
(dp772
g82
g83
ssg71
g766
sg64
(lp773
g399
asbag57
(g78
g59
NtRp774
(dp775
g62
(dp776
g89
g90
ssg71
g766
sg64
(lp777
S':'
asbag57
(g78
g59
NtRp778
(dp779
g62
(dp780
sg71
g766
sg64
(lp781
g57
(g58
g59
NtRp782
(dp783
g62
(dp784
g70
I3
ssg71
g778
sg64
(lp785
S''
asbasbasbag57
(g73
g59
NtRp786
(dp787
g62
(dp788
sg71
g662
sg64
(lp789
g57
(g78
g59
NtRp790
(dp791
g62
(dp792
g82
g83
ssg71
g786
sg64
(lp793
g420
asbag57
(g78
g59
NtRp794
(dp795
g62
(dp796
g89
g90
ssg71
g786
sg64
(lp797
S':'
asbag57
(g78
g59
NtRp798
(dp799
g62
(dp800
sg71
g786
sg64
(lp801
g57
(g58
g59
NtRp802
(dp803
g62
(dp804
g70
I3
ssg71
g798
sg64
(lp805
S''
asbasbasbag57
(g73
g59
NtRp806
(dp807
g62
(dp808
sg71
g662
sg64
(lp809
g57
(g78
g59
NtRp810
(dp811
g62
(dp812
g82
g83
ssg71
g806
sg64
(lp813
g441
asbag57
(g78
g59
NtRp814
(dp815
g62
(dp816
g89
g90
ssg71
g806
sg64
(lp817
S':'
asbag57
(g78
g59
NtRp818
(dp819
g62
(dp820
sg71
g806
sg64
(lp821
g57
(g58
g59
NtRp822
(dp823
g62
(dp824
g70
I3
ssg71
g818
sg64
(lp825
S''
asbasbasbasbasbasbasbasbasbasbasbag57
(g73
g59
NtRp826
(dp827
g62
(dp828
sg71
g67
sg64
(lp829
g57
(g78
g59
NtRp830
(dp831
g62
(dp832
g82
g83
ssg71
g826
sg64
(lp833
S'env'
p834
asbag57
(g78
g59
NtRp835
(dp836
g62
(dp837
g89
g90
ssg71
g826
sg64
(lp838
S':'
asbag57
(g78
g59
NtRp839
(dp840
g62
(dp841
sg71
g826
sg64
(lp842
g57
(g58
g59
NtRp843
(dp844
g62
(dp845
g70
I5
ssg71
g839
sg64
(lp846
g57
(g66
g59
NtRp847
(dp848
g62
(dp849
g70
I4
ssg71
Nsg64
(lp850
g57
(g73
g59
NtRp851
(dp852
g62
(dp853
sg71
g847
sg64
(lp854
g57
(g78
g59
NtRp855
(dp856
g62
(dp857
g82
g83
ssg71
g851
sg64
(lp858
S'app_folders'
p859
asbag57
(g78
g59
NtRp860
(dp861
g62
(dp862
g89
g90
ssg71
g851
sg64
(lp863
S':'
asbag57
(g78
g59
NtRp864
(dp865
g62
(dp866
sg71
g851
sg64
(lp867
g57
(g58
g59
NtRp868
(dp869
g62
(dp870
g70
I4
ssg71
g864
sg64
(lp871
S"set(['D:\\\\web2py_win\\\\web2py\\\\applications\\\\welcome\\\\', 'D:\\\\web2py_win\\\\web2py\\\\applications\\\\admin\\\\', 'D:\\\\web2py_win\\\\web2py\\\\applications\\\\QSunTasteBudsV2\\\\'])"
p872
asbasbasbag57
(g73
g59
NtRp873
(dp874
g62
(dp875
sg71
g847
sg64
(lp876
g57
(g78
g59
NtRp877
(dp878
g62
(dp879
g82
g83
ssg71
g873
sg64
(lp880
S'applications_parent'
p881
asbag57
(g78
g59
NtRp882
(dp883
g62
(dp884
g89
g90
ssg71
g873
sg64
(lp885
S':'
asbag57
(g78
g59
NtRp886
(dp887
g62
(dp888
sg71
g873
sg64
(lp889
g57
(g58
g59
NtRp890
(dp891
g62
(dp892
g70
I4
ssg71
g886
sg64
(lp893
S'D:\\web2py_win\\web2py'
p894
asbasbasbag57
(g73
g59
NtRp895
(dp896
g62
(dp897
sg71
g847
sg64
(lp898
g57
(g78
g59
NtRp899
(dp900
g62
(dp901
g82
g83
ssg71
g895
sg64
(lp902
S'cmd_args'
p903
asbag57
(g78
g59
NtRp904
(dp905
g62
(dp906
g89
g90
ssg71
g895
sg64
(lp907
S':'
asbag57
(g78
g59
NtRp908
(dp909
g62
(dp910
sg71
g895
sg64
(lp911
g57
(g58
g59
NtRp912
(dp913
g62
(dp914
g70
I4
ssg71
g908
sg64
(lp915
g57
(g66
g59
NtRp916
(dp917
g62
(dp918
g70
I3
ssg71
Nsg64
(lp919
sbasbasbasbag57
(g73
g59
NtRp920
(dp921
g62
(dp922
sg71
g847
sg64
(lp923
g57
(g78
g59
NtRp924
(dp925
g62
(dp926
g82
g83
ssg71
g920
sg64
(lp927
S'cmd_options'
p928
asbag57
(g78
g59
NtRp929
(dp930
g62
(dp931
g89
g90
ssg71
g920
sg64
(lp932
S':'
asbag57
(g78
g59
NtRp933
(dp934
g62
(dp935
sg71
g920
sg64
(lp936
g57
(g58
g59
NtRp937
(dp938
g62
(dp939
g70
I4
ssg71
g933
sg64
(lp940
S"<Values at 0x17494b8: {'verbose': False, 'ip': '127.0.0.1', 'with_scheduler': False, 'ips': [], 'shutdown_timeout': 5, 'taskbar': False, 'port': 8000, 'maxthreads': None, 'softcron': False, 'server_name': 'MICROSOF-F36848', 'bpython': False, 'nogui': False, 'nocron': False, 'extcron': False, 'run_system_tests': False, 'test': None, 'folder': 'D:\\\\web2py_win\\\\web2py', 'config': '', 'import_models': False, 'winservice': '', 'shell': None, 'run': '', 'log_filename': 'httpserver.log', 'debuglevel': 30, 'args': [''], 'socket_timeout': 5, 'ssl_ca_certificate': None, 'scheduler': None, 'profiler_filename': None, 'ssl_private_key': '', 'scheduler_groups': None, 'password': '<ask>', 'request_queue_size': 5, 'ssl_certificate': '', 'cronjob': False, 'numthreads': None, 'quiet': False, 'interfaces': None, 'minthreads': None, 'timeout': 10, 'plain': False, 'nobanner': False, 'pid_filename': 'httpserver.pid'}>"
p941
asbasbasbag57
(g73
g59
NtRp942
(dp943
g62
(dp944
sg71
g847
sg64
(lp945
g57
(g78
g59
NtRp946
(dp947
g62
(dp948
g82
g83
ssg71
g942
sg64
(lp949
S'db_sessions'
p950
asbag57
(g78
g59
NtRp951
(dp952
g62
(dp953
g89
g90
ssg71
g942
sg64
(lp954
S':'
asbag57
(g78
g59
NtRp955
(dp956
g62
(dp957
sg71
g942
sg64
(lp958
g57
(g58
g59
NtRp959
(dp960
g62
(dp961
g70
I4
ssg71
g955
sg64
(lp962
S'set([])'
p963
asbasbasbag57
(g73
g59
NtRp964
(dp965
g62
(dp966
sg71
g847
sg64
(lp967
g57
(g78
g59
NtRp968
(dp969
g62
(dp970
g82
g83
ssg71
g964
sg64
(lp971
S'debugging'
p972
asbag57
(g78
g59
NtRp973
(dp974
g62
(dp975
g89
g90
ssg71
g964
sg64
(lp976
S':'
asbag57
(g78
g59
NtRp977
(dp978
g62
(dp979
sg71
g964
sg64
(lp980
g57
(g58
g59
NtRp981
(dp982
g62
(dp983
g70
I4
ssg71
g977
sg64
(lp984
g100
asbasbasbag57
(g73
g59
NtRp985
(dp986
g62
(dp987
sg71
g847
sg64
(lp988
g57
(g78
g59
NtRp989
(dp990
g62
(dp991
g82
g83
ssg71
g985
sg64
(lp992
S'gluon_parent'
p993
asbag57
(g78
g59
NtRp994
(dp995
g62
(dp996
g89
g90
ssg71
g985
sg64
(lp997
S':'
asbag57
(g78
g59
NtRp998
(dp999
g62
(dp1000
sg71
g985
sg64
(lp1001
g57
(g58
g59
NtRp1002
(dp1003
g62
(dp1004
g70
I4
ssg71
g998
sg64
(lp1005
S'D:\\web2py_win\\web2py'
p1006
asbasbasbag57
(g73
g59
NtRp1007
(dp1008
g62
(dp1009
sg71
g847
sg64
(lp1010
g57
(g78
g59
NtRp1011
(dp1012
g62
(dp1013
g82
g83
ssg71
g1007
sg64
(lp1014
S'http_accept'
p1015
asbag57
(g78
g59
NtRp1016
(dp1017
g62
(dp1018
g89
g90
ssg71
g1007
sg64
(lp1019
S':'
asbag57
(g78
g59
NtRp1020
(dp1021
g62
(dp1022
sg71
g1007
sg64
(lp1023
g57
(g58
g59
NtRp1024
(dp1025
g62
(dp1026
g70
I4
ssg71
g1020
sg64
(lp1027
S'image/gif, image/jpeg, image/pjpeg, image/pjpeg, application/x-shockwave-flash, application/xaml+xml, application/x-ms-xbap, application/x-ms-application, application/vnd.ms-excel, application/vnd.ms-powerpoint, application/msword, application/QVOD, application/QVOD, */*'
p1028
asbasbasbag57
(g73
g59
NtRp1029
(dp1030
g62
(dp1031
sg71
g847
sg64
(lp1032
g57
(g78
g59
NtRp1033
(dp1034
g62
(dp1035
g82
g83
ssg71
g1029
sg64
(lp1036
S'http_accept_encoding'
p1037
asbag57
(g78
g59
NtRp1038
(dp1039
g62
(dp1040
g89
g90
ssg71
g1029
sg64
(lp1041
S':'
asbag57
(g78
g59
NtRp1042
(dp1043
g62
(dp1044
sg71
g1029
sg64
(lp1045
g57
(g58
g59
NtRp1046
(dp1047
g62
(dp1048
g70
I4
ssg71
g1042
sg64
(lp1049
S'gzip, deflate'
p1050
asbasbasbag57
(g73
g59
NtRp1051
(dp1052
g62
(dp1053
sg71
g847
sg64
(lp1054
g57
(g78
g59
NtRp1055
(dp1056
g62
(dp1057
g82
g83
ssg71
g1051
sg64
(lp1058
S'http_accept_language'
p1059
asbag57
(g78
g59
NtRp1060
(dp1061
g62
(dp1062
g89
g90
ssg71
g1051
sg64
(lp1063
S':'
asbag57
(g78
g59
NtRp1064
(dp1065
g62
(dp1066
sg71
g1051
sg64
(lp1067
g57
(g58
g59
NtRp1068
(dp1069
g62
(dp1070
g70
I4
ssg71
g1064
sg64
(lp1071
S'en-US,zh-cn;q=0.5'
p1072
asbasbasbag57
(g73
g59
NtRp1073
(dp1074
g62
(dp1075
sg71
g847
sg64
(lp1076
g57
(g78
g59
NtRp1077
(dp1078
g62
(dp1079
g82
g83
ssg71
g1073
sg64
(lp1080
S'http_connection'
p1081
asbag57
(g78
g59
NtRp1082
(dp1083
g62
(dp1084
g89
g90
ssg71
g1073
sg64
(lp1085
S':'
asbag57
(g78
g59
NtRp1086
(dp1087
g62
(dp1088
sg71
g1073
sg64
(lp1089
g57
(g58
g59
NtRp1090
(dp1091
g62
(dp1092
g70
I4
ssg71
g1086
sg64
(lp1093
S'Keep-Alive'
p1094
asbasbasbag57
(g73
g59
NtRp1095
(dp1096
g62
(dp1097
sg71
g847
sg64
(lp1098
g57
(g78
g59
NtRp1099
(dp1100
g62
(dp1101
g82
g83
ssg71
g1095
sg64
(lp1102
S'http_cookie'
p1103
asbag57
(g78
g59
NtRp1104
(dp1105
g62
(dp1106
g89
g90
ssg71
g1095
sg64
(lp1107
S':'
asbag57
(g78
g59
NtRp1108
(dp1109
g62
(dp1110
sg71
g1095
sg64
(lp1111
g57
(g58
g59
NtRp1112
(dp1113
g62
(dp1114
g70
I4
ssg71
g1108
sg64
(lp1115
S'session_id_welcome=127.0.0.1-85cf6716-f458-4c20-b470-30e58294b230; session_id_admin=127.0.0.1-304ee069-1576-4fbf-bd8b-3f7ad31c7229; session_id_qsuntastebudsv2=127.0.0.1-03c509ec-2cef-426f-a88b-6eb0c079c2a6'
p1116
asbasbasbag57
(g73
g59
NtRp1117
(dp1118
g62
(dp1119
sg71
g847
sg64
(lp1120
g57
(g78
g59
NtRp1121
(dp1122
g62
(dp1123
g82
g83
ssg71
g1117
sg64
(lp1124
S'http_host'
p1125
asbag57
(g78
g59
NtRp1126
(dp1127
g62
(dp1128
g89
g90
ssg71
g1117
sg64
(lp1129
S':'
asbag57
(g78
g59
NtRp1130
(dp1131
g62
(dp1132
sg71
g1117
sg64
(lp1133
g57
(g58
g59
NtRp1134
(dp1135
g62
(dp1136
g70
I4
ssg71
g1130
sg64
(lp1137
S'127.0.0.1:8000'
p1138
asbasbasbag57
(g73
g59
NtRp1139
(dp1140
g62
(dp1141
sg71
g847
sg64
(lp1142
g57
(g78
g59
NtRp1143
(dp1144
g62
(dp1145
g82
g83
ssg71
g1139
sg64
(lp1146
S'http_user_agent'
p1147
asbag57
(g78
g59
NtRp1148
(dp1149
g62
(dp1150
g89
g90
ssg71
g1139
sg64
(lp1151
S':'
asbag57
(g78
g59
NtRp1152
(dp1153
g62
(dp1154
sg71
g1139
sg64
(lp1155
g57
(g58
g59
NtRp1156
(dp1157
g62
(dp1158
g70
I4
ssg71
g1152
sg64
(lp1159
S'Mozilla/4.0 (compatible; MSIE 8.0; Windows NT 5.1; Trident/4.0; .NET4.0C; .NET4.0E; InfoPath.2; .NET CLR 2.0.50727; .NET CLR 3.0.04506.30)'
p1160
asbasbasbag57
(g73
g59
NtRp1161
(dp1162
g62
(dp1163
sg71
g847
sg64
(lp1164
g57
(g78
g59
NtRp1165
(dp1166
g62
(dp1167
g82
g83
ssg71
g1161
sg64
(lp1168
S'is_jython'
p1169
asbag57
(g78
g59
NtRp1170
(dp1171
g62
(dp1172
g89
g90
ssg71
g1161
sg64
(lp1173
S':'
asbag57
(g78
g59
NtRp1174
(dp1175
g62
(dp1176
sg71
g1161
sg64
(lp1177
g57
(g58
g59
NtRp1178
(dp1179
g62
(dp1180
g70
I4
ssg71
g1174
sg64
(lp1181
g100
asbasbasbag57
(g73
g59
NtRp1182
(dp1183
g62
(dp1184
sg71
g847
sg64
(lp1185
g57
(g78
g59
NtRp1186
(dp1187
g62
(dp1188
g82
g83
ssg71
g1182
sg64
(lp1189
S'is_pypy'
p1190
asbag57
(g78
g59
NtRp1191
(dp1192
g62
(dp1193
g89
g90
ssg71
g1182
sg64
(lp1194
S':'
asbag57
(g78
g59
NtRp1195
(dp1196
g62
(dp1197
sg71
g1182
sg64
(lp1198
g57
(g58
g59
NtRp1199
(dp1200
g62
(dp1201
g70
I4
ssg71
g1195
sg64
(lp1202
g100
asbasbasbag57
(g73
g59
NtRp1203
(dp1204
g62
(dp1205
sg71
g847
sg64
(lp1206
g57
(g78
g59
NtRp1207
(dp1208
g62
(dp1209
g82
g83
ssg71
g1203
sg64
(lp1210
S'path_info'
p1211
asbag57
(g78
g59
NtRp1212
(dp1213
g62
(dp1214
g89
g90
ssg71
g1203
sg64
(lp1215
S':'
asbag57
(g78
g59
NtRp1216
(dp1217
g62
(dp1218
sg71
g1203
sg64
(lp1219
g57
(g58
g59
NtRp1220
(dp1221
g62
(dp1222
g70
I4
ssg71
g1216
sg64
(lp1223
S'/QSunTasteBudsV2/'
p1224
asbasbasbag57
(g73
g59
NtRp1225
(dp1226
g62
(dp1227
sg71
g847
sg64
(lp1228
g57
(g78
g59
NtRp1229
(dp1230
g62
(dp1231
g82
g83
ssg71
g1225
sg64
(lp1232
S'query_string'
p1233
asbag57
(g78
g59
NtRp1234
(dp1235
g62
(dp1236
g89
g90
ssg71
g1225
sg64
(lp1237
S':'
asbag57
(g78
g59
NtRp1238
(dp1239
g62
(dp1240
sg71
g1225
sg64
(lp1241
g57
(g58
g59
NtRp1242
(dp1243
g62
(dp1244
g70
I4
ssg71
g1238
sg64
(lp1245
S''
asbasbasbag57
(g73
g59
NtRp1246
(dp1247
g62
(dp1248
sg71
g847
sg64
(lp1249
g57
(g78
g59
NtRp1250
(dp1251
g62
(dp1252
g82
g83
ssg71
g1246
sg64
(lp1253
S'remote_addr'
p1254
asbag57
(g78
g59
NtRp1255
(dp1256
g62
(dp1257
g89
g90
ssg71
g1246
sg64
(lp1258
S':'
asbag57
(g78
g59
NtRp1259
(dp1260
g62
(dp1261
sg71
g1246
sg64
(lp1262
g57
(g58
g59
NtRp1263
(dp1264
g62
(dp1265
g70
I4
ssg71
g1259
sg64
(lp1266
g212
asbasbasbag57
(g73
g59
NtRp1267
(dp1268
g62
(dp1269
sg71
g847
sg64
(lp1270
g57
(g78
g59
NtRp1271
(dp1272
g62
(dp1273
g82
g83
ssg71
g1267
sg64
(lp1274
S'remote_port'
p1275
asbag57
(g78
g59
NtRp1276
(dp1277
g62
(dp1278
g89
g90
ssg71
g1267
sg64
(lp1279
S':'
asbag57
(g78
g59
NtRp1280
(dp1281
g62
(dp1282
sg71
g1267
sg64
(lp1283
g57
(g58
g59
NtRp1284
(dp1285
g62
(dp1286
g70
I4
ssg71
g1280
sg64
(lp1287
S'4699'
p1288
asbasbasbag57
(g73
g59
NtRp1289
(dp1290
g62
(dp1291
sg71
g847
sg64
(lp1292
g57
(g78
g59
NtRp1293
(dp1294
g62
(dp1295
g82
g83
ssg71
g1289
sg64
(lp1296
S'request_method'
p1297
asbag57
(g78
g59
NtRp1298
(dp1299
g62
(dp1300
g89
g90
ssg71
g1289
sg64
(lp1301
S':'
asbag57
(g78
g59
NtRp1302
(dp1303
g62
(dp1304
sg71
g1289
sg64
(lp1305
g57
(g58
g59
NtRp1306
(dp1307
g62
(dp1308
g70
I4
ssg71
g1302
sg64
(lp1309
S'GET'
p1310
asbasbasbag57
(g73
g59
NtRp1311
(dp1312
g62
(dp1313
sg71
g847
sg64
(lp1314
g57
(g78
g59
NtRp1315
(dp1316
g62
(dp1317
g82
g83
ssg71
g1311
sg64
(lp1318
S'request_uri'
p1319
asbag57
(g78
g59
NtRp1320
(dp1321
g62
(dp1322
g89
g90
ssg71
g1311
sg64
(lp1323
S':'
asbag57
(g78
g59
NtRp1324
(dp1325
g62
(dp1326
sg71
g1311
sg64
(lp1327
g57
(g58
g59
NtRp1328
(dp1329
g62
(dp1330
g70
I4
ssg71
g1324
sg64
(lp1331
g1224
asbasbasbag57
(g73
g59
NtRp1332
(dp1333
g62
(dp1334
sg71
g847
sg64
(lp1335
g57
(g78
g59
NtRp1336
(dp1337
g62
(dp1338
g82
g83
ssg71
g1332
sg64
(lp1339
S'script_name'
p1340
asbag57
(g78
g59
NtRp1341
(dp1342
g62
(dp1343
g89
g90
ssg71
g1332
sg64
(lp1344
S':'
asbag57
(g78
g59
NtRp1345
(dp1346
g62
(dp1347
sg71
g1332
sg64
(lp1348
g57
(g58
g59
NtRp1349
(dp1350
g62
(dp1351
g70
I4
ssg71
g1345
sg64
(lp1352
S''
asbasbasbag57
(g73
g59
NtRp1353
(dp1354
g62
(dp1355
sg71
g847
sg64
(lp1356
g57
(g78
g59
NtRp1357
(dp1358
g62
(dp1359
g82
g83
ssg71
g1353
sg64
(lp1360
S'server_name'
p1361
asbag57
(g78
g59
NtRp1362
(dp1363
g62
(dp1364
g89
g90
ssg71
g1353
sg64
(lp1365
S':'
asbag57
(g78
g59
NtRp1366
(dp1367
g62
(dp1368
sg71
g1353
sg64
(lp1369
g57
(g58
g59
NtRp1370
(dp1371
g62
(dp1372
g70
I4
ssg71
g1366
sg64
(lp1373
S'MICROSOF-F36848'
p1374
asbasbasbag57
(g73
g59
NtRp1375
(dp1376
g62
(dp1377
sg71
g847
sg64
(lp1378
g57
(g78
g59
NtRp1379
(dp1380
g62
(dp1381
g82
g83
ssg71
g1375
sg64
(lp1382
S'server_port'
p1383
asbag57
(g78
g59
NtRp1384
(dp1385
g62
(dp1386
g89
g90
ssg71
g1375
sg64
(lp1387
S':'
asbag57
(g78
g59
NtRp1388
(dp1389
g62
(dp1390
sg71
g1375
sg64
(lp1391
g57
(g58
g59
NtRp1392
(dp1393
g62
(dp1394
g70
I4
ssg71
g1388
sg64
(lp1395
S'8000'
p1396
asbasbasbag57
(g73
g59
NtRp1397
(dp1398
g62
(dp1399
sg71
g847
sg64
(lp1400
g57
(g78
g59
NtRp1401
(dp1402
g62
(dp1403
g82
g83
ssg71
g1397
sg64
(lp1404
S'server_protocol'
p1405
asbag57
(g78
g59
NtRp1406
(dp1407
g62
(dp1408
g89
g90
ssg71
g1397
sg64
(lp1409
S':'
asbag57
(g78
g59
NtRp1410
(dp1411
g62
(dp1412
sg71
g1397
sg64
(lp1413
g57
(g58
g59
NtRp1414
(dp1415
g62
(dp1416
g70
I4
ssg71
g1410
sg64
(lp1417
S'HTTP/1.1'
p1418
asbasbasbag57
(g73
g59
NtRp1419
(dp1420
g62
(dp1421
sg71
g847
sg64
(lp1422
g57
(g78
g59
NtRp1423
(dp1424
g62
(dp1425
g82
g83
ssg71
g1419
sg64
(lp1426
S'server_software'
p1427
asbag57
(g78
g59
NtRp1428
(dp1429
g62
(dp1430
g89
g90
ssg71
g1419
sg64
(lp1431
S':'
asbag57
(g78
g59
NtRp1432
(dp1433
g62
(dp1434
sg71
g1419
sg64
(lp1435
g57
(g58
g59
NtRp1436
(dp1437
g62
(dp1438
g70
I4
ssg71
g1432
sg64
(lp1439
S'Rocket 1.2.4'
p1440
asbasbasbag57
(g73
g59
NtRp1441
(dp1442
g62
(dp1443
sg71
g847
sg64
(lp1444
g57
(g78
g59
NtRp1445
(dp1446
g62
(dp1447
g82
g83
ssg71
g1441
sg64
(lp1448
S'web2py_crontype'
p1449
asbag57
(g78
g59
NtRp1450
(dp1451
g62
(dp1452
g89
g90
ssg71
g1441
sg64
(lp1453
S':'
asbag57
(g78
g59
NtRp1454
(dp1455
g62
(dp1456
sg71
g1441
sg64
(lp1457
g57
(g58
g59
NtRp1458
(dp1459
g62
(dp1460
g70
I4
ssg71
g1454
sg64
(lp1461
S'hard'
p1462
asbasbasbag57
(g73
g59
NtRp1463
(dp1464
g62
(dp1465
sg71
g847
sg64
(lp1466
g57
(g78
g59
NtRp1467
(dp1468
g62
(dp1469
g82
g83
ssg71
g1463
sg64
(lp1470
S'web2py_path'
p1471
asbag57
(g78
g59
NtRp1472
(dp1473
g62
(dp1474
g89
g90
ssg71
g1463
sg64
(lp1475
S':'
asbag57
(g78
g59
NtRp1476
(dp1477
g62
(dp1478
sg71
g1463
sg64
(lp1479
g57
(g58
g59
NtRp1480
(dp1481
g62
(dp1482
g70
I4
ssg71
g1476
sg64
(lp1483
g894
asbasbasbag57
(g73
g59
NtRp1484
(dp1485
g62
(dp1486
sg71
g847
sg64
(lp1487
g57
(g78
g59
NtRp1488
(dp1489
g62
(dp1490
g82
g83
ssg71
g1484
sg64
(lp1491
S'web2py_version'
p1492
asbag57
(g78
g59
NtRp1493
(dp1494
g62
(dp1495
g89
g90
ssg71
g1484
sg64
(lp1496
S':'
asbag57
(g78
g59
NtRp1497
(dp1498
g62
(dp1499
sg71
g1484
sg64
(lp1500
g57
(g58
g59
NtRp1501
(dp1502
g62
(dp1503
g70
I4
ssg71
g1497
sg64
(lp1504
g57
(g66
g59
NtRp1505
(dp1506
g62
(dp1507
g70
I3
ssg71
Nsg64
(lp1508
g57
(g73
g59
NtRp1509
(dp1510
g62
(dp1511
sg71
g1505
sg64
(lp1512
g57
(g78
g59
NtRp1513
(dp1514
g62
(dp1515
sg71
g1509
sg64
(lp1516
g57
(g58
g59
NtRp1517
(dp1518
g62
(dp1519
g70
I3
ssg71
g1513
sg64
(lp1520
S'2'
asbasbasbag57
(g73
g59
NtRp1521
(dp1522
g62
(dp1523
sg71
g1505
sg64
(lp1524
g57
(g78
g59
NtRp1525
(dp1526
g62
(dp1527
sg71
g1521
sg64
(lp1528
g57
(g58
g59
NtRp1529
(dp1530
g62
(dp1531
g70
I3
ssg71
g1525
sg64
(lp1532
S'0'
asbasbasbag57
(g73
g59
NtRp1533
(dp1534
g62
(dp1535
sg71
g1505
sg64
(lp1536
g57
(g78
g59
NtRp1537
(dp1538
g62
(dp1539
sg71
g1533
sg64
(lp1540
g57
(g58
g59
NtRp1541
(dp1542
g62
(dp1543
g70
I3
ssg71
g1537
sg64
(lp1544
S'9'
asbasbasbag57
(g73
g59
NtRp1545
(dp1546
g62
(dp1547
sg71
g1505
sg64
(lp1548
g57
(g78
g59
NtRp1549
(dp1550
g62
(dp1551
sg71
g1545
sg64
(lp1552
g57
(g58
g59
NtRp1553
(dp1554
g62
(dp1555
g70
I3
ssg71
g1549
sg64
(lp1556
S'datetime.datetime(2012, 9, 13, 23, 51, 30)'
p1557
asbasbasbag57
(g73
g59
NtRp1558
(dp1559
g62
(dp1560
sg71
g1505
sg64
(lp1561
g57
(g78
g59
NtRp1562
(dp1563
g62
(dp1564
sg71
g1558
sg64
(lp1565
g57
(g58
g59
NtRp1566
(dp1567
g62
(dp1568
g70
I3
ssg71
g1562
sg64
(lp1569
S'stable'
p1570
asbasbasbasbasbasbasbag57
(g73
g59
NtRp1571
(dp1572
g62
(dp1573
sg71
g847
sg64
(lp1574
g57
(g78
g59
NtRp1575
(dp1576
g62
(dp1577
g82
g83
ssg71
g1571
sg64
(lp1578
S'wsgi_errors'
p1579
asbag57
(g78
g59
NtRp1580
(dp1581
g62
(dp1582
g89
g90
ssg71
g1571
sg64
(lp1583
S':'
asbag57
(g78
g59
NtRp1584
(dp1585
g62
(dp1586
sg71
g1571
sg64
(lp1587
g57
(g58
g59
NtRp1588
(dp1589
g62
(dp1590
g70
I4
ssg71
g1584
sg64
(lp1591
S"<open file '<stderr>', mode 'w' at 0x009350D0>"
p1592
asbasbasbag57
(g73
g59
NtRp1593
(dp1594
g62
(dp1595
sg71
g847
sg64
(lp1596
g57
(g78
g59
NtRp1597
(dp1598
g62
(dp1599
g82
g83
ssg71
g1593
sg64
(lp1600
S'wsgi_file_wrapper'
p1601
asbag57
(g78
g59
NtRp1602
(dp1603
g62
(dp1604
g89
g90
ssg71
g1593
sg64
(lp1605
S':'
asbag57
(g78
g59
NtRp1606
(dp1607
g62
(dp1608
sg71
g1593
sg64
(lp1609
g57
(g58
g59
NtRp1610
(dp1611
g62
(dp1612
g70
I4
ssg71
g1606
sg64
(lp1613
S'<class wsgiref.util.FileWrapper at 0x016DAF10>'
p1614
asbasbasbag57
(g73
g59
NtRp1615
(dp1616
g62
(dp1617
sg71
g847
sg64
(lp1618
g57
(g78
g59
NtRp1619
(dp1620
g62
(dp1621
g82
g83
ssg71
g1615
sg64
(lp1622
S'wsgi_input'
p1623
asbag57
(g78
g59
NtRp1624
(dp1625
g62
(dp1626
g89
g90
ssg71
g1615
sg64
(lp1627
S':'
asbag57
(g78
g59
NtRp1628
(dp1629
g62
(dp1630
sg71
g1615
sg64
(lp1631
g57
(g58
g59
NtRp1632
(dp1633
g62
(dp1634
g70
I4
ssg71
g1628
sg64
(lp1635
S'<socket._fileobject object at 0x03D764F0>'
p1636
asbasbasbag57
(g73
g59
NtRp1637
(dp1638
g62
(dp1639
sg71
g847
sg64
(lp1640
g57
(g78
g59
NtRp1641
(dp1642
g62
(dp1643
g82
g83
ssg71
g1637
sg64
(lp1644
S'wsgi_multiprocess'
p1645
asbag57
(g78
g59
NtRp1646
(dp1647
g62
(dp1648
g89
g90
ssg71
g1637
sg64
(lp1649
S':'
asbag57
(g78
g59
NtRp1650
(dp1651
g62
(dp1652
sg71
g1637
sg64
(lp1653
g57
(g58
g59
NtRp1654
(dp1655
g62
(dp1656
g70
I4
ssg71
g1650
sg64
(lp1657
g100
asbasbasbag57
(g73
g59
NtRp1658
(dp1659
g62
(dp1660
sg71
g847
sg64
(lp1661
g57
(g78
g59
NtRp1662
(dp1663
g62
(dp1664
g82
g83
ssg71
g1658
sg64
(lp1665
S'wsgi_multithread'
p1666
asbag57
(g78
g59
NtRp1667
(dp1668
g62
(dp1669
g89
g90
ssg71
g1658
sg64
(lp1670
S':'
asbag57
(g78
g59
NtRp1671
(dp1672
g62
(dp1673
sg71
g1658
sg64
(lp1674
g57
(g58
g59
NtRp1675
(dp1676
g62
(dp1677
g70
I4
ssg71
g1671
sg64
(lp1678
S'True'
p1679
asbasbasbag57
(g73
g59
NtRp1680
(dp1681
g62
(dp1682
sg71
g847
sg64
(lp1683
g57
(g78
g59
NtRp1684
(dp1685
g62
(dp1686
g82
g83
ssg71
g1680
sg64
(lp1687
S'wsgi_run_once'
p1688
asbag57
(g78
g59
NtRp1689
(dp1690
g62
(dp1691
g89
g90
ssg71
g1680
sg64
(lp1692
S':'
asbag57
(g78
g59
NtRp1693
(dp1694
g62
(dp1695
sg71
g1680
sg64
(lp1696
g57
(g58
g59
NtRp1697
(dp1698
g62
(dp1699
g70
I4
ssg71
g1693
sg64
(lp1700
g100
asbasbasbag57
(g73
g59
NtRp1701
(dp1702
g62
(dp1703
sg71
g847
sg64
(lp1704
g57
(g78
g59
NtRp1705
(dp1706
g62
(dp1707
g82
g83
ssg71
g1701
sg64
(lp1708
S'wsgi_url_scheme'
p1709
asbag57
(g78
g59
NtRp1710
(dp1711
g62
(dp1712
g89
g90
ssg71
g1701
sg64
(lp1713
S':'
asbag57
(g78
g59
NtRp1714
(dp1715
g62
(dp1716
sg71
g1701
sg64
(lp1717
g57
(g58
g59
NtRp1718
(dp1719
g62
(dp1720
g70
I4
ssg71
g1714
sg64
(lp1721
S'http'
p1722
asbasbasbag57
(g73
g59
NtRp1723
(dp1724
g62
(dp1725
sg71
g847
sg64
(lp1726
g57
(g78
g59
NtRp1727
(dp1728
g62
(dp1729
g82
g83
ssg71
g1723
sg64
(lp1730
S'wsgi_version'
p1731
asbag57
(g78
g59
NtRp1732
(dp1733
g62
(dp1734
g89
g90
ssg71
g1723
sg64
(lp1735
S':'
asbag57
(g78
g59
NtRp1736
(dp1737
g62
(dp1738
sg71
g1723
sg64
(lp1739
g57
(g58
g59
NtRp1740
(dp1741
g62
(dp1742
g70
I4
ssg71
g1736
sg64
(lp1743
g57
(g66
g59
NtRp1744
(dp1745
g62
(dp1746
g70
I3
ssg71
Nsg64
(lp1747
g57
(g73
g59
NtRp1748
(dp1749
g62
(dp1750
sg71
g1744
sg64
(lp1751
g57
(g78
g59
NtRp1752
(dp1753
g62
(dp1754
sg71
g1748
sg64
(lp1755
g57
(g58
g59
NtRp1756
(dp1757
g62
(dp1758
g70
I3
ssg71
g1752
sg64
(lp1759
S'1'
asbasbasbag57
(g73
g59
NtRp1760
(dp1761
g62
(dp1762
sg71
g1744
sg64
(lp1763
g57
(g78
g59
NtRp1764
(dp1765
g62
(dp1766
sg71
g1760
sg64
(lp1767
g57
(g58
g59
NtRp1768
(dp1769
g62
(dp1770
g70
I3
ssg71
g1764
sg64
(lp1771
S'0'
asbasbasbasbasbasbasbasbasbasbasbag57
(g73
g59
NtRp1772
(dp1773
g62
(dp1774
sg71
g67
sg64
(lp1775
g57
(g78
g59
NtRp1776
(dp1777
g62
(dp1778
g82
g83
ssg71
g1772
sg64
(lp1779
S'extension'
p1780
asbag57
(g78
g59
NtRp1781
(dp1782
g62
(dp1783
g89
g90
ssg71
g1772
sg64
(lp1784
S':'
asbag57
(g78
g59
NtRp1785
(dp1786
g62
(dp1787
sg71
g1772
sg64
(lp1788
g57
(g58
g59
NtRp1789
(dp1790
g62
(dp1791
g70
I5
ssg71
g1785
sg64
(lp1792
S'html'
p1793
asbasbasbag57
(g73
g59
NtRp1794
(dp1795
g62
(dp1796
sg71
g67
sg64
(lp1797
g57
(g78
g59
NtRp1798
(dp1799
g62
(dp1800
g82
g83
ssg71
g1794
sg64
(lp1801
S'folder'
p1802
asbag57
(g78
g59
NtRp1803
(dp1804
g62
(dp1805
g89
g90
ssg71
g1794
sg64
(lp1806
S':'
asbag57
(g78
g59
NtRp1807
(dp1808
g62
(dp1809
sg71
g1794
sg64
(lp1810
g57
(g58
g59
NtRp1811
(dp1812
g62
(dp1813
g70
I5
ssg71
g1807
sg64
(lp1814
S'D:\\web2py_win\\web2py\\applications\\QSunTasteBudsV2\\'
p1815
asbasbasbag57
(g73
g59
NtRp1816
(dp1817
g62
(dp1818
sg71
g67
sg64
(lp1819
g57
(g78
g59
NtRp1820
(dp1821
g62
(dp1822
g82
g83
ssg71
g1816
sg64
(lp1823
S'function'
p1824
asbag57
(g78
g59
NtRp1825
(dp1826
g62
(dp1827
g89
g90
ssg71
g1816
sg64
(lp1828
S':'
asbag57
(g78
g59
NtRp1829
(dp1830
g62
(dp1831
sg71
g1816
sg64
(lp1832
g57
(g58
g59
NtRp1833
(dp1834
g62
(dp1835
g70
I5
ssg71
g1829
sg64
(lp1836
S'index'
p1837
asbasbasbag57
(g73
g59
NtRp1838
(dp1839
g62
(dp1840
sg71
g67
sg64
(lp1841
g57
(g78
g59
NtRp1842
(dp1843
g62
(dp1844
g82
g83
ssg71
g1838
sg64
(lp1845
S'get_vars'
p1846
asbag57
(g78
g59
NtRp1847
(dp1848
g62
(dp1849
g89
g90
ssg71
g1838
sg64
(lp1850
S':'
asbag57
(g78
g59
NtRp1851
(dp1852
g62
(dp1853
sg71
g1838
sg64
(lp1854
g57
(g58
g59
NtRp1855
(dp1856
g62
(dp1857
g70
I5
ssg71
g1851
sg64
(lp1858
g57
(g66
g59
NtRp1859
(dp1860
g62
(dp1861
g70
I4
ssg71
Nsg64
(lp1862
sbasbasbasbag57
(g73
g59
NtRp1863
(dp1864
g62
(dp1865
sg71
g67
sg64
(lp1866
g57
(g78
g59
NtRp1867
(dp1868
g62
(dp1869
g82
g83
ssg71
g1863
sg64
(lp1870
S'global_settings'
p1871
asbag57
(g78
g59
NtRp1872
(dp1873
g62
(dp1874
g89
g90
ssg71
g1863
sg64
(lp1875
S':'
asbag57
(g78
g59
NtRp1876
(dp1877
g62
(dp1878
sg71
g1863
sg64
(lp1879
g57
(g58
g59
NtRp1880
(dp1881
g62
(dp1882
g70
I5
ssg71
g1876
sg64
(lp1883
g57
(g66
g59
NtRp1884
(dp1885
g62
(dp1886
g70
I4
ssg71
Nsg64
(lp1887
g57
(g73
g59
NtRp1888
(dp1889
g62
(dp1890
sg71
g1884
sg64
(lp1891
g57
(g78
g59
NtRp1892
(dp1893
g62
(dp1894
g82
g83
ssg71
g1888
sg64
(lp1895
g859
asbag57
(g78
g59
NtRp1896
(dp1897
g62
(dp1898
g89
g90
ssg71
g1888
sg64
(lp1899
S':'
asbag57
(g78
g59
NtRp1900
(dp1901
g62
(dp1902
sg71
g1888
sg64
(lp1903
g57
(g58
g59
NtRp1904
(dp1905
g62
(dp1906
g70
I4
ssg71
g1900
sg64
(lp1907
S"set(['D:\\\\web2py_win\\\\web2py\\\\applications\\\\welcome\\\\', 'D:\\\\web2py_win\\\\web2py\\\\applications\\\\admin\\\\', 'D:\\\\web2py_win\\\\web2py\\\\applications\\\\QSunTasteBudsV2\\\\'])"
p1908
asbasbasbag57
(g73
g59
NtRp1909
(dp1910
g62
(dp1911
sg71
g1884
sg64
(lp1912
g57
(g78
g59
NtRp1913
(dp1914
g62
(dp1915
g82
g83
ssg71
g1909
sg64
(lp1916
g881
asbag57
(g78
g59
NtRp1917
(dp1918
g62
(dp1919
g89
g90
ssg71
g1909
sg64
(lp1920
S':'
asbag57
(g78
g59
NtRp1921
(dp1922
g62
(dp1923
sg71
g1909
sg64
(lp1924
g57
(g58
g59
NtRp1925
(dp1926
g62
(dp1927
g70
I4
ssg71
g1921
sg64
(lp1928
g894
asbasbasbag57
(g73
g59
NtRp1929
(dp1930
g62
(dp1931
sg71
g1884
sg64
(lp1932
g57
(g78
g59
NtRp1933
(dp1934
g62
(dp1935
g82
g83
ssg71
g1929
sg64
(lp1936
g903
asbag57
(g78
g59
NtRp1937
(dp1938
g62
(dp1939
g89
g90
ssg71
g1929
sg64
(lp1940
S':'
asbag57
(g78
g59
NtRp1941
(dp1942
g62
(dp1943
sg71
g1929
sg64
(lp1944
g57
(g58
g59
NtRp1945
(dp1946
g62
(dp1947
g70
I4
ssg71
g1941
sg64
(lp1948
g57
(g66
g59
NtRp1949
(dp1950
g62
(dp1951
g70
I3
ssg71
Nsg64
(lp1952
sbasbasbasbag57
(g73
g59
NtRp1953
(dp1954
g62
(dp1955
sg71
g1884
sg64
(lp1956
g57
(g78
g59
NtRp1957
(dp1958
g62
(dp1959
g82
g83
ssg71
g1953
sg64
(lp1960
g928
asbag57
(g78
g59
NtRp1961
(dp1962
g62
(dp1963
g89
g90
ssg71
g1953
sg64
(lp1964
S':'
asbag57
(g78
g59
NtRp1965
(dp1966
g62
(dp1967
sg71
g1953
sg64
(lp1968
g57
(g58
g59
NtRp1969
(dp1970
g62
(dp1971
g70
I4
ssg71
g1965
sg64
(lp1972
S"<Values at 0x17494b8: {'verbose': False, 'ip': '127.0.0.1', 'with_scheduler': False, 'ips': [], 'shutdown_timeout': 5, 'taskbar': False, 'port': 8000, 'maxthreads': None, 'softcron': False, 'server_name': 'MICROSOF-F36848', 'bpython': False, 'nogui': False, 'nocron': False, 'extcron': False, 'run_system_tests': False, 'test': None, 'folder': 'D:\\\\web2py_win\\\\web2py', 'config': '', 'import_models': False, 'winservice': '', 'shell': None, 'run': '', 'log_filename': 'httpserver.log', 'debuglevel': 30, 'args': [''], 'socket_timeout': 5, 'ssl_ca_certificate': None, 'scheduler': None, 'profiler_filename': None, 'ssl_private_key': '', 'scheduler_groups': None, 'password': '<ask>', 'request_queue_size': 5, 'ssl_certificate': '', 'cronjob': False, 'numthreads': None, 'quiet': False, 'interfaces': None, 'minthreads': None, 'timeout': 10, 'plain': False, 'nobanner': False, 'pid_filename': 'httpserver.pid'}>"
p1973
asbasbasbag57
(g73
g59
NtRp1974
(dp1975
g62
(dp1976
sg71
g1884
sg64
(lp1977
g57
(g78
g59
NtRp1978
(dp1979
g62
(dp1980
g82
g83
ssg71
g1974
sg64
(lp1981
g950
asbag57
(g78
g59
NtRp1982
(dp1983
g62
(dp1984
g89
g90
ssg71
g1974
sg64
(lp1985
S':'
asbag57
(g78
g59
NtRp1986
(dp1987
g62
(dp1988
sg71
g1974
sg64
(lp1989
g57
(g58
g59
NtRp1990
(dp1991
g62
(dp1992
g70
I4
ssg71
g1986
sg64
(lp1993
S'set([])'
p1994
asbasbasbag57
(g73
g59
NtRp1995
(dp1996
g62
(dp1997
sg71
g1884
sg64
(lp1998
g57
(g78
g59
NtRp1999
(dp2000
g62
(dp2001
g82
g83
ssg71
g1995
sg64
(lp2002
g972
asbag57
(g78
g59
NtRp2003
(dp2004
g62
(dp2005
g89
g90
ssg71
g1995
sg64
(lp2006
S':'
asbag57
(g78
g59
NtRp2007
(dp2008
g62
(dp2009
sg71
g1995
sg64
(lp2010
g57
(g58
g59
NtRp2011
(dp2012
g62
(dp2013
g70
I4
ssg71
g2007
sg64
(lp2014
g100
asbasbasbag57
(g73
g59
NtRp2015
(dp2016
g62
(dp2017
sg71
g1884
sg64
(lp2018
g57
(g78
g59
NtRp2019
(dp2020
g62
(dp2021
g82
g83
ssg71
g2015
sg64
(lp2022
g993
asbag57
(g78
g59
NtRp2023
(dp2024
g62
(dp2025
g89
g90
ssg71
g2015
sg64
(lp2026
S':'
asbag57
(g78
g59
NtRp2027
(dp2028
g62
(dp2029
sg71
g2015
sg64
(lp2030
g57
(g58
g59
NtRp2031
(dp2032
g62
(dp2033
g70
I4
ssg71
g2027
sg64
(lp2034
g1006
asbasbasbag57
(g73
g59
NtRp2035
(dp2036
g62
(dp2037
sg71
g1884
sg64
(lp2038
g57
(g78
g59
NtRp2039
(dp2040
g62
(dp2041
g82
g83
ssg71
g2035
sg64
(lp2042
g1169
asbag57
(g78
g59
NtRp2043
(dp2044
g62
(dp2045
g89
g90
ssg71
g2035
sg64
(lp2046
S':'
asbag57
(g78
g59
NtRp2047
(dp2048
g62
(dp2049
sg71
g2035
sg64
(lp2050
g57
(g58
g59
NtRp2051
(dp2052
g62
(dp2053
g70
I4
ssg71
g2047
sg64
(lp2054
g100
asbasbasbag57
(g73
g59
NtRp2055
(dp2056
g62
(dp2057
sg71
g1884
sg64
(lp2058
g57
(g78
g59
NtRp2059
(dp2060
g62
(dp2061
g82
g83
ssg71
g2055
sg64
(lp2062
g1190
asbag57
(g78
g59
NtRp2063
(dp2064
g62
(dp2065
g89
g90
ssg71
g2055
sg64
(lp2066
S':'
asbag57
(g78
g59
NtRp2067
(dp2068
g62
(dp2069
sg71
g2055
sg64
(lp2070
g57
(g58
g59
NtRp2071
(dp2072
g62
(dp2073
g70
I4
ssg71
g2067
sg64
(lp2074
g100
asbasbasbag57
(g73
g59
NtRp2075
(dp2076
g62
(dp2077
sg71
g1884
sg64
(lp2078
g57
(g78
g59
NtRp2079
(dp2080
g62
(dp2081
g82
g83
ssg71
g2075
sg64
(lp2082
g1449
asbag57
(g78
g59
NtRp2083
(dp2084
g62
(dp2085
g89
g90
ssg71
g2075
sg64
(lp2086
S':'
asbag57
(g78
g59
NtRp2087
(dp2088
g62
(dp2089
sg71
g2075
sg64
(lp2090
g57
(g58
g59
NtRp2091
(dp2092
g62
(dp2093
g70
I4
ssg71
g2087
sg64
(lp2094
g1462
asbasbasbag57
(g73
g59
NtRp2095
(dp2096
g62
(dp2097
sg71
g1884
sg64
(lp2098
g57
(g78
g59
NtRp2099
(dp2100
g62
(dp2101
g82
g83
ssg71
g2095
sg64
(lp2102
g1492
asbag57
(g78
g59
NtRp2103
(dp2104
g62
(dp2105
g89
g90
ssg71
g2095
sg64
(lp2106
S':'
asbag57
(g78
g59
NtRp2107
(dp2108
g62
(dp2109
sg71
g2095
sg64
(lp2110
g57
(g58
g59
NtRp2111
(dp2112
g62
(dp2113
g70
I4
ssg71
g2107
sg64
(lp2114
g57
(g66
g59
NtRp2115
(dp2116
g62
(dp2117
g70
I3
ssg71
Nsg64
(lp2118
g57
(g73
g59
NtRp2119
(dp2120
g62
(dp2121
sg71
g2115
sg64
(lp2122
g57
(g78
g59
NtRp2123
(dp2124
g62
(dp2125
sg71
g2119
sg64
(lp2126
g57
(g58
g59
NtRp2127
(dp2128
g62
(dp2129
g70
I3
ssg71
g2123
sg64
(lp2130
S'2'
asbasbasbag57
(g73
g59
NtRp2131
(dp2132
g62
(dp2133
sg71
g2115
sg64
(lp2134
g57
(g78
g59
NtRp2135
(dp2136
g62
(dp2137
sg71
g2131
sg64
(lp2138
g57
(g58
g59
NtRp2139
(dp2140
g62
(dp2141
g70
I3
ssg71
g2135
sg64
(lp2142
S'0'
asbasbasbag57
(g73
g59
NtRp2143
(dp2144
g62
(dp2145
sg71
g2115
sg64
(lp2146
g57
(g78
g59
NtRp2147
(dp2148
g62
(dp2149
sg71
g2143
sg64
(lp2150
g57
(g58
g59
NtRp2151
(dp2152
g62
(dp2153
g70
I3
ssg71
g2147
sg64
(lp2154
S'9'
asbasbasbag57
(g73
g59
NtRp2155
(dp2156
g62
(dp2157
sg71
g2115
sg64
(lp2158
g57
(g78
g59
NtRp2159
(dp2160
g62
(dp2161
sg71
g2155
sg64
(lp2162
g57
(g58
g59
NtRp2163
(dp2164
g62
(dp2165
g70
I3
ssg71
g2159
sg64
(lp2166
S'datetime.datetime(2012, 9, 13, 23, 51, 30)'
p2167
asbasbasbag57
(g73
g59
NtRp2168
(dp2169
g62
(dp2170
sg71
g2115
sg64
(lp2171
g57
(g78
g59
NtRp2172
(dp2173
g62
(dp2174
sg71
g2168
sg64
(lp2175
g57
(g58
g59
NtRp2176
(dp2177
g62
(dp2178
g70
I3
ssg71
g2172
sg64
(lp2179
g1570
asbasbasbasbasbasbasbasbasbasbasbag57
(g73
g59
NtRp2180
(dp2181
g62
(dp2182
sg71
g67
sg64
(lp2183
g57
(g78
g59
NtRp2184
(dp2185
g62
(dp2186
g82
g83
ssg71
g2180
sg64
(lp2187
S'is_https'
p2188
asbag57
(g78
g59
NtRp2189
(dp2190
g62
(dp2191
g89
g90
ssg71
g2180
sg64
(lp2192
S':'
asbag57
(g78
g59
NtRp2193
(dp2194
g62
(dp2195
sg71
g2180
sg64
(lp2196
g57
(g58
g59
NtRp2197
(dp2198
g62
(dp2199
g70
I5
ssg71
g2193
sg64
(lp2200
g100
asbasbasbag57
(g73
g59
NtRp2201
(dp2202
g62
(dp2203
sg71
g67
sg64
(lp2204
g57
(g78
g59
NtRp2205
(dp2206
g62
(dp2207
g82
g83
ssg71
g2201
sg64
(lp2208
S'is_local'
p2209
asbag57
(g78
g59
NtRp2210
(dp2211
g62
(dp2212
g89
g90
ssg71
g2201
sg64
(lp2213
S':'
asbag57
(g78
g59
NtRp2214
(dp2215
g62
(dp2216
sg71
g2201
sg64
(lp2217
g57
(g58
g59
NtRp2218
(dp2219
g62
(dp2220
g70
I5
ssg71
g2214
sg64
(lp2221
g1679
asbasbasbag57
(g73
g59
NtRp2222
(dp2223
g62
(dp2224
sg71
g67
sg64
(lp2225
g57
(g78
g59
NtRp2226
(dp2227
g62
(dp2228
g82
g83
ssg71
g2222
sg64
(lp2229
S'is_restful'
p2230
asbag57
(g78
g59
NtRp2231
(dp2232
g62
(dp2233
g89
g90
ssg71
g2222
sg64
(lp2234
S':'
asbag57
(g78
g59
NtRp2235
(dp2236
g62
(dp2237
sg71
g2222
sg64
(lp2238
g57
(g58
g59
NtRp2239
(dp2240
g62
(dp2241
g70
I5
ssg71
g2235
sg64
(lp2242
g100
asbasbasbag57
(g73
g59
NtRp2243
(dp2244
g62
(dp2245
sg71
g67
sg64
(lp2246
g57
(g78
g59
NtRp2247
(dp2248
g62
(dp2249
g82
g83
ssg71
g2243
sg64
(lp2250
S'now'
p2251
asbag57
(g78
g59
NtRp2252
(dp2253
g62
(dp2254
g89
g90
ssg71
g2243
sg64
(lp2255
S':'
asbag57
(g78
g59
NtRp2256
(dp2257
g62
(dp2258
sg71
g2243
sg64
(lp2259
g57
(g58
g59
NtRp2260
(dp2261
g62
(dp2262
g70
I5
ssg71
g2256
sg64
(lp2263
S'datetime.datetime(2012, 11, 27, 23, 6, 26, 843000)'
p2264
asbasbasbag57
(g73
g59
NtRp2265
(dp2266
g62
(dp2267
sg71
g67
sg64
(lp2268
g57
(g78
g59
NtRp2269
(dp2270
g62
(dp2271
g82
g83
ssg71
g2265
sg64
(lp2272
S'post_vars'
p2273
asbag57
(g78
g59
NtRp2274
(dp2275
g62
(dp2276
g89
g90
ssg71
g2265
sg64
(lp2277
S':'
asbag57
(g78
g59
NtRp2278
(dp2279
g62
(dp2280
sg71
g2265
sg64
(lp2281
g57
(g58
g59
NtRp2282
(dp2283
g62
(dp2284
g70
I5
ssg71
g2278
sg64
(lp2285
g57
(g66
g59
NtRp2286
(dp2287
g62
(dp2288
g70
I4
ssg71
Nsg64
(lp2289
sbasbasbasbag57
(g73
g59
NtRp2290
(dp2291
g62
(dp2292
sg71
g67
sg64
(lp2293
g57
(g78
g59
NtRp2294
(dp2295
g62
(dp2296
g82
g83
ssg71
g2290
sg64
(lp2297
S'raw_args'
p2298
asbag57
(g78
g59
NtRp2299
(dp2300
g62
(dp2301
g89
g90
ssg71
g2290
sg64
(lp2302
S':'
asbag57
(g78
g59
NtRp2303
(dp2304
g62
(dp2305
sg71
g2290
sg64
(lp2306
g57
(g58
g59
NtRp2307
(dp2308
g62
(dp2309
g70
I5
ssg71
g2303
sg64
(lp2310
S'None'
p2311
asbasbasbag57
(g73
g59
NtRp2312
(dp2313
g62
(dp2314
sg71
g67
sg64
(lp2315
g57
(g78
g59
NtRp2316
(dp2317
g62
(dp2318
g82
g83
ssg71
g2312
sg64
(lp2319
S'raw_extension'
p2320
asbag57
(g78
g59
NtRp2321
(dp2322
g62
(dp2323
g89
g90
ssg71
g2312
sg64
(lp2324
S':'
asbag57
(g78
g59
NtRp2325
(dp2326
g62
(dp2327
sg71
g2312
sg64
(lp2328
g57
(g58
g59
NtRp2329
(dp2330
g62
(dp2331
g70
I5
ssg71
g2325
sg64
(lp2332
S'None'
p2333
asbasbasbag57
(g73
g59
NtRp2334
(dp2335
g62
(dp2336
sg71
g67
sg64
(lp2337
g57
(g78
g59
NtRp2338
(dp2339
g62
(dp2340
g82
g83
ssg71
g2334
sg64
(lp2341
S'url'
p2342
asbag57
(g78
g59
NtRp2343
(dp2344
g62
(dp2345
g89
g90
ssg71
g2334
sg64
(lp2346
S':'
asbag57
(g78
g59
NtRp2347
(dp2348
g62
(dp2349
sg71
g2334
sg64
(lp2350
g57
(g58
g59
NtRp2351
(dp2352
g62
(dp2353
g70
I5
ssg71
g2347
sg64
(lp2354
g1224
asbasbasbag57
(g73
g59
NtRp2355
(dp2356
g62
(dp2357
sg71
g67
sg64
(lp2358
g57
(g78
g59
NtRp2359
(dp2360
g62
(dp2361
g82
g83
ssg71
g2355
sg64
(lp2362
S'utcnow'
p2363
asbag57
(g78
g59
NtRp2364
(dp2365
g62
(dp2366
g89
g90
ssg71
g2355
sg64
(lp2367
S':'
asbag57
(g78
g59
NtRp2368
(dp2369
g62
(dp2370
sg71
g2355
sg64
(lp2371
g57
(g58
g59
NtRp2372
(dp2373
g62
(dp2374
g70
I5
ssg71
g2368
sg64
(lp2375
S'datetime.datetime(2012, 11, 27, 15, 6, 26, 843000)'
p2376
asbasbasbag57
(g73
g59
NtRp2377
(dp2378
g62
(dp2379
sg71
g67
sg64
(lp2380
g57
(g78
g59
NtRp2381
(dp2382
g62
(dp2383
g82
g83
ssg71
g2377
sg64
(lp2384
S'uuid'
p2385
asbag57
(g78
g59
NtRp2386
(dp2387
g62
(dp2388
g89
g90
ssg71
g2377
sg64
(lp2389
S':'
asbag57
(g78
g59
NtRp2390
(dp2391
g62
(dp2392
sg71
g2377
sg64
(lp2393
g57
(g58
g59
NtRp2394
(dp2395
g62
(dp2396
g70
I5
ssg71
g2390
sg64
(lp2397
S'QSunTasteBudsV2/127.0.0.1.2012-11-27.23-06-26.ac83f4cf-12a4-4956-9175-449552274bc2'
p2398
asbasbasbag57
(g73
g59
NtRp2399
(dp2400
g62
(dp2401
sg71
g67
sg64
(lp2402
g57
(g78
g59
NtRp2403
(dp2404
g62
(dp2405
g82
g83
ssg71
g2399
sg64
(lp2406
S'vars'
p2407
asbag57
(g78
g59
NtRp2408
(dp2409
g62
(dp2410
g89
g90
ssg71
g2399
sg64
(lp2411
S':'
asbag57
(g78
g59
NtRp2412
(dp2413
g62
(dp2414
sg71
g2399
sg64
(lp2415
g57
(g58
g59
NtRp2416
(dp2417
g62
(dp2418
g70
I5
ssg71
g2412
sg64
(lp2419
g57
(g66
g59
NtRp2420
(dp2421
g62
(dp2422
g70
I4
ssg71
Nsg64
(lp2423
sbasbasbasbag57
(g73
g59
NtRp2424
(dp2425
g62
(dp2426
sg71
g67
sg64
(lp2427
g57
(g78
g59
NtRp2428
(dp2429
g62
(dp2430
g82
g83
ssg71
g2424
sg64
(lp2431
S'wsgi'
p2432
asbag57
(g78
g59
NtRp2433
(dp2434
g62
(dp2435
g89
g90
ssg71
g2424
sg64
(lp2436
S':'
asbag57
(g78
g59
NtRp2437
(dp2438
g62
(dp2439
sg71
g2424
sg64
(lp2440
g57
(g58
g59
NtRp2441
(dp2442
g62
(dp2443
g70
I5
ssg71
g2437
sg64
(lp2444
g57
(g66
g59
NtRp2445
(dp2446
g62
(dp2447
g70
I4
ssg71
Nsg64
(lp2448
g57
(g73
g59
NtRp2449
(dp2450
g62
(dp2451
sg71
g2445
sg64
(lp2452
g57
(g78
g59
NtRp2453
(dp2454
g62
(dp2455
g82
g83
ssg71
g2449
sg64
(lp2456
S'environ'
p2457
asbag57
(g78
g59
NtRp2458
(dp2459
g62
(dp2460
g89
g90
ssg71
g2449
sg64
(lp2461
S':'
asbag57
(g78
g59
NtRp2462
(dp2463
g62
(dp2464
sg71
g2449
sg64
(lp2465
g57
(g58
g59
NtRp2466
(dp2467
g62
(dp2468
g70
I4
ssg71
g2462
sg64
(lp2469
g57
(g66
g59
NtRp2470
(dp2471
g62
(dp2472
g70
I3
ssg71
Nsg64
(lp2473
g57
(g73
g59
NtRp2474
(dp2475
g62
(dp2476
sg71
g2470
sg64
(lp2477
g57
(g78
g59
NtRp2478
(dp2479
g62
(dp2480
g82
g83
ssg71
g2474
sg64
(lp2481
S'HTTP_ACCEPT'
p2482
asbag57
(g78
g59
NtRp2483
(dp2484
g62
(dp2485
g89
g90
ssg71
g2474
sg64
(lp2486
S':'
asbag57
(g78
g59
NtRp2487
(dp2488
g62
(dp2489
sg71
g2474
sg64
(lp2490
g57
(g58
g59
NtRp2491
(dp2492
g62
(dp2493
g70
I3
ssg71
g2487
sg64
(lp2494
g1028
asbasbasbag57
(g73
g59
NtRp2495
(dp2496
g62
(dp2497
sg71
g2470
sg64
(lp2498
g57
(g78
g59
NtRp2499
(dp2500
g62
(dp2501
g82
g83
ssg71
g2495
sg64
(lp2502
S'HTTP_ACCEPT_ENCODING'
p2503
asbag57
(g78
g59
NtRp2504
(dp2505
g62
(dp2506
g89
g90
ssg71
g2495
sg64
(lp2507
S':'
asbag57
(g78
g59
NtRp2508
(dp2509
g62
(dp2510
sg71
g2495
sg64
(lp2511
g57
(g58
g59
NtRp2512
(dp2513
g62
(dp2514
g70
I3
ssg71
g2508
sg64
(lp2515
g1050
asbasbasbag57
(g73
g59
NtRp2516
(dp2517
g62
(dp2518
sg71
g2470
sg64
(lp2519
g57
(g78
g59
NtRp2520
(dp2521
g62
(dp2522
g82
g83
ssg71
g2516
sg64
(lp2523
S'HTTP_ACCEPT_LANGUAGE'
p2524
asbag57
(g78
g59
NtRp2525
(dp2526
g62
(dp2527
g89
g90
ssg71
g2516
sg64
(lp2528
S':'
asbag57
(g78
g59
NtRp2529
(dp2530
g62
(dp2531
sg71
g2516
sg64
(lp2532
g57
(g58
g59
NtRp2533
(dp2534
g62
(dp2535
g70
I3
ssg71
g2529
sg64
(lp2536
g1072
asbasbasbag57
(g73
g59
NtRp2537
(dp2538
g62
(dp2539
sg71
g2470
sg64
(lp2540
g57
(g78
g59
NtRp2541
(dp2542
g62
(dp2543
g82
g83
ssg71
g2537
sg64
(lp2544
S'HTTP_CONNECTION'
p2545
asbag57
(g78
g59
NtRp2546
(dp2547
g62
(dp2548
g89
g90
ssg71
g2537
sg64
(lp2549
S':'
asbag57
(g78
g59
NtRp2550
(dp2551
g62
(dp2552
sg71
g2537
sg64
(lp2553
g57
(g58
g59
NtRp2554
(dp2555
g62
(dp2556
g70
I3
ssg71
g2550
sg64
(lp2557
g1094
asbasbasbag57
(g73
g59
NtRp2558
(dp2559
g62
(dp2560
sg71
g2470
sg64
(lp2561
g57
(g78
g59
NtRp2562
(dp2563
g62
(dp2564
g82
g83
ssg71
g2558
sg64
(lp2565
S'HTTP_COOKIE'
p2566
asbag57
(g78
g59
NtRp2567
(dp2568
g62
(dp2569
g89
g90
ssg71
g2558
sg64
(lp2570
S':'
asbag57
(g78
g59
NtRp2571
(dp2572
g62
(dp2573
sg71
g2558
sg64
(lp2574
g57
(g58
g59
NtRp2575
(dp2576
g62
(dp2577
g70
I3
ssg71
g2571
sg64
(lp2578
g1116
asbasbasbag57
(g73
g59
NtRp2579
(dp2580
g62
(dp2581
sg71
g2470
sg64
(lp2582
g57
(g78
g59
NtRp2583
(dp2584
g62
(dp2585
g82
g83
ssg71
g2579
sg64
(lp2586
S'HTTP_HOST'
p2587
asbag57
(g78
g59
NtRp2588
(dp2589
g62
(dp2590
g89
g90
ssg71
g2579
sg64
(lp2591
S':'
asbag57
(g78
g59
NtRp2592
(dp2593
g62
(dp2594
sg71
g2579
sg64
(lp2595
g57
(g58
g59
NtRp2596
(dp2597
g62
(dp2598
g70
I3
ssg71
g2592
sg64
(lp2599
g1138
asbasbasbag57
(g73
g59
NtRp2600
(dp2601
g62
(dp2602
sg71
g2470
sg64
(lp2603
g57
(g78
g59
NtRp2604
(dp2605
g62
(dp2606
g82
g83
ssg71
g2600
sg64
(lp2607
S'HTTP_USER_AGENT'
p2608
asbag57
(g78
g59
NtRp2609
(dp2610
g62
(dp2611
g89
g90
ssg71
g2600
sg64
(lp2612
S':'
asbag57
(g78
g59
NtRp2613
(dp2614
g62
(dp2615
sg71
g2600
sg64
(lp2616
g57
(g58
g59
NtRp2617
(dp2618
g62
(dp2619
g70
I3
ssg71
g2613
sg64
(lp2620
g1160
asbasbasbag57
(g73
g59
NtRp2621
(dp2622
g62
(dp2623
sg71
g2470
sg64
(lp2624
g57
(g78
g59
NtRp2625
(dp2626
g62
(dp2627
g82
g83
ssg71
g2621
sg64
(lp2628
S'PATH_INFO'
p2629
asbag57
(g78
g59
NtRp2630
(dp2631
g62
(dp2632
g89
g90
ssg71
g2621
sg64
(lp2633
S':'
asbag57
(g78
g59
NtRp2634
(dp2635
g62
(dp2636
sg71
g2621
sg64
(lp2637
g57
(g58
g59
NtRp2638
(dp2639
g62
(dp2640
g70
I3
ssg71
g2634
sg64
(lp2641
g1224
asbasbasbag57
(g73
g59
NtRp2642
(dp2643
g62
(dp2644
sg71
g2470
sg64
(lp2645
g57
(g78
g59
NtRp2646
(dp2647
g62
(dp2648
g82
g83
ssg71
g2642
sg64
(lp2649
S'QUERY_STRING'
p2650
asbag57
(g78
g59
NtRp2651
(dp2652
g62
(dp2653
g89
g90
ssg71
g2642
sg64
(lp2654
S':'
asbag57
(g78
g59
NtRp2655
(dp2656
g62
(dp2657
sg71
g2642
sg64
(lp2658
g57
(g58
g59
NtRp2659
(dp2660
g62
(dp2661
g70
I3
ssg71
g2655
sg64
(lp2662
S''
asbasbasbag57
(g73
g59
NtRp2663
(dp2664
g62
(dp2665
sg71
g2470
sg64
(lp2666
g57
(g78
g59
NtRp2667
(dp2668
g62
(dp2669
g82
g83
ssg71
g2663
sg64
(lp2670
S'REMOTE_ADDR'
p2671
asbag57
(g78
g59
NtRp2672
(dp2673
g62
(dp2674
g89
g90
ssg71
g2663
sg64
(lp2675
S':'
asbag57
(g78
g59
NtRp2676
(dp2677
g62
(dp2678
sg71
g2663
sg64
(lp2679
g57
(g58
g59
NtRp2680
(dp2681
g62
(dp2682
g70
I3
ssg71
g2676
sg64
(lp2683
g212
asbasbasbag57
(g73
g59
NtRp2684
(dp2685
g62
(dp2686
sg71
g2470
sg64
(lp2687
g57
(g78
g59
NtRp2688
(dp2689
g62
(dp2690
g82
g83
ssg71
g2684
sg64
(lp2691
S'REMOTE_PORT'
p2692
asbag57
(g78
g59
NtRp2693
(dp2694
g62
(dp2695
g89
g90
ssg71
g2684
sg64
(lp2696
S':'
asbag57
(g78
g59
NtRp2697
(dp2698
g62
(dp2699
sg71
g2684
sg64
(lp2700
g57
(g58
g59
NtRp2701
(dp2702
g62
(dp2703
g70
I3
ssg71
g2697
sg64
(lp2704
g1288
asbasbasbag57
(g73
g59
NtRp2705
(dp2706
g62
(dp2707
sg71
g2470
sg64
(lp2708
g57
(g78
g59
NtRp2709
(dp2710
g62
(dp2711
g82
g83
ssg71
g2705
sg64
(lp2712
S'REQUEST_METHOD'
p2713
asbag57
(g78
g59
NtRp2714
(dp2715
g62
(dp2716
g89
g90
ssg71
g2705
sg64
(lp2717
S':'
asbag57
(g78
g59
NtRp2718
(dp2719
g62
(dp2720
sg71
g2705
sg64
(lp2721
g57
(g58
g59
NtRp2722
(dp2723
g62
(dp2724
g70
I3
ssg71
g2718
sg64
(lp2725
g1310
asbasbasbag57
(g73
g59
NtRp2726
(dp2727
g62
(dp2728
sg71
g2470
sg64
(lp2729
g57
(g78
g59
NtRp2730
(dp2731
g62
(dp2732
g82
g83
ssg71
g2726
sg64
(lp2733
S'REQUEST_URI'
p2734
asbag57
(g78
g59
NtRp2735
(dp2736
g62
(dp2737
g89
g90
ssg71
g2726
sg64
(lp2738
S':'
asbag57
(g78
g59
NtRp2739
(dp2740
g62
(dp2741
sg71
g2726
sg64
(lp2742
g57
(g58
g59
NtRp2743
(dp2744
g62
(dp2745
g70
I3
ssg71
g2739
sg64
(lp2746
g1224
asbasbasbag57
(g73
g59
NtRp2747
(dp2748
g62
(dp2749
sg71
g2470
sg64
(lp2750
g57
(g78
g59
NtRp2751
(dp2752
g62
(dp2753
g82
g83
ssg71
g2747
sg64
(lp2754
S'SCRIPT_NAME'
p2755
asbag57
(g78
g59
NtRp2756
(dp2757
g62
(dp2758
g89
g90
ssg71
g2747
sg64
(lp2759
S':'
asbag57
(g78
g59
NtRp2760
(dp2761
g62
(dp2762
sg71
g2747
sg64
(lp2763
g57
(g58
g59
NtRp2764
(dp2765
g62
(dp2766
g70
I3
ssg71
g2760
sg64
(lp2767
S''
asbasbasbag57
(g73
g59
NtRp2768
(dp2769
g62
(dp2770
sg71
g2470
sg64
(lp2771
g57
(g78
g59
NtRp2772
(dp2773
g62
(dp2774
g82
g83
ssg71
g2768
sg64
(lp2775
S'SERVER_NAME'
p2776
asbag57
(g78
g59
NtRp2777
(dp2778
g62
(dp2779
g89
g90
ssg71
g2768
sg64
(lp2780
S':'
asbag57
(g78
g59
NtRp2781
(dp2782
g62
(dp2783
sg71
g2768
sg64
(lp2784
g57
(g58
g59
NtRp2785
(dp2786
g62
(dp2787
g70
I3
ssg71
g2781
sg64
(lp2788
g1374
asbasbasbag57
(g73
g59
NtRp2789
(dp2790
g62
(dp2791
sg71
g2470
sg64
(lp2792
g57
(g78
g59
NtRp2793
(dp2794
g62
(dp2795
g82
g83
ssg71
g2789
sg64
(lp2796
S'SERVER_PORT'
p2797
asbag57
(g78
g59
NtRp2798
(dp2799
g62
(dp2800
g89
g90
ssg71
g2789
sg64
(lp2801
S':'
asbag57
(g78
g59
NtRp2802
(dp2803
g62
(dp2804
sg71
g2789
sg64
(lp2805
g57
(g58
g59
NtRp2806
(dp2807
g62
(dp2808
g70
I3
ssg71
g2802
sg64
(lp2809
g1396
asbasbasbag57
(g73
g59
NtRp2810
(dp2811
g62
(dp2812
sg71
g2470
sg64
(lp2813
g57
(g78
g59
NtRp2814
(dp2815
g62
(dp2816
g82
g83
ssg71
g2810
sg64
(lp2817
S'SERVER_PROTOCOL'
p2818
asbag57
(g78
g59
NtRp2819
(dp2820
g62
(dp2821
g89
g90
ssg71
g2810
sg64
(lp2822
S':'
asbag57
(g78
g59
NtRp2823
(dp2824
g62
(dp2825
sg71
g2810
sg64
(lp2826
g57
(g58
g59
NtRp2827
(dp2828
g62
(dp2829
g70
I3
ssg71
g2823
sg64
(lp2830
g1418
asbasbasbag57
(g73
g59
NtRp2831
(dp2832
g62
(dp2833
sg71
g2470
sg64
(lp2834
g57
(g78
g59
NtRp2835
(dp2836
g62
(dp2837
g82
g83
ssg71
g2831
sg64
(lp2838
S'SERVER_SOFTWARE'
p2839
asbag57
(g78
g59
NtRp2840
(dp2841
g62
(dp2842
g89
g90
ssg71
g2831
sg64
(lp2843
S':'
asbag57
(g78
g59
NtRp2844
(dp2845
g62
(dp2846
sg71
g2831
sg64
(lp2847
g57
(g58
g59
NtRp2848
(dp2849
g62
(dp2850
g70
I3
ssg71
g2844
sg64
(lp2851
g1440
asbasbasbag57
(g73
g59
NtRp2852
(dp2853
g62
(dp2854
sg71
g2470
sg64
(lp2855
g57
(g78
g59
NtRp2856
(dp2857
g62
(dp2858
g82
g83
ssg71
g2852
sg64
(lp2859
S'wsgi.errors'
p2860
asbag57
(g78
g59
NtRp2861
(dp2862
g62
(dp2863
g89
g90
ssg71
g2852
sg64
(lp2864
S':'
asbag57
(g78
g59
NtRp2865
(dp2866
g62
(dp2867
sg71
g2852
sg64
(lp2868
g57
(g58
g59
NtRp2869
(dp2870
g62
(dp2871
g70
I3
ssg71
g2865
sg64
(lp2872
S"<open file '<stderr>', mode 'w' at 0x009350D0>"
p2873
asbasbasbag57
(g73
g59
NtRp2874
(dp2875
g62
(dp2876
sg71
g2470
sg64
(lp2877
g57
(g78
g59
NtRp2878
(dp2879
g62
(dp2880
g82
g83
ssg71
g2874
sg64
(lp2881
S'wsgi.file_wrapper'
p2882
asbag57
(g78
g59
NtRp2883
(dp2884
g62
(dp2885
g89
g90
ssg71
g2874
sg64
(lp2886
S':'
asbag57
(g78
g59
NtRp2887
(dp2888
g62
(dp2889
sg71
g2874
sg64
(lp2890
g57
(g58
g59
NtRp2891
(dp2892
g62
(dp2893
g70
I3
ssg71
g2887
sg64
(lp2894
S'<class wsgiref.util.FileWrapper at 0x016DAF10>'
p2895
asbasbasbag57
(g73
g59
NtRp2896
(dp2897
g62
(dp2898
sg71
g2470
sg64
(lp2899
g57
(g78
g59
NtRp2900
(dp2901
g62
(dp2902
g82
g83
ssg71
g2896
sg64
(lp2903
S'wsgi.input'
p2904
asbag57
(g78
g59
NtRp2905
(dp2906
g62
(dp2907
g89
g90
ssg71
g2896
sg64
(lp2908
S':'
asbag57
(g78
g59
NtRp2909
(dp2910
g62
(dp2911
sg71
g2896
sg64
(lp2912
g57
(g58
g59
NtRp2913
(dp2914
g62
(dp2915
g70
I3
ssg71
g2909
sg64
(lp2916
S'<cStringIO.StringO object at 0x04EFF900>'
p2917
asbasbasbag57
(g73
g59
NtRp2918
(dp2919
g62
(dp2920
sg71
g2470
sg64
(lp2921
g57
(g78
g59
NtRp2922
(dp2923
g62
(dp2924
g82
g83
ssg71
g2918
sg64
(lp2925
S'wsgi.multiprocess'
p2926
asbag57
(g78
g59
NtRp2927
(dp2928
g62
(dp2929
g89
g90
ssg71
g2918
sg64
(lp2930
S':'
asbag57
(g78
g59
NtRp2931
(dp2932
g62
(dp2933
sg71
g2918
sg64
(lp2934
g57
(g58
g59
NtRp2935
(dp2936
g62
(dp2937
g70
I3
ssg71
g2931
sg64
(lp2938
g100
asbasbasbag57
(g73
g59
NtRp2939
(dp2940
g62
(dp2941
sg71
g2470
sg64
(lp2942
g57
(g78
g59
NtRp2943
(dp2944
g62
(dp2945
g82
g83
ssg71
g2939
sg64
(lp2946
S'wsgi.multithread'
p2947
asbag57
(g78
g59
NtRp2948
(dp2949
g62
(dp2950
g89
g90
ssg71
g2939
sg64
(lp2951
S':'
asbag57
(g78
g59
NtRp2952
(dp2953
g62
(dp2954
sg71
g2939
sg64
(lp2955
g57
(g58
g59
NtRp2956
(dp2957
g62
(dp2958
g70
I3
ssg71
g2952
sg64
(lp2959
g1679
asbasbasbag57
(g73
g59
NtRp2960
(dp2961
g62
(dp2962
sg71
g2470
sg64
(lp2963
g57
(g78
g59
NtRp2964
(dp2965
g62
(dp2966
g82
g83
ssg71
g2960
sg64
(lp2967
S'wsgi.run_once'
p2968
asbag57
(g78
g59
NtRp2969
(dp2970
g62
(dp2971
g89
g90
ssg71
g2960
sg64
(lp2972
S':'
asbag57
(g78
g59
NtRp2973
(dp2974
g62
(dp2975
sg71
g2960
sg64
(lp2976
g57
(g58
g59
NtRp2977
(dp2978
g62
(dp2979
g70
I3
ssg71
g2973
sg64
(lp2980
g100
asbasbasbag57
(g73
g59
NtRp2981
(dp2982
g62
(dp2983
sg71
g2470
sg64
(lp2984
g57
(g78
g59
NtRp2985
(dp2986
g62
(dp2987
g82
g83
ssg71
g2981
sg64
(lp2988
S'wsgi.url_scheme'
p2989
asbag57
(g78
g59
NtRp2990
(dp2991
g62
(dp2992
g89
g90
ssg71
g2981
sg64
(lp2993
S':'
asbag57
(g78
g59
NtRp2994
(dp2995
g62
(dp2996
sg71
g2981
sg64
(lp2997
g57
(g58
g59
NtRp2998
(dp2999
g62
(dp3000
g70
I3
ssg71
g2994
sg64
(lp3001
g1722
asbasbasbag57
(g73
g59
NtRp3002
(dp3003
g62
(dp3004
sg71
g2470
sg64
(lp3005
g57
(g78
g59
NtRp3006
(dp3007
g62
(dp3008
g82
g83
ssg71
g3002
sg64
(lp3009
S'wsgi.version'
p3010
asbag57
(g78
g59
NtRp3011
(dp3012
g62
(dp3013
g89
g90
ssg71
g3002
sg64
(lp3014
S':'
asbag57
(g78
g59
NtRp3015
(dp3016
g62
(dp3017
sg71
g3002
sg64
(lp3018
g57
(g58
g59
NtRp3019
(dp3020
g62
(dp3021
g70
I3
ssg71
g3015
sg64
(lp3022
S'1'
asbasbasbasbasbasbasbasbasbasbasbasbasbsS'frames'
p3023
(lp3024
(dp3025
S'file'
p3026
S'D:\\web2py_win\\web2py\\gluon\\restricted.py'
p3027
sS'dump'
p3028
(dp3029
sS'lnum'
p3030
I209
sS'lines'
p3031
(dp3032
sS'call'
p3033
S'(code=\'db.define_table("Comments",\\n    Field(\\\'comment\\\',...   Field(\\\'commentor\\\', \\\'string\\\', length = 1000)\\n)\\n\', environment={\'A\': <class \'gluon.html.A\'>, \'B\': <class \'gluon.html.B\'>, \'BEAUTIFY\': <class \'gluon.html.BEAUTIFY\'>, \'BODY\': <class \'gluon.html.BODY\'>, \'BR\': <class \'gluon.html.BR\'>, \'BUTTON\': <class \'gluon.html.BUTTON\'>, \'CAT\': <class \'gluon.html.CAT\'>, \'CENTER\': <class \'gluon.html.CENTER\'>, \'CLEANUP\': <class \'gluon.validators.CLEANUP\'>, \'CODE\': <class \'gluon.html.CODE\'>, ...}, layer=r\'D:\\web2py_win\\web2py\\applications\\QSunTasteBudsV2\\models\\comments.py\')'
p3034
sS'func'
p3035
S'restricted'
p3036
sa(dp3037
g3026
S'D:\\web2py_win\\web2py\\applications\\QSunTasteBudsV2\\models\\comments.py'
p3038
sg3028
(dp3039
sg3030
I1
sg3031
(dp3040
I1
S'db.define_table("Comments",'
p3041
sI2
S"    Field('comment', 'text'),"
p3042
sI3
S"    Field('belongTo', 'reference Recipes'),"
p3043
sI4
S"    Field('commentor', 'string', length = 1000)"
p3044
sI5
S')'
ssg3033
S'()'
p3045
sg3035
S'<module>'
p3046
sasS'pyver'
p3047
S'Python 2.7: D:\\web2py_win\\web2py\\web2py.exe'
p3048
sS'session'
p3049
g57
(g58
g59
NtRp3050
(dp3051
g62
(dp3052
sg64
(lp3053
g57
(g66
g59
NtRp3054
(dp3055
g62
(dp3056
g70
I5
ssg71
Nsg64
(lp3057
g57
(g73
g59
NtRp3058
(dp3059
g62
(dp3060
sg71
g3054
sg64
(lp3061
g57
(g78
g59
NtRp3062
(dp3063
g62
(dp3064
g82
g83
ssg71
g3058
sg64
(lp3065
S'auth'
p3066
asbag57
(g78
g59
NtRp3067
(dp3068
g62
(dp3069
g89
g90
ssg71
g3058
sg64
(lp3070
S':'
asbag57
(g78
g59
NtRp3071
(dp3072
g62
(dp3073
sg71
g3058
sg64
(lp3074
g57
(g58
g59
NtRp3075
(dp3076
g62
(dp3077
g70
I5
ssg71
g3071
sg64
(lp3078
g57
(g66
g59
NtRp3079
(dp3080
g62
(dp3081
g70
I4
ssg71
Nsg64
(lp3082
g57
(g73
g59
NtRp3083
(dp3084
g62
(dp3085
sg71
g3079
sg64
(lp3086
g57
(g78
g59
NtRp3087
(dp3088
g62
(dp3089
g82
g83
ssg71
g3083
sg64
(lp3090
S'expiration'
p3091
asbag57
(g78
g59
NtRp3092
(dp3093
g62
(dp3094
g89
g90
ssg71
g3083
sg64
(lp3095
S':'
asbag57
(g78
g59
NtRp3096
(dp3097
g62
(dp3098
sg71
g3083
sg64
(lp3099
g57
(g58
g59
NtRp3100
(dp3101
g62
(dp3102
g70
I4
ssg71
g3096
sg64
(lp3103
S'3600'
p3104
asbasbasbag57
(g73
g59
NtRp3105
(dp3106
g62
(dp3107
sg71
g3079
sg64
(lp3108
g57
(g78
g59
NtRp3109
(dp3110
g62
(dp3111
g82
g83
ssg71
g3105
sg64
(lp3112
S'hmac_key'
p3113
asbag57
(g78
g59
NtRp3114
(dp3115
g62
(dp3116
g89
g90
ssg71
g3105
sg64
(lp3117
S':'
asbag57
(g78
g59
NtRp3118
(dp3119
g62
(dp3120
sg71
g3105
sg64
(lp3121
g57
(g58
g59
NtRp3122
(dp3123
g62
(dp3124
g70
I4
ssg71
g3118
sg64
(lp3125
S'a649bf08-64dc-4881-8095-2d090430acf2'
p3126
asbasbasbag57
(g73
g59
NtRp3127
(dp3128
g62
(dp3129
sg71
g3079
sg64
(lp3130
g57
(g78
g59
NtRp3131
(dp3132
g62
(dp3133
g82
g83
ssg71
g3127
sg64
(lp3134
S'last_visit'
p3135
asbag57
(g78
g59
NtRp3136
(dp3137
g62
(dp3138
g89
g90
ssg71
g3127
sg64
(lp3139
S':'
asbag57
(g78
g59
NtRp3140
(dp3141
g62
(dp3142
sg71
g3127
sg64
(lp3143
g57
(g58
g59
NtRp3144
(dp3145
g62
(dp3146
g70
I4
ssg71
g3140
sg64
(lp3147
S'datetime.datetime(2012, 11, 27, 22, 38, 56, 453000)'
p3148
asbasbasbag57
(g73
g59
NtRp3149
(dp3150
g62
(dp3151
sg71
g3079
sg64
(lp3152
g57
(g78
g59
NtRp3153
(dp3154
g62
(dp3155
g82
g83
ssg71
g3149
sg64
(lp3156
S'remember'
p3157
asbag57
(g78
g59
NtRp3158
(dp3159
g62
(dp3160
g89
g90
ssg71
g3149
sg64
(lp3161
S':'
asbag57
(g78
g59
NtRp3162
(dp3163
g62
(dp3164
sg71
g3149
sg64
(lp3165
g57
(g58
g59
NtRp3166
(dp3167
g62
(dp3168
g70
I4
ssg71
g3162
sg64
(lp3169
g100
asbasbasbag57
(g73
g59
NtRp3170
(dp3171
g62
(dp3172
sg71
g3079
sg64
(lp3173
g57
(g78
g59
NtRp3174
(dp3175
g62
(dp3176
g82
g83
ssg71
g3170
sg64
(lp3177
S'user'
p3178
asbag57
(g78
g59
NtRp3179
(dp3180
g62
(dp3181
g89
g90
ssg71
g3170
sg64
(lp3182
S':'
asbag57
(g78
g59
NtRp3183
(dp3184
g62
(dp3185
sg71
g3170
sg64
(lp3186
g57
(g58
g59
NtRp3187
(dp3188
g62
(dp3189
g70
I4
ssg71
g3183
sg64
(lp3190
g57
(g66
g59
NtRp3191
(dp3192
g62
(dp3193
g70
I3
ssg71
Nsg64
(lp3194
g57
(g73
g59
NtRp3195
(dp3196
g62
(dp3197
sg71
g3191
sg64
(lp3198
g57
(g78
g59
NtRp3199
(dp3200
g62
(dp3201
g82
g83
ssg71
g3195
sg64
(lp3202
S'email'
p3203
asbag57
(g78
g59
NtRp3204
(dp3205
g62
(dp3206
g89
g90
ssg71
g3195
sg64
(lp3207
S':'
asbag57
(g78
g59
NtRp3208
(dp3209
g62
(dp3210
sg71
g3195
sg64
(lp3211
g57
(g58
g59
NtRp3212
(dp3213
g62
(dp3214
g70
I3
ssg71
g3208
sg64
(lp3215
S'sunqiansun@hotmail.com'
p3216
asbasbasbag57
(g73
g59
NtRp3217
(dp3218
g62
(dp3219
sg71
g3191
sg64
(lp3220
g57
(g78
g59
NtRp3221
(dp3222
g62
(dp3223
g82
g83
ssg71
g3217
sg64
(lp3224
S'first_name'
p3225
asbag57
(g78
g59
NtRp3226
(dp3227
g62
(dp3228
g89
g90
ssg71
g3217
sg64
(lp3229
S':'
asbag57
(g78
g59
NtRp3230
(dp3231
g62
(dp3232
sg71
g3217
sg64
(lp3233
g57
(g58
g59
NtRp3234
(dp3235
g62
(dp3236
g70
I3
ssg71
g3230
sg64
(lp3237
S'Qian'
p3238
asbasbasbag57
(g73
g59
NtRp3239
(dp3240
g62
(dp3241
sg71
g3191
sg64
(lp3242
g57
(g78
g59
NtRp3243
(dp3244
g62
(dp3245
g82
g83
ssg71
g3239
sg64
(lp3246
S'id'
p3247
asbag57
(g78
g59
NtRp3248
(dp3249
g62
(dp3250
g89
g90
ssg71
g3239
sg64
(lp3251
S':'
asbag57
(g78
g59
NtRp3252
(dp3253
g62
(dp3254
sg71
g3239
sg64
(lp3255
g57
(g58
g59
NtRp3256
(dp3257
g62
(dp3258
g70
I3
ssg71
g3252
sg64
(lp3259
S'1'
asbasbasbag57
(g73
g59
NtRp3260
(dp3261
g62
(dp3262
sg71
g3191
sg64
(lp3263
g57
(g78
g59
NtRp3264
(dp3265
g62
(dp3266
g82
g83
ssg71
g3260
sg64
(lp3267
S'last_name'
p3268
asbag57
(g78
g59
NtRp3269
(dp3270
g62
(dp3271
g89
g90
ssg71
g3260
sg64
(lp3272
S':'
asbag57
(g78
g59
NtRp3273
(dp3274
g62
(dp3275
sg71
g3260
sg64
(lp3276
g57
(g58
g59
NtRp3277
(dp3278
g62
(dp3279
g70
I3
ssg71
g3273
sg64
(lp3280
S'Sun'
p3281
asbasbasbag57
(g73
g59
NtRp3282
(dp3283
g62
(dp3284
sg71
g3191
sg64
(lp3285
g57
(g78
g59
NtRp3286
(dp3287
g62
(dp3288
g82
g83
ssg71
g3282
sg64
(lp3289
S'password'
p3290
asbag57
(g78
g59
NtRp3291
(dp3292
g62
(dp3293
g89
g90
ssg71
g3282
sg64
(lp3294
S':'
asbag57
(g78
g59
NtRp3295
(dp3296
g62
(dp3297
sg71
g3282
sg64
(lp3298
g57
(g58
g59
NtRp3299
(dp3300
g62
(dp3301
g70
I3
ssg71
g3295
sg64
(lp3302
S'pbkdf2(1000,20,sha512)$a46998f5dc55594e$bbdc84ad7d4fc987637a2565d94371214b8404fe'
p3303
asbasbasbag57
(g73
g59
NtRp3304
(dp3305
g62
(dp3306
sg71
g3191
sg64
(lp3307
g57
(g78
g59
NtRp3308
(dp3309
g62
(dp3310
g82
g83
ssg71
g3304
sg64
(lp3311
S'registration_id'
p3312
asbag57
(g78
g59
NtRp3313
(dp3314
g62
(dp3315
g89
g90
ssg71
g3304
sg64
(lp3316
S':'
asbag57
(g78
g59
NtRp3317
(dp3318
g62
(dp3319
sg71
g3304
sg64
(lp3320
g57
(g58
g59
NtRp3321
(dp3322
g62
(dp3323
g70
I3
ssg71
g3317
sg64
(lp3324
S''
asbasbasbag57
(g73
g59
NtRp3325
(dp3326
g62
(dp3327
sg71
g3191
sg64
(lp3328
g57
(g78
g59
NtRp3329
(dp3330
g62
(dp3331
g82
g83
ssg71
g3325
sg64
(lp3332
S'registration_key'
p3333
asbag57
(g78
g59
NtRp3334
(dp3335
g62
(dp3336
g89
g90
ssg71
g3325
sg64
(lp3337
S':'
asbag57
(g78
g59
NtRp3338
(dp3339
g62
(dp3340
sg71
g3325
sg64
(lp3341
g57
(g58
g59
NtRp3342
(dp3343
g62
(dp3344
g70
I3
ssg71
g3338
sg64
(lp3345
S''
asbasbasbag57
(g73
g59
NtRp3346
(dp3347
g62
(dp3348
sg71
g3191
sg64
(lp3349
g57
(g78
g59
NtRp3350
(dp3351
g62
(dp3352
g82
g83
ssg71
g3346
sg64
(lp3353
S'reset_password_key'
p3354
asbag57
(g78
g59
NtRp3355
(dp3356
g62
(dp3357
g89
g90
ssg71
g3346
sg64
(lp3358
S':'
asbag57
(g78
g59
NtRp3359
(dp3360
g62
(dp3361
sg71
g3346
sg64
(lp3362
g57
(g58
g59
NtRp3363
(dp3364
g62
(dp3365
g70
I3
ssg71
g3359
sg64
(lp3366
S''
asbasbasbasbasbasbasbag57
(g73
g59
NtRp3367
(dp3368
g62
(dp3369
sg71
g3079
sg64
(lp3370
g57
(g78
g59
NtRp3371
(dp3372
g62
(dp3373
g82
g83
ssg71
g3367
sg64
(lp3374
S'user_groups'
p3375
asbag57
(g78
g59
NtRp3376
(dp3377
g62
(dp3378
g89
g90
ssg71
g3367
sg64
(lp3379
S':'
asbag57
(g78
g59
NtRp3380
(dp3381
g62
(dp3382
sg71
g3367
sg64
(lp3383
g57
(g58
g59
NtRp3384
(dp3385
g62
(dp3386
g70
I4
ssg71
g3380
sg64
(lp3387
g57
(g66
g59
NtRp3388
(dp3389
g62
(dp3390
g70
I3
ssg71
Nsg64
(lp3391
g57
(g73
g59
NtRp3392
(dp3393
g62
(dp3394
sg71
g3388
sg64
(lp3395
g57
(g78
g59
NtRp3396
(dp3397
g62
(dp3398
g82
g83
ssg71
g3392
sg64
(lp3399
S'1'
asbag57
(g78
g59
NtRp3400
(dp3401
g62
(dp3402
g89
g90
ssg71
g3392
sg64
(lp3403
S':'
asbag57
(g78
g59
NtRp3404
(dp3405
g62
(dp3406
sg71
g3392
sg64
(lp3407
g57
(g58
g59
NtRp3408
(dp3409
g62
(dp3410
g70
I3
ssg71
g3404
sg64
(lp3411
S'user_1'
p3412
asbasbasbasbasbasbasbasbasbasbasbag57
(g73
g59
NtRp3413
(dp3414
g62
(dp3415
sg71
g3054
sg64
(lp3416
g57
(g78
g59
NtRp3417
(dp3418
g62
(dp3419
g82
g83
ssg71
g3413
sg64
(lp3420
S'currentRecipe'
p3421
asbag57
(g78
g59
NtRp3422
(dp3423
g62
(dp3424
g89
g90
ssg71
g3413
sg64
(lp3425
S':'
asbag57
(g78
g59
NtRp3426
(dp3427
g62
(dp3428
sg71
g3413
sg64
(lp3429
g57
(g58
g59
NtRp3430
(dp3431
g62
(dp3432
g70
I5
ssg71
g3426
sg64
(lp3433
S'5'
asbasbasbag57
(g73
g59
NtRp3434
(dp3435
g62
(dp3436
sg71
g3054
sg64
(lp3437
g57
(g78
g59
NtRp3438
(dp3439
g62
(dp3440
g82
g83
ssg71
g3434
sg64
(lp3441
S'flash'
p3442
asbag57
(g78
g59
NtRp3443
(dp3444
g62
(dp3445
g89
g90
ssg71
g3434
sg64
(lp3446
S':'
asbag57
(g78
g59
NtRp3447
(dp3448
g62
(dp3449
sg71
g3434
sg64
(lp3450
g57
(g58
g59
NtRp3451
(dp3452
g62
(dp3453
g70
I5
ssg71
g3447
sg64
(lp3454
S'None'
p3455
asbasbasbag57
(g73
g59
NtRp3456
(dp3457
g62
(dp3458
sg71
g3054
sg64
(lp3459
g57
(g78
g59
NtRp3460
(dp3461
g62
(dp3462
g82
g83
ssg71
g3456
sg64
(lp3463
S'last_orderby'
p3464
asbag57
(g78
g59
NtRp3465
(dp3466
g62
(dp3467
g89
g90
ssg71
g3456
sg64
(lp3468
S':'
asbag57
(g78
g59
NtRp3469
(dp3470
g62
(dp3471
sg71
g3456
sg64
(lp3472
g57
(g58
g59
NtRp3473
(dp3474
g62
(dp3475
g70
I5
ssg71
g3469
sg64
(lp3476
S'None'
p3477
asbasbasbag57
(g73
g59
NtRp3478
(dp3479
g62
(dp3480
sg71
g3054
sg64
(lp3481
g57
(g78
g59
NtRp3482
(dp3483
g62
(dp3484
g82
g83
ssg71
g3478
sg64
(lp3485
S'last_query'
p3486
asbag57
(g78
g59
NtRp3487
(dp3488
g62
(dp3489
g89
g90
ssg71
g3478
sg64
(lp3490
S':'
asbag57
(g78
g59
NtRp3491
(dp3492
g62
(dp3493
sg71
g3478
sg64
(lp3494
g57
(g58
g59
NtRp3495
(dp3496
g62
(dp3497
g70
I5
ssg71
g3491
sg64
(lp3498
S'db.Recipes.id>0'
p3499
asbasbasbag57
(g73
g59
NtRp3500
(dp3501
g62
(dp3502
sg71
g3054
sg64
(lp3503
g57
(g78
g59
NtRp3504
(dp3505
g62
(dp3506
g82
g83
ssg71
g3500
sg64
(lp3507
S'owner'
p3508
asbag57
(g78
g59
NtRp3509
(dp3510
g62
(dp3511
g89
g90
ssg71
g3500
sg64
(lp3512
S':'
asbag57
(g78
g59
NtRp3513
(dp3514
g62
(dp3515
sg71
g3500
sg64
(lp3516
g57
(g58
g59
NtRp3517
(dp3518
g62
(dp3519
g70
I5
ssg71
g3513
sg64
(lp3520
S'You Folks'
p3521
asbasbasbag57
(g73
g59
NtRp3522
(dp3523
g62
(dp3524
sg71
g3054
sg64
(lp3525
g57
(g78
g59
NtRp3526
(dp3527
g62
(dp3528
g82
g83
ssg71
g3522
sg64
(lp3529
S'title'
p3530
asbag57
(g78
g59
NtRp3531
(dp3532
g62
(dp3533
g89
g90
ssg71
g3522
sg64
(lp3534
S':'
asbag57
(g78
g59
NtRp3535
(dp3536
g62
(dp3537
sg71
g3522
sg64
(lp3538
g57
(g58
g59
NtRp3539
(dp3540
g62
(dp3541
g70
I5
ssg71
g3535
sg64
(lp3542
S'Clam Chowder'
p3543
asbasbasbasbasbsS'etype'
p3544
S"<type 'exceptions.NameError'>"
p3545
sS'date'
p3546
S'Tue Nov 27 23:06:26 2012'
p3547
sS'response'
p3548
g57
(g58
g59
NtRp3549
(dp3550
g62
(dp3551
sg64
(lp3552
g57
(g66
g59
NtRp3553
(dp3554
g62
(dp3555
g70
I5
ssg71
Nsg64
(lp3556
g57
(g73
g59
NtRp3557
(dp3558
g62
(dp3559
sg71
g3553
sg64
(lp3560
g57
(g78
g59
NtRp3561
(dp3562
g62
(dp3563
g82
g83
ssg71
g3557
sg64
(lp3564
g155
asbag57
(g78
g59
NtRp3565
(dp3566
g62
(dp3567
g89
g90
ssg71
g3557
sg64
(lp3568
S':'
asbag57
(g78
g59
NtRp3569
(dp3570
g62
(dp3571
sg71
g3557
sg64
(lp3572
g57
(g58
g59
NtRp3573
(dp3574
g62
(dp3575
g70
I5
ssg71
g3569
sg64
(lp3576
S'<cStringIO.StringO object at 0x03CC5C00>'
p3577
asbasbasbag57
(g73
g59
NtRp3578
(dp3579
g62
(dp3580
sg71
g3553
sg64
(lp3581
g57
(g78
g59
NtRp3582
(dp3583
g62
(dp3584
g82
g83
ssg71
g3578
sg64
(lp3585
g243
asbag57
(g78
g59
NtRp3586
(dp3587
g62
(dp3588
g89
g90
ssg71
g3578
sg64
(lp3589
S':'
asbag57
(g78
g59
NtRp3590
(dp3591
g62
(dp3592
sg71
g3578
sg64
(lp3593
g57
(g58
g59
NtRp3594
(dp3595
g62
(dp3596
g70
I5
ssg71
g3590
sg64
(lp3597
g57
(g66
g59
NtRp3598
(dp3599
g62
(dp3600
g70
I4
ssg71
Nsg64
(lp3601
g57
(g73
g59
NtRp3602
(dp3603
g62
(dp3604
sg71
g3598
sg64
(lp3605
g57
(g78
g59
NtRp3606
(dp3607
g62
(dp3608
g82
g83
ssg71
g3602
sg64
(lp3609
S'session_id_qsuntastebudsv2'
p3610
asbag57
(g78
g59
NtRp3611
(dp3612
g62
(dp3613
g89
g90
ssg71
g3602
sg64
(lp3614
S':'
asbag57
(g78
g59
NtRp3615
(dp3616
g62
(dp3617
sg71
g3602
sg64
(lp3618
g57
(g58
g59
NtRp3619
(dp3620
g62
(dp3621
g70
I4
ssg71
g3615
sg64
(lp3622
g475
ag57
(g66
g59
NtRp3623
(dp3624
g62
(dp3625
g70
I3
ssg71
Nsg64
(lp3626
g57
(g73
g59
NtRp3627
(dp3628
g62
(dp3629
sg71
g3623
sg64
(lp3630
g57
(g78
g59
NtRp3631
(dp3632
g62
(dp3633
g82
g83
ssg71
g3627
sg64
(lp3634
g294
asbag57
(g78
g59
NtRp3635
(dp3636
g62
(dp3637
g89
g90
ssg71
g3627
sg64
(lp3638
S':'
asbag57
(g78
g59
NtRp3639
(dp3640
g62
(dp3641
sg71
g3627
sg64
(lp3642
g57
(g58
g59
NtRp3643
(dp3644
g62
(dp3645
g70
I3
ssg71
g3639
sg64
(lp3646
S''
asbasbasbag57
(g73
g59
NtRp3647
(dp3648
g62
(dp3649
sg71
g3623
sg64
(lp3650
g57
(g78
g59
NtRp3651
(dp3652
g62
(dp3653
g82
g83
ssg71
g3647
sg64
(lp3654
g315
asbag57
(g78
g59
NtRp3655
(dp3656
g62
(dp3657
g89
g90
ssg71
g3647
sg64
(lp3658
S':'
asbag57
(g78
g59
NtRp3659
(dp3660
g62
(dp3661
sg71
g3647
sg64
(lp3662
g57
(g58
g59
NtRp3663
(dp3664
g62
(dp3665
g70
I3
ssg71
g3659
sg64
(lp3666
S''
asbasbasbag57
(g73
g59
NtRp3667
(dp3668
g62
(dp3669
sg71
g3623
sg64
(lp3670
g57
(g78
g59
NtRp3671
(dp3672
g62
(dp3673
g82
g83
ssg71
g3667
sg64
(lp3674
g336
asbag57
(g78
g59
NtRp3675
(dp3676
g62
(dp3677
g89
g90
ssg71
g3667
sg64
(lp3678
S':'
asbag57
(g78
g59
NtRp3679
(dp3680
g62
(dp3681
sg71
g3667
sg64
(lp3682
g57
(g58
g59
NtRp3683
(dp3684
g62
(dp3685
g70
I3
ssg71
g3679
sg64
(lp3686
S''
asbasbasbag57
(g73
g59
NtRp3687
(dp3688
g62
(dp3689
sg71
g3623
sg64
(lp3690
g57
(g78
g59
NtRp3691
(dp3692
g62
(dp3693
g82
g83
ssg71
g3687
sg64
(lp3694
g357
asbag57
(g78
g59
NtRp3695
(dp3696
g62
(dp3697
g89
g90
ssg71
g3687
sg64
(lp3698
S':'
asbag57
(g78
g59
NtRp3699
(dp3700
g62
(dp3701
sg71
g3687
sg64
(lp3702
g57
(g58
g59
NtRp3703
(dp3704
g62
(dp3705
g70
I3
ssg71
g3699
sg64
(lp3706
S''
asbasbasbag57
(g73
g59
NtRp3707
(dp3708
g62
(dp3709
sg71
g3623
sg64
(lp3710
g57
(g78
g59
NtRp3711
(dp3712
g62
(dp3713
g82
g83
ssg71
g3707
sg64
(lp3714
g378
asbag57
(g78
g59
NtRp3715
(dp3716
g62
(dp3717
g89
g90
ssg71
g3707
sg64
(lp3718
S':'
asbag57
(g78
g59
NtRp3719
(dp3720
g62
(dp3721
sg71
g3707
sg64
(lp3722
g57
(g58
g59
NtRp3723
(dp3724
g62
(dp3725
g70
I3
ssg71
g3719
sg64
(lp3726
S''
asbasbasbag57
(g73
g59
NtRp3727
(dp3728
g62
(dp3729
sg71
g3623
sg64
(lp3730
g57
(g78
g59
NtRp3731
(dp3732
g62
(dp3733
g82
g83
ssg71
g3727
sg64
(lp3734
g399
asbag57
(g78
g59
NtRp3735
(dp3736
g62
(dp3737
g89
g90
ssg71
g3727
sg64
(lp3738
S':'
asbag57
(g78
g59
NtRp3739
(dp3740
g62
(dp3741
sg71
g3727
sg64
(lp3742
g57
(g58
g59
NtRp3743
(dp3744
g62
(dp3745
g70
I3
ssg71
g3739
sg64
(lp3746
S'/'
asbasbasbag57
(g73
g59
NtRp3747
(dp3748
g62
(dp3749
sg71
g3623
sg64
(lp3750
g57
(g78
g59
NtRp3751
(dp3752
g62
(dp3753
g82
g83
ssg71
g3747
sg64
(lp3754
g420
asbag57
(g78
g59
NtRp3755
(dp3756
g62
(dp3757
g89
g90
ssg71
g3747
sg64
(lp3758
S':'
asbag57
(g78
g59
NtRp3759
(dp3760
g62
(dp3761
sg71
g3747
sg64
(lp3762
g57
(g58
g59
NtRp3763
(dp3764
g62
(dp3765
g70
I3
ssg71
g3759
sg64
(lp3766
S''
asbasbasbag57
(g73
g59
NtRp3767
(dp3768
g62
(dp3769
sg71
g3623
sg64
(lp3770
g57
(g78
g59
NtRp3771
(dp3772
g62
(dp3773
g82
g83
ssg71
g3767
sg64
(lp3774
g441
asbag57
(g78
g59
NtRp3775
(dp3776
g62
(dp3777
g89
g90
ssg71
g3767
sg64
(lp3778
S':'
asbag57
(g78
g59
NtRp3779
(dp3780
g62
(dp3781
sg71
g3767
sg64
(lp3782
g57
(g58
g59
NtRp3783
(dp3784
g62
(dp3785
g70
I3
ssg71
g3779
sg64
(lp3786
S''
asbasbasbasbasbasbasbasbasbasbasbag57
(g73
g59
NtRp3787
(dp3788
g62
(dp3789
sg71
g3553
sg64
(lp3790
g57
(g78
g59
NtRp3791
(dp3792
g62
(dp3793
g82
g83
ssg71
g3787
sg64
(lp3794
S'delimiters'
p3795
asbag57
(g78
g59
NtRp3796
(dp3797
g62
(dp3798
g89
g90
ssg71
g3787
sg64
(lp3799
S':'
asbag57
(g78
g59
NtRp3800
(dp3801
g62
(dp3802
sg71
g3787
sg64
(lp3803
g57
(g58
g59
NtRp3804
(dp3805
g62
(dp3806
g70
I5
ssg71
g3800
sg64
(lp3807
g57
(g66
g59
NtRp3808
(dp3809
g62
(dp3810
g70
I4
ssg71
Nsg64
(lp3811
g57
(g73
g59
NtRp3812
(dp3813
g62
(dp3814
sg71
g3808
sg64
(lp3815
g57
(g78
g59
NtRp3816
(dp3817
g62
(dp3818
sg71
g3812
sg64
(lp3819
g57
(g58
g59
NtRp3820
(dp3821
g62
(dp3822
g70
I4
ssg71
g3816
sg64
(lp3823
S'{{'
p3824
asbasbasbag57
(g73
g59
NtRp3825
(dp3826
g62
(dp3827
sg71
g3808
sg64
(lp3828
g57
(g78
g59
NtRp3829
(dp3830
g62
(dp3831
sg71
g3825
sg64
(lp3832
g57
(g58
g59
NtRp3833
(dp3834
g62
(dp3835
g70
I4
ssg71
g3829
sg64
(lp3836
S'}}'
p3837
asbasbasbasbasbasbasbag57
(g73
g59
NtRp3838
(dp3839
g62
(dp3840
sg71
g3553
sg64
(lp3841
g57
(g78
g59
NtRp3842
(dp3843
g62
(dp3844
g82
g83
ssg71
g3838
sg64
(lp3845
S'files'
p3846
asbag57
(g78
g59
NtRp3847
(dp3848
g62
(dp3849
g89
g90
ssg71
g3838
sg64
(lp3850
S':'
asbag57
(g78
g59
NtRp3851
(dp3852
g62
(dp3853
sg71
g3838
sg64
(lp3854
g57
(g58
g59
NtRp3855
(dp3856
g62
(dp3857
g70
I5
ssg71
g3851
sg64
(lp3858
g57
(g66
g59
NtRp3859
(dp3860
g62
(dp3861
g70
I4
ssg71
Nsg64
(lp3862
sbasbasbasbag57
(g73
g59
NtRp3863
(dp3864
g62
(dp3865
sg71
g3553
sg64
(lp3866
g57
(g78
g59
NtRp3867
(dp3868
g62
(dp3869
g82
g83
ssg71
g3863
sg64
(lp3870
S'flash'
p3871
asbag57
(g78
g59
NtRp3872
(dp3873
g62
(dp3874
g89
g90
ssg71
g3863
sg64
(lp3875
S':'
asbag57
(g78
g59
NtRp3876
(dp3877
g62
(dp3878
sg71
g3863
sg64
(lp3879
g57
(g58
g59
NtRp3880
(dp3881
g62
(dp3882
g70
I5
ssg71
g3876
sg64
(lp3883
S''
asbasbasbag57
(g73
g59
NtRp3884
(dp3885
g62
(dp3886
sg71
g3553
sg64
(lp3887
g57
(g78
g59
NtRp3888
(dp3889
g62
(dp3890
g82
g83
ssg71
g3884
sg64
(lp3891
S'generic_patterns'
p3892
asbag57
(g78
g59
NtRp3893
(dp3894
g62
(dp3895
g89
g90
ssg71
g3884
sg64
(lp3896
S':'
asbag57
(g78
g59
NtRp3897
(dp3898
g62
(dp3899
sg71
g3884
sg64
(lp3900
g57
(g58
g59
NtRp3901
(dp3902
g62
(dp3903
g70
I5
ssg71
g3897
sg64
(lp3904
g57
(g66
g59
NtRp3905
(dp3906
g62
(dp3907
g70
I4
ssg71
Nsg64
(lp3908
sbasbasbasbag57
(g73
g59
NtRp3909
(dp3910
g62
(dp3911
sg71
g3553
sg64
(lp3912
g57
(g78
g59
NtRp3913
(dp3914
g62
(dp3915
g82
g83
ssg71
g3909
sg64
(lp3916
S'headers'
p3917
asbag57
(g78
g59
NtRp3918
(dp3919
g62
(dp3920
g89
g90
ssg71
g3909
sg64
(lp3921
S':'
asbag57
(g78
g59
NtRp3922
(dp3923
g62
(dp3924
sg71
g3909
sg64
(lp3925
g57
(g58
g59
NtRp3926
(dp3927
g62
(dp3928
g70
I5
ssg71
g3922
sg64
(lp3929
g57
(g66
g59
NtRp3930
(dp3931
g62
(dp3932
g70
I4
ssg71
Nsg64
(lp3933
g57
(g73
g59
NtRp3934
(dp3935
g62
(dp3936
sg71
g3930
sg64
(lp3937
g57
(g78
g59
NtRp3938
(dp3939
g62
(dp3940
g82
g83
ssg71
g3934
sg64
(lp3941
S'X-Powered-By'
p3942
asbag57
(g78
g59
NtRp3943
(dp3944
g62
(dp3945
g89
g90
ssg71
g3934
sg64
(lp3946
S':'
asbag57
(g78
g59
NtRp3947
(dp3948
g62
(dp3949
sg71
g3934
sg64
(lp3950
g57
(g58
g59
NtRp3951
(dp3952
g62
(dp3953
g70
I4
ssg71
g3947
sg64
(lp3954
S'web2py'
p3955
asbasbasbasbasbasbasbag57
(g73
g59
NtRp3956
(dp3957
g62
(dp3958
sg71
g3553
sg64
(lp3959
g57
(g78
g59
NtRp3960
(dp3961
g62
(dp3962
g82
g83
ssg71
g3956
sg64
(lp3963
S'menu'
p3964
asbag57
(g78
g59
NtRp3965
(dp3966
g62
(dp3967
g89
g90
ssg71
g3956
sg64
(lp3968
S':'
asbag57
(g78
g59
NtRp3969
(dp3970
g62
(dp3971
sg71
g3956
sg64
(lp3972
g57
(g58
g59
NtRp3973
(dp3974
g62
(dp3975
g70
I5
ssg71
g3969
sg64
(lp3976
g57
(g66
g59
NtRp3977
(dp3978
g62
(dp3979
g70
I4
ssg71
Nsg64
(lp3980
sbasbasbasbag57
(g73
g59
NtRp3981
(dp3982
g62
(dp3983
sg71
g3553
sg64
(lp3984
g57
(g78
g59
NtRp3985
(dp3986
g62
(dp3987
g82
g83
ssg71
g3981
sg64
(lp3988
S'meta'
p3989
asbag57
(g78
g59
NtRp3990
(dp3991
g62
(dp3992
g89
g90
ssg71
g3981
sg64
(lp3993
S':'
asbag57
(g78
g59
NtRp3994
(dp3995
g62
(dp3996
sg71
g3981
sg64
(lp3997
g57
(g58
g59
NtRp3998
(dp3999
g62
(dp4000
g70
I5
ssg71
g3994
sg64
(lp4001
g57
(g66
g59
NtRp4002
(dp4003
g62
(dp4004
g70
I4
ssg71
Nsg64
(lp4005
sbasbasbasbag57
(g73
g59
NtRp4006
(dp4007
g62
(dp4008
sg71
g3553
sg64
(lp4009
g57
(g78
g59
NtRp4010
(dp4011
g62
(dp4012
g82
g83
ssg71
g4006
sg64
(lp4013
S'models_to_run'
p4014
asbag57
(g78
g59
NtRp4015
(dp4016
g62
(dp4017
g89
g90
ssg71
g4006
sg64
(lp4018
S':'
asbag57
(g78
g59
NtRp4019
(dp4020
g62
(dp4021
sg71
g4006
sg64
(lp4022
g57
(g58
g59
NtRp4023
(dp4024
g62
(dp4025
g70
I5
ssg71
g4019
sg64
(lp4026
g57
(g66
g59
NtRp4027
(dp4028
g62
(dp4029
g70
I4
ssg71
Nsg64
(lp4030
g57
(g73
g59
NtRp4031
(dp4032
g62
(dp4033
sg71
g4027
sg64
(lp4034
g57
(g78
g59
NtRp4035
(dp4036
g62
(dp4037
sg71
g4031
sg64
(lp4038
g57
(g58
g59
NtRp4039
(dp4040
g62
(dp4041
g70
I4
ssg71
g4035
sg64
(lp4042
S'^\\w+\\.py$'
p4043
asbasbasbag57
(g73
g59
NtRp4044
(dp4045
g62
(dp4046
sg71
g4027
sg64
(lp4047
g57
(g78
g59
NtRp4048
(dp4049
g62
(dp4050
sg71
g4044
sg64
(lp4051
g57
(g58
g59
NtRp4052
(dp4053
g62
(dp4054
g70
I4
ssg71
g4048
sg64
(lp4055
S'^default/\\w+\\.py$'
p4056
asbasbasbag57
(g73
g59
NtRp4057
(dp4058
g62
(dp4059
sg71
g4027
sg64
(lp4060
g57
(g78
g59
NtRp4061
(dp4062
g62
(dp4063
sg71
g4057
sg64
(lp4064
g57
(g58
g59
NtRp4065
(dp4066
g62
(dp4067
g70
I4
ssg71
g4061
sg64
(lp4068
S'^default/index/\\w+\\.py$'
p4069
asbasbasbasbasbasbasbag57
(g73
g59
NtRp4070
(dp4071
g62
(dp4072
sg71
g3553
sg64
(lp4073
g57
(g78
g59
NtRp4074
(dp4075
g62
(dp4076
g82
g83
ssg71
g4070
sg64
(lp4077
S'postprocessing'
p4078
asbag57
(g78
g59
NtRp4079
(dp4080
g62
(dp4081
g89
g90
ssg71
g4070
sg64
(lp4082
S':'
asbag57
(g78
g59
NtRp4083
(dp4084
g62
(dp4085
sg71
g4070
sg64
(lp4086
g57
(g58
g59
NtRp4087
(dp4088
g62
(dp4089
g70
I5
ssg71
g4083
sg64
(lp4090
g57
(g66
g59
NtRp4091
(dp4092
g62
(dp4093
g70
I4
ssg71
Nsg64
(lp4094
sbasbasbasbag57
(g73
g59
NtRp4095
(dp4096
g62
(dp4097
sg71
g3553
sg64
(lp4098
g57
(g78
g59
NtRp4099
(dp4100
g62
(dp4101
g82
g83
ssg71
g4095
sg64
(lp4102
S'session_file'
p4103
asbag57
(g78
g59
NtRp4104
(dp4105
g62
(dp4106
g89
g90
ssg71
g4095
sg64
(lp4107
S':'
asbag57
(g78
g59
NtRp4108
(dp4109
g62
(dp4110
sg71
g4095
sg64
(lp4111
g57
(g58
g59
NtRp4112
(dp4113
g62
(dp4114
g70
I5
ssg71
g4108
sg64
(lp4115
S"<open file 'D:\\web2py_win\\web2py\\applications\\QSunTasteBudsV2\\sessions\\127.0.0.1-03c509ec-2cef-426f-a88b-6eb0c079c2a6', mode 'rb+' at 0x03F497B0>"
p4116
asbasbasbag57
(g73
g59
NtRp4117
(dp4118
g62
(dp4119
sg71
g3553
sg64
(lp4120
g57
(g78
g59
NtRp4121
(dp4122
g62
(dp4123
g82
g83
ssg71
g4117
sg64
(lp4124
S'session_filename'
p4125
asbag57
(g78
g59
NtRp4126
(dp4127
g62
(dp4128
g89
g90
ssg71
g4117
sg64
(lp4129
S':'
asbag57
(g78
g59
NtRp4130
(dp4131
g62
(dp4132
sg71
g4117
sg64
(lp4133
g57
(g58
g59
NtRp4134
(dp4135
g62
(dp4136
g70
I5
ssg71
g4130
sg64
(lp4137
S'D:\\web2py_win\\web2py\\applications\\QSunTasteBudsV2\\sessions\\127.0.0.1-03c509ec-2cef-426f-a88b-6eb0c079c2a6'
p4138
asbasbasbag57
(g73
g59
NtRp4139
(dp4140
g62
(dp4141
sg71
g3553
sg64
(lp4142
g57
(g78
g59
NtRp4143
(dp4144
g62
(dp4145
g82
g83
ssg71
g4139
sg64
(lp4146
S'session_id'
p4147
asbag57
(g78
g59
NtRp4148
(dp4149
g62
(dp4150
g89
g90
ssg71
g4139
sg64
(lp4151
S':'
asbag57
(g78
g59
NtRp4152
(dp4153
g62
(dp4154
sg71
g4139
sg64
(lp4155
g57
(g58
g59
NtRp4156
(dp4157
g62
(dp4158
g70
I5
ssg71
g4152
sg64
(lp4159
g475
asbasbasbag57
(g73
g59
NtRp4160
(dp4161
g62
(dp4162
sg71
g3553
sg64
(lp4163
g57
(g78
g59
NtRp4164
(dp4165
g62
(dp4166
g82
g83
ssg71
g4160
sg64
(lp4167
S'session_id_name'
p4168
asbag57
(g78
g59
NtRp4169
(dp4170
g62
(dp4171
g89
g90
ssg71
g4160
sg64
(lp4172
S':'
asbag57
(g78
g59
NtRp4173
(dp4174
g62
(dp4175
sg71
g4160
sg64
(lp4176
g57
(g58
g59
NtRp4177
(dp4178
g62
(dp4179
g70
I5
ssg71
g4173
sg64
(lp4180
g3610
asbasbasbag57
(g73
g59
NtRp4181
(dp4182
g62
(dp4183
sg71
g3553
sg64
(lp4184
g57
(g78
g59
NtRp4185
(dp4186
g62
(dp4187
g82
g83
ssg71
g4181
sg64
(lp4188
S'session_locked'
p4189
asbag57
(g78
g59
NtRp4190
(dp4191
g62
(dp4192
g89
g90
ssg71
g4181
sg64
(lp4193
S':'
asbag57
(g78
g59
NtRp4194
(dp4195
g62
(dp4196
sg71
g4181
sg64
(lp4197
g57
(g58
g59
NtRp4198
(dp4199
g62
(dp4200
g70
I5
ssg71
g4194
sg64
(lp4201
g1679
asbasbasbag57
(g73
g59
NtRp4202
(dp4203
g62
(dp4204
sg71
g3553
sg64
(lp4205
g57
(g78
g59
NtRp4206
(dp4207
g62
(dp4208
g82
g83
ssg71
g4202
sg64
(lp4209
S'session_new'
p4210
asbag57
(g78
g59
NtRp4211
(dp4212
g62
(dp4213
g89
g90
ssg71
g4202
sg64
(lp4214
S':'
asbag57
(g78
g59
NtRp4215
(dp4216
g62
(dp4217
sg71
g4202
sg64
(lp4218
g57
(g58
g59
NtRp4219
(dp4220
g62
(dp4221
g70
I5
ssg71
g4215
sg64
(lp4222
g100
asbasbasbag57
(g73
g59
NtRp4223
(dp4224
g62
(dp4225
sg71
g3553
sg64
(lp4226
g57
(g78
g59
NtRp4227
(dp4228
g62
(dp4229
g82
g83
ssg71
g4223
sg64
(lp4230
S'status'
p4231
asbag57
(g78
g59
NtRp4232
(dp4233
g62
(dp4234
g89
g90
ssg71
g4223
sg64
(lp4235
S':'
asbag57
(g78
g59
NtRp4236
(dp4237
g62
(dp4238
sg71
g4223
sg64
(lp4239
g57
(g58
g59
NtRp4240
(dp4241
g62
(dp4242
g70
I5
ssg71
g4236
sg64
(lp4243
S'200'
p4244
asbasbasbag57
(g73
g59
NtRp4245
(dp4246
g62
(dp4247
sg71
g3553
sg64
(lp4248
g57
(g78
g59
NtRp4249
(dp4250
g62
(dp4251
g82
g83
ssg71
g4245
sg64
(lp4252
S'view'
p4253
asbag57
(g78
g59
NtRp4254
(dp4255
g62
(dp4256
g89
g90
ssg71
g4245
sg64
(lp4257
S':'
asbag57
(g78
g59
NtRp4258
(dp4259
g62
(dp4260
sg71
g4245
sg64
(lp4261
g57
(g58
g59
NtRp4262
(dp4263
g62
(dp4264
g70
I5
ssg71
g4258
sg64
(lp4265
S'default/index.html'
p4266
asbasbasbasbasbsS'locals'
p4267
(dp4268
S'OBJECT'
p4269
S"<class 'gluon.html.OBJECT'>"
p4270
sS'SQLDB'
p4271
S"<class 'gluon.dal.DAL'>"
p4272
sg3049
S"<Storage {'last_query': 'db.Recipes.id>0', '_use...login]': 'b9e85c52-9a06-4725-985b-3590facb13c4'}>"
p4273
sS'LINK'
p4274
S"<class 'gluon.html.LINK'>"
p4275
sS'BR'
p4276
S"<class 'gluon.html.BR'>"
p4277
sS'local_import'
p4278
S'<function <lambda>>'
p4279
sS'OPTGROUP'
p4280
S"<class 'gluon.html.OPTGROUP'>"
p4281
sS'PRE'
p4282
S"<class 'gluon.html.PRE'>"
p4283
sS'IS_INT_IN_RANGE'
p4284
S"<class 'gluon.validators.IS_INT_IN_RANGE'>"
p4285
sS'IS_LOWER'
p4286
S"<class 'gluon.validators.IS_LOWER'>"
p4287
sS'IS_STRONG'
p4288
S"<class 'gluon.validators.IS_STRONG'>"
p4289
sS'cache'
p4290
S'<gluon.cache.Cache object>'
p4291
sS'IS_IN_DB'
p4292
S"<class 'gluon.validators.IS_IN_DB'>"
p4293
sS'TAG'
p4294
S'<gluon.html.__TAG__ object>'
p4295
sS'SQLField'
p4296
S"<class 'gluon.dal.Field'>"
p4297
sS'BODY'
p4298
S"<class 'gluon.html.BODY'>"
p4299
sS'IS_DATE_IN_RANGE'
p4300
S"<class 'gluon.validators.IS_DATE_IN_RANGE'>"
p4301
sS'IFRAME'
p4302
S"<class 'gluon.html.IFRAME'>"
p4303
sS'URL'
p4304
S'<function URL>'
p4305
sS'__file__'
p4306
S"r'D:\\web2py_win\\web2py\\applications\\QSunTasteBudsV2\\models\\comments.py'"
p4307
sS'P'
S"<class 'gluon.html.P'>"
p4308
sS'TFOOT'
p4309
S"<class 'gluon.html.TFOOT'>"
p4310
sS'XHTML'
p4311
S"<class 'gluon.html.XHTML'>"
p4312
sS'ON'
p4313
g1679
sS'OL'
p4314
S"<class 'gluon.html.OL'>"
p4315
sS'TEXTAREA'
p4316
S"<class 'gluon.html.TEXTAREA'>"
p4317
sS'MENU'
p4318
S"<class 'gluon.html.MENU'>"
p4319
sS'EM'
p4320
S"<class 'gluon.html.EM'>"
p4321
sS'CODE'
p4322
S"<class 'gluon.html.CODE'>"
p4323
sS'HTTP'
p4324
S"<class 'gluon.http.HTTP'>"
p4325
sS'HR'
p4326
S"<class 'gluon.html.HR'>"
p4327
sS'IS_DATETIME'
p4328
S"<class 'gluon.validators.IS_DATETIME'>"
p4329
sS'STYLE'
p4330
S"<class 'gluon.html.STYLE'>"
p4331
sS'LABEL'
p4332
S"<class 'gluon.html.LABEL'>"
p4333
sS'CLEANUP'
p4334
S"<class 'gluon.validators.CLEANUP'>"
p4335
sS'SELECT'
p4336
S"<class 'gluon.html.SELECT'>"
p4337
sS'CENTER'
p4338
S"<class 'gluon.html.CENTER'>"
p4339
sS'__builtins__'
p4340
S"{'ArithmeticError': <type 'exceptions.ArithmeticError'>, 'AssertionError': <type 'exceptions.AssertionError'>, 'AttributeError': <type 'exceptions.AttributeError'>, 'BaseException': <type 'exceptions.BaseException'>, 'BufferError': <type 'exceptions.BufferError'>, 'BytesWarning': <type 'exceptions.BytesWarning'>, 'DeprecationWarning': <type 'exceptions.DeprecationWarning'>, 'EOFError': <type 'exceptions.EOFError'>, 'Ellipsis': Ellipsis, 'EnvironmentError': <type 'exceptions.EnvironmentError'>, ...}"
p4341
sS'HTML'
p4342
S"<class 'gluon.html.HTML'>"
p4343
sS'SQLFORM'
p4344
S"<class 'gluon.sqlhtml.SQLFORM'>"
p4345
sS'LOAD'
p4346
S'<function LOAD>'
p4347
sS'redirect'
p4348
S'<function redirect>'
p4349
sS'FIELDSET'
p4350
S"<class 'gluon.html.FIELDSET'>"
p4351
sS'IS_EQUAL_TO'
p4352
S"<class 'gluon.validators.IS_EQUAL_TO'>"
p4353
sS'embed64'
p4354
S'<function embed64>'
p4355
sS'IS_LIST_OF'
p4356
S"<class 'gluon.validators.IS_LIST_OF'>"
p4357
sS'INPUT'
p4358
S"<class 'gluon.html.INPUT'>"
p4359
sS'EMBED'
p4360
S"<class 'gluon.html.EMBED'>"
p4361
sS'FORM'
p4362
S"<class 'gluon.html.FORM'>"
p4363
sS'H2'
p4364
S"<class 'gluon.html.H2'>"
p4365
sS'H3'
p4366
S"<class 'gluon.html.H3'>"
p4367
sS'BUTTON'
p4368
S"<class 'gluon.html.BUTTON'>"
p4369
sS'H1'
p4370
S"<class 'gluon.html.H1'>"
p4371
sS'H6'
p4372
S"<class 'gluon.html.H6'>"
p4373
sS'H4'
p4374
S"<class 'gluon.html.H4'>"
p4375
sS'H5'
p4376
S"<class 'gluon.html.H5'>"
p4377
sS'UL'
p4378
S"<class 'gluon.html.UL'>"
p4379
sS'IS_UPPER'
p4380
S"<class 'gluon.validators.IS_UPPER'>"
p4381
sS'xmlescape'
p4382
S'<function xmlescape>'
p4383
sS'IS_TIME'
p4384
S"<class 'gluon.validators.IS_TIME'>"
p4385
sS'OPTION'
p4386
S"<class 'gluon.html.OPTION'>"
p4387
sS'TITLE'
p4388
S"<class 'gluon.html.TITLE'>"
p4389
sS'CRYPT'
p4390
S"<class 'gluon.validators.CRYPT'>"
p4391
sS'IS_EMPTY_OR'
p4392
S"<class 'gluon.validators.IS_EMPTY_OR'>"
p4393
sS'MARKMIN'
p4394
S"<class 'gluon.html.MARKMIN'>"
p4395
sS'__name__'
p4396
S"'__restricted__'"
p4397
sS'STRONG'
p4398
S"<class 'gluon.html.STRONG'>"
p4399
sS'COL'
p4400
S"<class 'gluon.html.COL'>"
p4401
sS'SCRIPT'
p4402
S"<class 'gluon.html.SCRIPT'>"
p4403
sS'TABLE'
p4404
S"<class 'gluon.html.TABLE'>"
p4405
sS'IS_IPV4'
p4406
S"<class 'gluon.validators.IS_IPV4'>"
p4407
sS'IS_LENGTH'
p4408
S"<class 'gluon.validators.IS_LENGTH'>"
p4409
sS'XML'
p4410
S"<class 'gluon.html.XML'>"
p4411
sS'B'
S"<class 'gluon.html.B'>"
p4412
sS'IMG'
p4413
S"<class 'gluon.html.IMG'>"
p4414
sS'SQLTABLE'
p4415
S"<class 'gluon.sqlhtml.SQLTABLE'>"
p4416
sS'IS_MATCH'
p4417
S"<class 'gluon.validators.IS_MATCH'>"
p4418
sS'IS_ALPHANUMERIC'
p4419
S"<class 'gluon.validators.IS_ALPHANUMERIC'>"
p4420
sS'SPAN'
p4421
S"<class 'gluon.html.SPAN'>"
p4422
sS'IS_SLUG'
p4423
S"<class 'gluon.validators.IS_SLUG'>"
p4424
sS'BEAUTIFY'
p4425
S"<class 'gluon.html.BEAUTIFY'>"
p4426
sS'META'
p4427
S"<class 'gluon.html.META'>"
p4428
sS'IS_DATE'
p4429
S"<class 'gluon.validators.IS_DATE'>"
p4430
sS'IS_EMAIL'
p4431
S"<class 'gluon.validators.IS_EMAIL'>"
p4432
sS'IS_NOT_EMPTY'
p4433
S"<class 'gluon.validators.IS_NOT_EMPTY'>"
p4434
sS'IS_FLOAT_IN_RANGE'
p4435
S"<class 'gluon.validators.IS_FLOAT_IN_RANGE'>"
p4436
sS'TBODY'
p4437
S"<class 'gluon.html.TBODY'>"
p4438
sS'CAT'
p4439
S"<class 'gluon.html.CAT'>"
p4440
sS'Field'
p4441
S"<class 'gluon.dal.Field'>"
p4442
sS'DIV'
p4443
S"<class 'gluon.html.DIV'>"
p4444
sS'LEGEND'
p4445
S"<class 'gluon.html.LEGEND'>"
p4446
sS'COLGROUP'
p4447
S"<class 'gluon.html.COLGROUP'>"
p4448
sS'DAL'
p4449
S"<class 'gluon.dal.DAL'>"
p4450
sS'TT'
p4451
S"<class 'gluon.html.TT'>"
p4452
sS'TR'
p4453
S"<class 'gluon.html.TR'>"
p4454
sS'LI'
p4455
S"<class 'gluon.html.LI'>"
p4456
sS'TH'
p4457
S"<class 'gluon.html.TH'>"
p4458
sS'TD'
p4459
S"<class 'gluon.html.TD'>"
p4460
sS'IS_URL'
p4461
S"<class 'gluon.validators.IS_URL'>"
p4462
sS'A'
S"<class 'gluon.html.A'>"
p4463
sS'HEAD'
p4464
S"<class 'gluon.html.HEAD'>"
p4465
sS'IS_DATETIME_IN_RANGE'
p4466
S"<class 'gluon.validators.IS_DATETIME_IN_RANGE'>"
p4467
sS'IS_IMAGE'
p4468
S"<class 'gluon.validators.IS_IMAGE'>"
p4469
sS'I'
S"<class 'gluon.html.I'>"
p4470
sS'IS_NOT_IN_DB'
p4471
S"<class 'gluon.validators.IS_NOT_IN_DB'>"
p4472
sg3548
S"<Storage {'body': <cStringIO.StringO object at 0...a> at 0x044E3030>, 'view': 'default/index.html'}>"
p4473
sS'THEAD'
p4474
S"<class 'gluon.html.THEAD'>"
p4475
sS'IS_NULL_OR'
p4476
S"<class 'gluon.validators.IS_EMPTY_OR'>"
p4477
sg56
S"<Storage {'function': 'index', 'body': <cStringI...\\\\QSunTasteBudsV2\\\\', 'post_vars': <Storage {}>}>"
p4478
sS'IS_EXPR'
p4479
S"<class 'gluon.validators.IS_EXPR'>"
p4480
sS'IS_IN_SET'
p4481
S"<class 'gluon.validators.IS_IN_SET'>"
p4482
sS'IS_UPLOAD_FILENAME'
p4483
S"<class 'gluon.validators.IS_UPLOAD_FILENAME'>"
p4484
sS'IS_DECIMAL_IN_RANGE'
p4485
S"<class 'gluon.validators.IS_DECIMAL_IN_RANGE'>"
p4486
sS'T'
S'<gluon.languages.translator object>'
p4487
sssS'traceback'
p4488
S'Traceback (most recent call last):\n  File "gluon/restricted.py", line 209, in restricted\n  File "D:\\web2py_win\\web2py\\applications\\QSunTasteBudsV2\\models\\comments.py", line 1, in <module>\nNameError: name \'db\' is not defined\n'
p4489
s.