(dp1
S'output'
p2
S"<type 'exceptions.SyntaxError'> invalid syntax (default/readRecipe.html, line 18)"
p3
sS'layer'
p4
S'D:\\web2py_win\\web2py\\applications\\QSunTasteBudsV2\\views\\default/readRecipe.html'
p5
sS'code'
p6
S'response.write("<html>\\r\\n\\t<head>\\r\\n        <h2>Recipe\'s Name:  ", escape=False)\nresponse.write(recipe.title)\nresponse.write(\'</h2>\\r\\n    </head>\\r\\n\\r\\n\\t<body>\\r\\n        <h5>made by: \', escape=False)\nresponse.write(recipe.owner.first_name)\nresponse.write(\'  \', escape=False)\nresponse.write(recipe.owner.last_name)\nresponse.write(\'</h5>\\r\\n        <li>uploaded time: \', escape=False)\nresponse.write(recipe.uploadTime)\nresponse.write(\'</li>\\r\\n        <p>\', escape=False)\nresponse.write(IMG(_src = URL(\'download\', args = recipe.picture), _alt = recipe.title, _height = \'70\', _width = \'200\'))\nresponse.write(\'</p>\\r\\n        <li>current rating point:  \', escape=False)\nresponse.write(recipe.rating)\nresponse.write(\'</li>\\r\\n        <p>Description: \', escape=False)\nresponse.write(recipe.description)\nresponse.write(\' </p>\\r\\n        <div>\', escape=False)\nresponse.write(rateForm)\nresponse.write(\'</div>\\r\\n        <div>\\r\\n            \', escape=False)\nfor c in commentList\nresponse.write(\'\\r\\n            \', escape=False)\nresponse.write(c.comment)\nresponse.write(\' <br>\\r\\n            \', escape=False)\npass\nresponse.write(\'\\r\\n        </div>\\r\\n    </body>\\r\\n</html>\\r\\n\', escape=False)'
p7
sS'snapshot'
p8
(dp9
S'exception'
p10
(dp11
S'__getslice__'
p12
S"<method-wrapper '__getslice__' of exceptions.SyntaxError object>"
p13
sS'text'
p14
S"'for c in commentList\\n'"
p15
sS'__str__'
p16
S"<method-wrapper '__str__' of exceptions.SyntaxError object>"
p17
sS'__reduce__'
p18
S'<built-in method __reduce__ of exceptions.SyntaxError object>'
p19
sS'__dict__'
p20
S'{}'
p21
sS'__sizeof__'
p22
S'<built-in method __sizeof__ of exceptions.SyntaxError object>'
p23
sS'__init__'
p24
S"<method-wrapper '__init__' of exceptions.SyntaxError object>"
p25
sS'__setattr__'
p26
S"<method-wrapper '__setattr__' of exceptions.SyntaxError object>"
p27
sS'__reduce_ex__'
p28
S'<built-in method __reduce_ex__ of exceptions.SyntaxError object>'
p29
sS'__new__'
p30
S'<built-in method __new__ of type object>'
p31
sS'__format__'
p32
S'<built-in method __format__ of exceptions.SyntaxError object>'
p33
sS'__class__'
p34
S"<type 'exceptions.SyntaxError'>"
p35
sS'filename'
p36
S"r'D:\\web2py_win\\web2py\\applications\\QSunTasteBudsV2\\views\\default/readRecipe.html'"
p37
sS'lineno'
p38
S'18'
p39
sS'msg'
p40
S"'invalid syntax'"
p41
sS'__doc__'
p42
S"'Invalid syntax.'"
p43
sS'__getitem__'
p44
S"<method-wrapper '__getitem__' of exceptions.SyntaxError object>"
p45
sS'__setstate__'
p46
S'<built-in method __setstate__ of exceptions.SyntaxError object>'
p47
sS'__getattribute__'
p48
S"<method-wrapper '__getattribute__' of exceptions.SyntaxError object>"
p49
sS'print_file_and_line'
p50
S'None'
p51
sS'args'
p52
S"('invalid syntax', (r'D:\\web2py_win\\web2py\\applications\\QSunTasteBudsV2\\views\\default/readRecipe.html', 18, 21, 'for c in commentList\\n'))"
p53
sS'__subclasshook__'
p54
S'<built-in method __subclasshook__ of type object>'
p55
sS'offset'
p56
S'21'
p57
sS'__unicode__'
p58
S'<built-in method __unicode__ of exceptions.SyntaxError object>'
p59
sS'__delattr__'
p60
S"<method-wrapper '__delattr__' of exceptions.SyntaxError object>"
p61
sS'__repr__'
p62
S"<method-wrapper '__repr__' of exceptions.SyntaxError object>"
p63
sS'__hash__'
p64
S"<method-wrapper '__hash__' of exceptions.SyntaxError object>"
p65
ssS'evalue'
p66
S'invalid syntax (default/readRecipe.html, line 18)'
p67
sS'request'
p68
ccopy_reg
_reconstructor
p69
(cgluon.html
BEAUTIFY
p70
c__builtin__
object
p71
NtRp72
(dp73
S'attributes'
p74
(dp75
sS'components'
p76
(lp77
g69
(cgluon.html
TABLE
p78
g71
NtRp79
(dp80
g74
(dp81
S'level'
p82
I5
ssS'parent'
p83
Nsg76
(lp84
g69
(cgluon.html
TR
p85
g71
NtRp86
(dp87
g74
(dp88
sg83
g79
sg76
(lp89
g69
(cgluon.html
TD
p90
g71
NtRp91
(dp92
g74
(dp93
S'_style'
p94
S'font-weight:bold;vertical-align:top'
p95
ssg83
g86
sg76
(lp96
S'ajax'
p97
asbag69
(g90
g71
NtRp98
(dp99
g74
(dp100
S'_valign'
p101
S'top'
p102
ssg83
g86
sg76
(lp103
S':'
asbag69
(g90
g71
NtRp104
(dp105
g74
(dp106
sg83
g86
sg76
(lp107
g69
(g70
g71
NtRp108
(dp109
g74
(dp110
g82
I5
ssg83
g104
sg76
(lp111
S'False'
p112
asbasbasbag69
(g85
g71
NtRp113
(dp114
g74
(dp115
sg83
g79
sg76
(lp116
g69
(g90
g71
NtRp117
(dp118
g74
(dp119
g94
g95
ssg83
g113
sg76
(lp120
S'application'
p121
asbag69
(g90
g71
NtRp122
(dp123
g74
(dp124
g101
g102
ssg83
g113
sg76
(lp125
S':'
asbag69
(g90
g71
NtRp126
(dp127
g74
(dp128
sg83
g113
sg76
(lp129
g69
(g70
g71
NtRp130
(dp131
g74
(dp132
g82
I5
ssg83
g126
sg76
(lp133
S'QSunTasteBudsV2'
p134
asbasbasbag69
(g85
g71
NtRp135
(dp136
g74
(dp137
sg83
g79
sg76
(lp138
g69
(g90
g71
NtRp139
(dp140
g74
(dp141
g94
g95
ssg83
g135
sg76
(lp142
g52
asbag69
(g90
g71
NtRp143
(dp144
g74
(dp145
g101
g102
ssg83
g135
sg76
(lp146
S':'
asbag69
(g90
g71
NtRp147
(dp148
g74
(dp149
sg83
g135
sg76
(lp150
g69
(g70
g71
NtRp151
(dp152
g74
(dp153
g82
I5
ssg83
g147
sg76
(lp154
g69
(g78
g71
NtRp155
(dp156
g74
(dp157
g82
I4
ssg83
Nsg76
(lp158
g69
(g85
g71
NtRp159
(dp160
g74
(dp161
sg83
g155
sg76
(lp162
g69
(g90
g71
NtRp163
(dp164
g74
(dp165
sg83
g159
sg76
(lp166
g69
(g70
g71
NtRp167
(dp168
g74
(dp169
g82
I4
ssg83
g163
sg76
(lp170
S'5'
asbasbasbasbasbasbasbag69
(g85
g71
NtRp171
(dp172
g74
(dp173
sg83
g79
sg76
(lp174
g69
(g90
g71
NtRp175
(dp176
g74
(dp177
g94
g95
ssg83
g171
sg76
(lp178
S'body'
p179
asbag69
(g90
g71
NtRp180
(dp181
g74
(dp182
g101
g102
ssg83
g171
sg76
(lp183
S':'
asbag69
(g90
g71
NtRp184
(dp185
g74
(dp186
sg83
g171
sg76
(lp187
g69
(g70
g71
NtRp188
(dp189
g74
(dp190
g82
I5
ssg83
g184
sg76
(lp191
S'<cStringIO.StringO object at 0x045D0E80>'
p192
asbasbasbag69
(g85
g71
NtRp193
(dp194
g74
(dp195
sg83
g79
sg76
(lp196
g69
(g90
g71
NtRp197
(dp198
g74
(dp199
g94
g95
ssg83
g193
sg76
(lp200
S'cid'
p201
asbag69
(g90
g71
NtRp202
(dp203
g74
(dp204
g101
g102
ssg83
g193
sg76
(lp205
S':'
asbag69
(g90
g71
NtRp206
(dp207
g74
(dp208
sg83
g193
sg76
(lp209
g69
(g70
g71
NtRp210
(dp211
g74
(dp212
g82
I5
ssg83
g206
sg76
(lp213
S'None'
p214
asbasbasbag69
(g85
g71
NtRp215
(dp216
g74
(dp217
sg83
g79
sg76
(lp218
g69
(g90
g71
NtRp219
(dp220
g74
(dp221
g94
g95
ssg83
g215
sg76
(lp222
S'client'
p223
asbag69
(g90
g71
NtRp224
(dp225
g74
(dp226
g101
g102
ssg83
g215
sg76
(lp227
S':'
asbag69
(g90
g71
NtRp228
(dp229
g74
(dp230
sg83
g215
sg76
(lp231
g69
(g70
g71
NtRp232
(dp233
g74
(dp234
g82
I5
ssg83
g228
sg76
(lp235
S'127.0.0.1'
p236
asbasbasbag69
(g85
g71
NtRp237
(dp238
g74
(dp239
sg83
g79
sg76
(lp240
g69
(g90
g71
NtRp241
(dp242
g74
(dp243
g94
g95
ssg83
g237
sg76
(lp244
S'controller'
p245
asbag69
(g90
g71
NtRp246
(dp247
g74
(dp248
g101
g102
ssg83
g237
sg76
(lp249
S':'
asbag69
(g90
g71
NtRp250
(dp251
g74
(dp252
sg83
g237
sg76
(lp253
g69
(g70
g71
NtRp254
(dp255
g74
(dp256
g82
I5
ssg83
g250
sg76
(lp257
S'default'
p258
asbasbasbag69
(g85
g71
NtRp259
(dp260
g74
(dp261
sg83
g79
sg76
(lp262
g69
(g90
g71
NtRp263
(dp264
g74
(dp265
g94
g95
ssg83
g259
sg76
(lp266
S'cookies'
p267
asbag69
(g90
g71
NtRp268
(dp269
g74
(dp270
g101
g102
ssg83
g259
sg76
(lp271
S':'
asbag69
(g90
g71
NtRp272
(dp273
g74
(dp274
sg83
g259
sg76
(lp275
g69
(g70
g71
NtRp276
(dp277
g74
(dp278
g82
I5
ssg83
g272
sg76
(lp279
g69
(g78
g71
NtRp280
(dp281
g74
(dp282
g82
I4
ssg83
Nsg76
(lp283
g69
(g85
g71
NtRp284
(dp285
g74
(dp286
sg83
g280
sg76
(lp287
g69
(g90
g71
NtRp288
(dp289
g74
(dp290
g94
g95
ssg83
g284
sg76
(lp291
S'session_id_admin'
p292
asbag69
(g90
g71
NtRp293
(dp294
g74
(dp295
g101
g102
ssg83
g284
sg76
(lp296
S':'
asbag69
(g90
g71
NtRp297
(dp298
g74
(dp299
sg83
g284
sg76
(lp300
g69
(g70
g71
NtRp301
(dp302
g74
(dp303
g82
I4
ssg83
g297
sg76
(lp304
S'127.0.0.1-304ee069-1576-4fbf-bd8b-3f7ad31c7229'
p305
ag69
(g78
g71
NtRp306
(dp307
g74
(dp308
g82
I3
ssg83
Nsg76
(lp309
g69
(g85
g71
NtRp310
(dp311
g74
(dp312
sg83
g306
sg76
(lp313
g69
(g90
g71
NtRp314
(dp315
g74
(dp316
g94
g95
ssg83
g310
sg76
(lp317
S'comment'
p318
asbag69
(g90
g71
NtRp319
(dp320
g74
(dp321
g101
g102
ssg83
g310
sg76
(lp322
S':'
asbag69
(g90
g71
NtRp323
(dp324
g74
(dp325
sg83
g310
sg76
(lp326
g69
(g70
g71
NtRp327
(dp328
g74
(dp329
g82
I3
ssg83
g323
sg76
(lp330
S''
asbasbasbag69
(g85
g71
NtRp331
(dp332
g74
(dp333
sg83
g306
sg76
(lp334
g69
(g90
g71
NtRp335
(dp336
g74
(dp337
g94
g95
ssg83
g331
sg76
(lp338
S'domain'
p339
asbag69
(g90
g71
NtRp340
(dp341
g74
(dp342
g101
g102
ssg83
g331
sg76
(lp343
S':'
asbag69
(g90
g71
NtRp344
(dp345
g74
(dp346
sg83
g331
sg76
(lp347
g69
(g70
g71
NtRp348
(dp349
g74
(dp350
g82
I3
ssg83
g344
sg76
(lp351
S''
asbasbasbag69
(g85
g71
NtRp352
(dp353
g74
(dp354
sg83
g306
sg76
(lp355
g69
(g90
g71
NtRp356
(dp357
g74
(dp358
g94
g95
ssg83
g352
sg76
(lp359
S'expires'
p360
asbag69
(g90
g71
NtRp361
(dp362
g74
(dp363
g101
g102
ssg83
g352
sg76
(lp364
S':'
asbag69
(g90
g71
NtRp365
(dp366
g74
(dp367
sg83
g352
sg76
(lp368
g69
(g70
g71
NtRp369
(dp370
g74
(dp371
g82
I3
ssg83
g365
sg76
(lp372
S''
asbasbasbag69
(g85
g71
NtRp373
(dp374
g74
(dp375
sg83
g306
sg76
(lp376
g69
(g90
g71
NtRp377
(dp378
g74
(dp379
g94
g95
ssg83
g373
sg76
(lp380
S'httponly'
p381
asbag69
(g90
g71
NtRp382
(dp383
g74
(dp384
g101
g102
ssg83
g373
sg76
(lp385
S':'
asbag69
(g90
g71
NtRp386
(dp387
g74
(dp388
sg83
g373
sg76
(lp389
g69
(g70
g71
NtRp390
(dp391
g74
(dp392
g82
I3
ssg83
g386
sg76
(lp393
S''
asbasbasbag69
(g85
g71
NtRp394
(dp395
g74
(dp396
sg83
g306
sg76
(lp397
g69
(g90
g71
NtRp398
(dp399
g74
(dp400
g94
g95
ssg83
g394
sg76
(lp401
S'max-age'
p402
asbag69
(g90
g71
NtRp403
(dp404
g74
(dp405
g101
g102
ssg83
g394
sg76
(lp406
S':'
asbag69
(g90
g71
NtRp407
(dp408
g74
(dp409
sg83
g394
sg76
(lp410
g69
(g70
g71
NtRp411
(dp412
g74
(dp413
g82
I3
ssg83
g407
sg76
(lp414
S''
asbasbasbag69
(g85
g71
NtRp415
(dp416
g74
(dp417
sg83
g306
sg76
(lp418
g69
(g90
g71
NtRp419
(dp420
g74
(dp421
g94
g95
ssg83
g415
sg76
(lp422
S'path'
p423
asbag69
(g90
g71
NtRp424
(dp425
g74
(dp426
g101
g102
ssg83
g415
sg76
(lp427
S':'
asbag69
(g90
g71
NtRp428
(dp429
g74
(dp430
sg83
g415
sg76
(lp431
g69
(g70
g71
NtRp432
(dp433
g74
(dp434
g82
I3
ssg83
g428
sg76
(lp435
S''
asbasbasbag69
(g85
g71
NtRp436
(dp437
g74
(dp438
sg83
g306
sg76
(lp439
g69
(g90
g71
NtRp440
(dp441
g74
(dp442
g94
g95
ssg83
g436
sg76
(lp443
S'secure'
p444
asbag69
(g90
g71
NtRp445
(dp446
g74
(dp447
g101
g102
ssg83
g436
sg76
(lp448
S':'
asbag69
(g90
g71
NtRp449
(dp450
g74
(dp451
sg83
g436
sg76
(lp452
g69
(g70
g71
NtRp453
(dp454
g74
(dp455
g82
I3
ssg83
g449
sg76
(lp456
S''
asbasbasbag69
(g85
g71
NtRp457
(dp458
g74
(dp459
sg83
g306
sg76
(lp460
g69
(g90
g71
NtRp461
(dp462
g74
(dp463
g94
g95
ssg83
g457
sg76
(lp464
S'version'
p465
asbag69
(g90
g71
NtRp466
(dp467
g74
(dp468
g101
g102
ssg83
g457
sg76
(lp469
S':'
asbag69
(g90
g71
NtRp470
(dp471
g74
(dp472
sg83
g457
sg76
(lp473
g69
(g70
g71
NtRp474
(dp475
g74
(dp476
g82
I3
ssg83
g470
sg76
(lp477
S''
asbasbasbasbasbasbasbag69
(g85
g71
NtRp478
(dp479
g74
(dp480
sg83
g280
sg76
(lp481
g69
(g90
g71
NtRp482
(dp483
g74
(dp484
g94
g95
ssg83
g478
sg76
(lp485
S'session_id_qsuntastebudsv2'
p486
asbag69
(g90
g71
NtRp487
(dp488
g74
(dp489
g101
g102
ssg83
g478
sg76
(lp490
S':'
asbag69
(g90
g71
NtRp491
(dp492
g74
(dp493
sg83
g478
sg76
(lp494
g69
(g70
g71
NtRp495
(dp496
g74
(dp497
g82
I4
ssg83
g491
sg76
(lp498
S'127.0.0.1-03c509ec-2cef-426f-a88b-6eb0c079c2a6'
p499
ag69
(g78
g71
NtRp500
(dp501
g74
(dp502
g82
I3
ssg83
Nsg76
(lp503
g69
(g85
g71
NtRp504
(dp505
g74
(dp506
sg83
g500
sg76
(lp507
g69
(g90
g71
NtRp508
(dp509
g74
(dp510
g94
g95
ssg83
g504
sg76
(lp511
g318
asbag69
(g90
g71
NtRp512
(dp513
g74
(dp514
g101
g102
ssg83
g504
sg76
(lp515
S':'
asbag69
(g90
g71
NtRp516
(dp517
g74
(dp518
sg83
g504
sg76
(lp519
g69
(g70
g71
NtRp520
(dp521
g74
(dp522
g82
I3
ssg83
g516
sg76
(lp523
S''
asbasbasbag69
(g85
g71
NtRp524
(dp525
g74
(dp526
sg83
g500
sg76
(lp527
g69
(g90
g71
NtRp528
(dp529
g74
(dp530
g94
g95
ssg83
g524
sg76
(lp531
g339
asbag69
(g90
g71
NtRp532
(dp533
g74
(dp534
g101
g102
ssg83
g524
sg76
(lp535
S':'
asbag69
(g90
g71
NtRp536
(dp537
g74
(dp538
sg83
g524
sg76
(lp539
g69
(g70
g71
NtRp540
(dp541
g74
(dp542
g82
I3
ssg83
g536
sg76
(lp543
S''
asbasbasbag69
(g85
g71
NtRp544
(dp545
g74
(dp546
sg83
g500
sg76
(lp547
g69
(g90
g71
NtRp548
(dp549
g74
(dp550
g94
g95
ssg83
g544
sg76
(lp551
g360
asbag69
(g90
g71
NtRp552
(dp553
g74
(dp554
g101
g102
ssg83
g544
sg76
(lp555
S':'
asbag69
(g90
g71
NtRp556
(dp557
g74
(dp558
sg83
g544
sg76
(lp559
g69
(g70
g71
NtRp560
(dp561
g74
(dp562
g82
I3
ssg83
g556
sg76
(lp563
S''
asbasbasbag69
(g85
g71
NtRp564
(dp565
g74
(dp566
sg83
g500
sg76
(lp567
g69
(g90
g71
NtRp568
(dp569
g74
(dp570
g94
g95
ssg83
g564
sg76
(lp571
g381
asbag69
(g90
g71
NtRp572
(dp573
g74
(dp574
g101
g102
ssg83
g564
sg76
(lp575
S':'
asbag69
(g90
g71
NtRp576
(dp577
g74
(dp578
sg83
g564
sg76
(lp579
g69
(g70
g71
NtRp580
(dp581
g74
(dp582
g82
I3
ssg83
g576
sg76
(lp583
S''
asbasbasbag69
(g85
g71
NtRp584
(dp585
g74
(dp586
sg83
g500
sg76
(lp587
g69
(g90
g71
NtRp588
(dp589
g74
(dp590
g94
g95
ssg83
g584
sg76
(lp591
g402
asbag69
(g90
g71
NtRp592
(dp593
g74
(dp594
g101
g102
ssg83
g584
sg76
(lp595
S':'
asbag69
(g90
g71
NtRp596
(dp597
g74
(dp598
sg83
g584
sg76
(lp599
g69
(g70
g71
NtRp600
(dp601
g74
(dp602
g82
I3
ssg83
g596
sg76
(lp603
S''
asbasbasbag69
(g85
g71
NtRp604
(dp605
g74
(dp606
sg83
g500
sg76
(lp607
g69
(g90
g71
NtRp608
(dp609
g74
(dp610
g94
g95
ssg83
g604
sg76
(lp611
g423
asbag69
(g90
g71
NtRp612
(dp613
g74
(dp614
g101
g102
ssg83
g604
sg76
(lp615
S':'
asbag69
(g90
g71
NtRp616
(dp617
g74
(dp618
sg83
g604
sg76
(lp619
g69
(g70
g71
NtRp620
(dp621
g74
(dp622
g82
I3
ssg83
g616
sg76
(lp623
S''
asbasbasbag69
(g85
g71
NtRp624
(dp625
g74
(dp626
sg83
g500
sg76
(lp627
g69
(g90
g71
NtRp628
(dp629
g74
(dp630
g94
g95
ssg83
g624
sg76
(lp631
g444
asbag69
(g90
g71
NtRp632
(dp633
g74
(dp634
g101
g102
ssg83
g624
sg76
(lp635
S':'
asbag69
(g90
g71
NtRp636
(dp637
g74
(dp638
sg83
g624
sg76
(lp639
g69
(g70
g71
NtRp640
(dp641
g74
(dp642
g82
I3
ssg83
g636
sg76
(lp643
S''
asbasbasbag69
(g85
g71
NtRp644
(dp645
g74
(dp646
sg83
g500
sg76
(lp647
g69
(g90
g71
NtRp648
(dp649
g74
(dp650
g94
g95
ssg83
g644
sg76
(lp651
g465
asbag69
(g90
g71
NtRp652
(dp653
g74
(dp654
g101
g102
ssg83
g644
sg76
(lp655
S':'
asbag69
(g90
g71
NtRp656
(dp657
g74
(dp658
sg83
g644
sg76
(lp659
g69
(g70
g71
NtRp660
(dp661
g74
(dp662
g82
I3
ssg83
g656
sg76
(lp663
S''
asbasbasbasbasbasbasbag69
(g85
g71
NtRp664
(dp665
g74
(dp666
sg83
g280
sg76
(lp667
g69
(g90
g71
NtRp668
(dp669
g74
(dp670
g94
g95
ssg83
g664
sg76
(lp671
S'session_id_welcome'
p672
asbag69
(g90
g71
NtRp673
(dp674
g74
(dp675
g101
g102
ssg83
g664
sg76
(lp676
S':'
asbag69
(g90
g71
NtRp677
(dp678
g74
(dp679
sg83
g664
sg76
(lp680
g69
(g70
g71
NtRp681
(dp682
g74
(dp683
g82
I4
ssg83
g677
sg76
(lp684
S'127.0.0.1-85cf6716-f458-4c20-b470-30e58294b230'
p685
ag69
(g78
g71
NtRp686
(dp687
g74
(dp688
g82
I3
ssg83
Nsg76
(lp689
g69
(g85
g71
NtRp690
(dp691
g74
(dp692
sg83
g686
sg76
(lp693
g69
(g90
g71
NtRp694
(dp695
g74
(dp696
g94
g95
ssg83
g690
sg76
(lp697
g318
asbag69
(g90
g71
NtRp698
(dp699
g74
(dp700
g101
g102
ssg83
g690
sg76
(lp701
S':'
asbag69
(g90
g71
NtRp702
(dp703
g74
(dp704
sg83
g690
sg76
(lp705
g69
(g70
g71
NtRp706
(dp707
g74
(dp708
g82
I3
ssg83
g702
sg76
(lp709
S''
asbasbasbag69
(g85
g71
NtRp710
(dp711
g74
(dp712
sg83
g686
sg76
(lp713
g69
(g90
g71
NtRp714
(dp715
g74
(dp716
g94
g95
ssg83
g710
sg76
(lp717
g339
asbag69
(g90
g71
NtRp718
(dp719
g74
(dp720
g101
g102
ssg83
g710
sg76
(lp721
S':'
asbag69
(g90
g71
NtRp722
(dp723
g74
(dp724
sg83
g710
sg76
(lp725
g69
(g70
g71
NtRp726
(dp727
g74
(dp728
g82
I3
ssg83
g722
sg76
(lp729
S''
asbasbasbag69
(g85
g71
NtRp730
(dp731
g74
(dp732
sg83
g686
sg76
(lp733
g69
(g90
g71
NtRp734
(dp735
g74
(dp736
g94
g95
ssg83
g730
sg76
(lp737
g360
asbag69
(g90
g71
NtRp738
(dp739
g74
(dp740
g101
g102
ssg83
g730
sg76
(lp741
S':'
asbag69
(g90
g71
NtRp742
(dp743
g74
(dp744
sg83
g730
sg76
(lp745
g69
(g70
g71
NtRp746
(dp747
g74
(dp748
g82
I3
ssg83
g742
sg76
(lp749
S''
asbasbasbag69
(g85
g71
NtRp750
(dp751
g74
(dp752
sg83
g686
sg76
(lp753
g69
(g90
g71
NtRp754
(dp755
g74
(dp756
g94
g95
ssg83
g750
sg76
(lp757
g381
asbag69
(g90
g71
NtRp758
(dp759
g74
(dp760
g101
g102
ssg83
g750
sg76
(lp761
S':'
asbag69
(g90
g71
NtRp762
(dp763
g74
(dp764
sg83
g750
sg76
(lp765
g69
(g70
g71
NtRp766
(dp767
g74
(dp768
g82
I3
ssg83
g762
sg76
(lp769
S''
asbasbasbag69
(g85
g71
NtRp770
(dp771
g74
(dp772
sg83
g686
sg76
(lp773
g69
(g90
g71
NtRp774
(dp775
g74
(dp776
g94
g95
ssg83
g770
sg76
(lp777
g402
asbag69
(g90
g71
NtRp778
(dp779
g74
(dp780
g101
g102
ssg83
g770
sg76
(lp781
S':'
asbag69
(g90
g71
NtRp782
(dp783
g74
(dp784
sg83
g770
sg76
(lp785
g69
(g70
g71
NtRp786
(dp787
g74
(dp788
g82
I3
ssg83
g782
sg76
(lp789
S''
asbasbasbag69
(g85
g71
NtRp790
(dp791
g74
(dp792
sg83
g686
sg76
(lp793
g69
(g90
g71
NtRp794
(dp795
g74
(dp796
g94
g95
ssg83
g790
sg76
(lp797
g423
asbag69
(g90
g71
NtRp798
(dp799
g74
(dp800
g101
g102
ssg83
g790
sg76
(lp801
S':'
asbag69
(g90
g71
NtRp802
(dp803
g74
(dp804
sg83
g790
sg76
(lp805
g69
(g70
g71
NtRp806
(dp807
g74
(dp808
g82
I3
ssg83
g802
sg76
(lp809
S''
asbasbasbag69
(g85
g71
NtRp810
(dp811
g74
(dp812
sg83
g686
sg76
(lp813
g69
(g90
g71
NtRp814
(dp815
g74
(dp816
g94
g95
ssg83
g810
sg76
(lp817
g444
asbag69
(g90
g71
NtRp818
(dp819
g74
(dp820
g101
g102
ssg83
g810
sg76
(lp821
S':'
asbag69
(g90
g71
NtRp822
(dp823
g74
(dp824
sg83
g810
sg76
(lp825
g69
(g70
g71
NtRp826
(dp827
g74
(dp828
g82
I3
ssg83
g822
sg76
(lp829
S''
asbasbasbag69
(g85
g71
NtRp830
(dp831
g74
(dp832
sg83
g686
sg76
(lp833
g69
(g90
g71
NtRp834
(dp835
g74
(dp836
g94
g95
ssg83
g830
sg76
(lp837
g465
asbag69
(g90
g71
NtRp838
(dp839
g74
(dp840
g101
g102
ssg83
g830
sg76
(lp841
S':'
asbag69
(g90
g71
NtRp842
(dp843
g74
(dp844
sg83
g830
sg76
(lp845
g69
(g70
g71
NtRp846
(dp847
g74
(dp848
g82
I3
ssg83
g842
sg76
(lp849
S''
asbasbasbasbasbasbasbasbasbasbasbag69
(g85
g71
NtRp850
(dp851
g74
(dp852
sg83
g79
sg76
(lp853
g69
(g90
g71
NtRp854
(dp855
g74
(dp856
g94
g95
ssg83
g850
sg76
(lp857
S'env'
p858
asbag69
(g90
g71
NtRp859
(dp860
g74
(dp861
g101
g102
ssg83
g850
sg76
(lp862
S':'
asbag69
(g90
g71
NtRp863
(dp864
g74
(dp865
sg83
g850
sg76
(lp866
g69
(g70
g71
NtRp867
(dp868
g74
(dp869
g82
I5
ssg83
g863
sg76
(lp870
g69
(g78
g71
NtRp871
(dp872
g74
(dp873
g82
I4
ssg83
Nsg76
(lp874
g69
(g85
g71
NtRp875
(dp876
g74
(dp877
sg83
g871
sg76
(lp878
g69
(g90
g71
NtRp879
(dp880
g74
(dp881
g94
g95
ssg83
g875
sg76
(lp882
S'app_folders'
p883
asbag69
(g90
g71
NtRp884
(dp885
g74
(dp886
g101
g102
ssg83
g875
sg76
(lp887
S':'
asbag69
(g90
g71
NtRp888
(dp889
g74
(dp890
sg83
g875
sg76
(lp891
g69
(g70
g71
NtRp892
(dp893
g74
(dp894
g82
I4
ssg83
g888
sg76
(lp895
S"set(['D:\\\\web2py_win\\\\web2py\\\\applications\\\\welcome\\\\', 'D:\\\\web2py_win\\\\web2py\\\\applications\\\\admin\\\\', 'D:\\\\web2py_win\\\\web2py\\\\applications\\\\QSunTasteBudsV2\\\\'])"
p896
asbasbasbag69
(g85
g71
NtRp897
(dp898
g74
(dp899
sg83
g871
sg76
(lp900
g69
(g90
g71
NtRp901
(dp902
g74
(dp903
g94
g95
ssg83
g897
sg76
(lp904
S'applications_parent'
p905
asbag69
(g90
g71
NtRp906
(dp907
g74
(dp908
g101
g102
ssg83
g897
sg76
(lp909
S':'
asbag69
(g90
g71
NtRp910
(dp911
g74
(dp912
sg83
g897
sg76
(lp913
g69
(g70
g71
NtRp914
(dp915
g74
(dp916
g82
I4
ssg83
g910
sg76
(lp917
S'D:\\web2py_win\\web2py'
p918
asbasbasbag69
(g85
g71
NtRp919
(dp920
g74
(dp921
sg83
g871
sg76
(lp922
g69
(g90
g71
NtRp923
(dp924
g74
(dp925
g94
g95
ssg83
g919
sg76
(lp926
S'cmd_args'
p927
asbag69
(g90
g71
NtRp928
(dp929
g74
(dp930
g101
g102
ssg83
g919
sg76
(lp931
S':'
asbag69
(g90
g71
NtRp932
(dp933
g74
(dp934
sg83
g919
sg76
(lp935
g69
(g70
g71
NtRp936
(dp937
g74
(dp938
g82
I4
ssg83
g932
sg76
(lp939
g69
(g78
g71
NtRp940
(dp941
g74
(dp942
g82
I3
ssg83
Nsg76
(lp943
sbasbasbasbag69
(g85
g71
NtRp944
(dp945
g74
(dp946
sg83
g871
sg76
(lp947
g69
(g90
g71
NtRp948
(dp949
g74
(dp950
g94
g95
ssg83
g944
sg76
(lp951
S'cmd_options'
p952
asbag69
(g90
g71
NtRp953
(dp954
g74
(dp955
g101
g102
ssg83
g944
sg76
(lp956
S':'
asbag69
(g90
g71
NtRp957
(dp958
g74
(dp959
sg83
g944
sg76
(lp960
g69
(g70
g71
NtRp961
(dp962
g74
(dp963
g82
I4
ssg83
g957
sg76
(lp964
S"<Values at 0x17494b8: {'verbose': False, 'ip': '127.0.0.1', 'with_scheduler': False, 'ips': [], 'shutdown_timeout': 5, 'taskbar': False, 'port': 8000, 'maxthreads': None, 'softcron': False, 'server_name': 'MICROSOF-F36848', 'bpython': False, 'nogui': False, 'nocron': False, 'extcron': False, 'run_system_tests': False, 'test': None, 'folder': 'D:\\\\web2py_win\\\\web2py', 'config': '', 'import_models': False, 'winservice': '', 'shell': None, 'run': '', 'log_filename': 'httpserver.log', 'debuglevel': 30, 'args': [''], 'socket_timeout': 5, 'ssl_ca_certificate': None, 'scheduler': None, 'profiler_filename': None, 'ssl_private_key': '', 'scheduler_groups': None, 'password': '<ask>', 'request_queue_size': 5, 'ssl_certificate': '', 'cronjob': False, 'numthreads': None, 'quiet': False, 'interfaces': None, 'minthreads': None, 'timeout': 10, 'plain': False, 'nobanner': False, 'pid_filename': 'httpserver.pid'}>"
p965
asbasbasbag69
(g85
g71
NtRp966
(dp967
g74
(dp968
sg83
g871
sg76
(lp969
g69
(g90
g71
NtRp970
(dp971
g74
(dp972
g94
g95
ssg83
g966
sg76
(lp973
S'db_sessions'
p974
asbag69
(g90
g71
NtRp975
(dp976
g74
(dp977
g101
g102
ssg83
g966
sg76
(lp978
S':'
asbag69
(g90
g71
NtRp979
(dp980
g74
(dp981
sg83
g966
sg76
(lp982
g69
(g70
g71
NtRp983
(dp984
g74
(dp985
g82
I4
ssg83
g979
sg76
(lp986
S'set([])'
p987
asbasbasbag69
(g85
g71
NtRp988
(dp989
g74
(dp990
sg83
g871
sg76
(lp991
g69
(g90
g71
NtRp992
(dp993
g74
(dp994
g94
g95
ssg83
g988
sg76
(lp995
S'debugging'
p996
asbag69
(g90
g71
NtRp997
(dp998
g74
(dp999
g101
g102
ssg83
g988
sg76
(lp1000
S':'
asbag69
(g90
g71
NtRp1001
(dp1002
g74
(dp1003
sg83
g988
sg76
(lp1004
g69
(g70
g71
NtRp1005
(dp1006
g74
(dp1007
g82
I4
ssg83
g1001
sg76
(lp1008
g112
asbasbasbag69
(g85
g71
NtRp1009
(dp1010
g74
(dp1011
sg83
g871
sg76
(lp1012
g69
(g90
g71
NtRp1013
(dp1014
g74
(dp1015
g94
g95
ssg83
g1009
sg76
(lp1016
S'gluon_parent'
p1017
asbag69
(g90
g71
NtRp1018
(dp1019
g74
(dp1020
g101
g102
ssg83
g1009
sg76
(lp1021
S':'
asbag69
(g90
g71
NtRp1022
(dp1023
g74
(dp1024
sg83
g1009
sg76
(lp1025
g69
(g70
g71
NtRp1026
(dp1027
g74
(dp1028
g82
I4
ssg83
g1022
sg76
(lp1029
S'D:\\web2py_win\\web2py'
p1030
asbasbasbag69
(g85
g71
NtRp1031
(dp1032
g74
(dp1033
sg83
g871
sg76
(lp1034
g69
(g90
g71
NtRp1035
(dp1036
g74
(dp1037
g94
g95
ssg83
g1031
sg76
(lp1038
S'http_accept'
p1039
asbag69
(g90
g71
NtRp1040
(dp1041
g74
(dp1042
g101
g102
ssg83
g1031
sg76
(lp1043
S':'
asbag69
(g90
g71
NtRp1044
(dp1045
g74
(dp1046
sg83
g1031
sg76
(lp1047
g69
(g70
g71
NtRp1048
(dp1049
g74
(dp1050
g82
I4
ssg83
g1044
sg76
(lp1051
S'image/gif, image/jpeg, image/pjpeg, image/pjpeg, application/x-shockwave-flash, application/xaml+xml, application/x-ms-xbap, application/x-ms-application, application/vnd.ms-excel, application/vnd.ms-powerpoint, application/msword, application/QVOD, application/QVOD, */*'
p1052
asbasbasbag69
(g85
g71
NtRp1053
(dp1054
g74
(dp1055
sg83
g871
sg76
(lp1056
g69
(g90
g71
NtRp1057
(dp1058
g74
(dp1059
g94
g95
ssg83
g1053
sg76
(lp1060
S'http_accept_encoding'
p1061
asbag69
(g90
g71
NtRp1062
(dp1063
g74
(dp1064
g101
g102
ssg83
g1053
sg76
(lp1065
S':'
asbag69
(g90
g71
NtRp1066
(dp1067
g74
(dp1068
sg83
g1053
sg76
(lp1069
g69
(g70
g71
NtRp1070
(dp1071
g74
(dp1072
g82
I4
ssg83
g1066
sg76
(lp1073
S'gzip, deflate'
p1074
asbasbasbag69
(g85
g71
NtRp1075
(dp1076
g74
(dp1077
sg83
g871
sg76
(lp1078
g69
(g90
g71
NtRp1079
(dp1080
g74
(dp1081
g94
g95
ssg83
g1075
sg76
(lp1082
S'http_accept_language'
p1083
asbag69
(g90
g71
NtRp1084
(dp1085
g74
(dp1086
g101
g102
ssg83
g1075
sg76
(lp1087
S':'
asbag69
(g90
g71
NtRp1088
(dp1089
g74
(dp1090
sg83
g1075
sg76
(lp1091
g69
(g70
g71
NtRp1092
(dp1093
g74
(dp1094
g82
I4
ssg83
g1088
sg76
(lp1095
S'en-US,zh-cn;q=0.5'
p1096
asbasbasbag69
(g85
g71
NtRp1097
(dp1098
g74
(dp1099
sg83
g871
sg76
(lp1100
g69
(g90
g71
NtRp1101
(dp1102
g74
(dp1103
g94
g95
ssg83
g1097
sg76
(lp1104
S'http_connection'
p1105
asbag69
(g90
g71
NtRp1106
(dp1107
g74
(dp1108
g101
g102
ssg83
g1097
sg76
(lp1109
S':'
asbag69
(g90
g71
NtRp1110
(dp1111
g74
(dp1112
sg83
g1097
sg76
(lp1113
g69
(g70
g71
NtRp1114
(dp1115
g74
(dp1116
g82
I4
ssg83
g1110
sg76
(lp1117
S'Keep-Alive'
p1118
asbasbasbag69
(g85
g71
NtRp1119
(dp1120
g74
(dp1121
sg83
g871
sg76
(lp1122
g69
(g90
g71
NtRp1123
(dp1124
g74
(dp1125
g94
g95
ssg83
g1119
sg76
(lp1126
S'http_cookie'
p1127
asbag69
(g90
g71
NtRp1128
(dp1129
g74
(dp1130
g101
g102
ssg83
g1119
sg76
(lp1131
S':'
asbag69
(g90
g71
NtRp1132
(dp1133
g74
(dp1134
sg83
g1119
sg76
(lp1135
g69
(g70
g71
NtRp1136
(dp1137
g74
(dp1138
g82
I4
ssg83
g1132
sg76
(lp1139
S'session_id_welcome=127.0.0.1-85cf6716-f458-4c20-b470-30e58294b230; session_id_admin=127.0.0.1-304ee069-1576-4fbf-bd8b-3f7ad31c7229; session_id_qsuntastebudsv2=127.0.0.1-03c509ec-2cef-426f-a88b-6eb0c079c2a6'
p1140
asbasbasbag69
(g85
g71
NtRp1141
(dp1142
g74
(dp1143
sg83
g871
sg76
(lp1144
g69
(g90
g71
NtRp1145
(dp1146
g74
(dp1147
g94
g95
ssg83
g1141
sg76
(lp1148
S'http_host'
p1149
asbag69
(g90
g71
NtRp1150
(dp1151
g74
(dp1152
g101
g102
ssg83
g1141
sg76
(lp1153
S':'
asbag69
(g90
g71
NtRp1154
(dp1155
g74
(dp1156
sg83
g1141
sg76
(lp1157
g69
(g70
g71
NtRp1158
(dp1159
g74
(dp1160
g82
I4
ssg83
g1154
sg76
(lp1161
S'127.0.0.1:8000'
p1162
asbasbasbag69
(g85
g71
NtRp1163
(dp1164
g74
(dp1165
sg83
g871
sg76
(lp1166
g69
(g90
g71
NtRp1167
(dp1168
g74
(dp1169
g94
g95
ssg83
g1163
sg76
(lp1170
S'http_referer'
p1171
asbag69
(g90
g71
NtRp1172
(dp1173
g74
(dp1174
g101
g102
ssg83
g1163
sg76
(lp1175
S':'
asbag69
(g90
g71
NtRp1176
(dp1177
g74
(dp1178
sg83
g1163
sg76
(lp1179
g69
(g70
g71
NtRp1180
(dp1181
g74
(dp1182
g82
I4
ssg83
g1176
sg76
(lp1183
S'http://127.0.0.1:8000/QSunTasteBudsV2/'
p1184
asbasbasbag69
(g85
g71
NtRp1185
(dp1186
g74
(dp1187
sg83
g871
sg76
(lp1188
g69
(g90
g71
NtRp1189
(dp1190
g74
(dp1191
g94
g95
ssg83
g1185
sg76
(lp1192
S'http_user_agent'
p1193
asbag69
(g90
g71
NtRp1194
(dp1195
g74
(dp1196
g101
g102
ssg83
g1185
sg76
(lp1197
S':'
asbag69
(g90
g71
NtRp1198
(dp1199
g74
(dp1200
sg83
g1185
sg76
(lp1201
g69
(g70
g71
NtRp1202
(dp1203
g74
(dp1204
g82
I4
ssg83
g1198
sg76
(lp1205
S'Mozilla/4.0 (compatible; MSIE 8.0; Windows NT 5.1; Trident/4.0; .NET4.0C; .NET4.0E; InfoPath.2; .NET CLR 2.0.50727; .NET CLR 3.0.04506.30)'
p1206
asbasbasbag69
(g85
g71
NtRp1207
(dp1208
g74
(dp1209
sg83
g871
sg76
(lp1210
g69
(g90
g71
NtRp1211
(dp1212
g74
(dp1213
g94
g95
ssg83
g1207
sg76
(lp1214
S'is_jython'
p1215
asbag69
(g90
g71
NtRp1216
(dp1217
g74
(dp1218
g101
g102
ssg83
g1207
sg76
(lp1219
S':'
asbag69
(g90
g71
NtRp1220
(dp1221
g74
(dp1222
sg83
g1207
sg76
(lp1223
g69
(g70
g71
NtRp1224
(dp1225
g74
(dp1226
g82
I4
ssg83
g1220
sg76
(lp1227
g112
asbasbasbag69
(g85
g71
NtRp1228
(dp1229
g74
(dp1230
sg83
g871
sg76
(lp1231
g69
(g90
g71
NtRp1232
(dp1233
g74
(dp1234
g94
g95
ssg83
g1228
sg76
(lp1235
S'is_pypy'
p1236
asbag69
(g90
g71
NtRp1237
(dp1238
g74
(dp1239
g101
g102
ssg83
g1228
sg76
(lp1240
S':'
asbag69
(g90
g71
NtRp1241
(dp1242
g74
(dp1243
sg83
g1228
sg76
(lp1244
g69
(g70
g71
NtRp1245
(dp1246
g74
(dp1247
g82
I4
ssg83
g1241
sg76
(lp1248
g112
asbasbasbag69
(g85
g71
NtRp1249
(dp1250
g74
(dp1251
sg83
g871
sg76
(lp1252
g69
(g90
g71
NtRp1253
(dp1254
g74
(dp1255
g94
g95
ssg83
g1249
sg76
(lp1256
S'path_info'
p1257
asbag69
(g90
g71
NtRp1258
(dp1259
g74
(dp1260
g101
g102
ssg83
g1249
sg76
(lp1261
S':'
asbag69
(g90
g71
NtRp1262
(dp1263
g74
(dp1264
sg83
g1249
sg76
(lp1265
g69
(g70
g71
NtRp1266
(dp1267
g74
(dp1268
g82
I4
ssg83
g1262
sg76
(lp1269
S'/QSunTasteBudsV2/default/readRecipe/5'
p1270
asbasbasbag69
(g85
g71
NtRp1271
(dp1272
g74
(dp1273
sg83
g871
sg76
(lp1274
g69
(g90
g71
NtRp1275
(dp1276
g74
(dp1277
g94
g95
ssg83
g1271
sg76
(lp1278
S'query_string'
p1279
asbag69
(g90
g71
NtRp1280
(dp1281
g74
(dp1282
g101
g102
ssg83
g1271
sg76
(lp1283
S':'
asbag69
(g90
g71
NtRp1284
(dp1285
g74
(dp1286
sg83
g1271
sg76
(lp1287
g69
(g70
g71
NtRp1288
(dp1289
g74
(dp1290
g82
I4
ssg83
g1284
sg76
(lp1291
S''
asbasbasbag69
(g85
g71
NtRp1292
(dp1293
g74
(dp1294
sg83
g871
sg76
(lp1295
g69
(g90
g71
NtRp1296
(dp1297
g74
(dp1298
g94
g95
ssg83
g1292
sg76
(lp1299
S'remote_addr'
p1300
asbag69
(g90
g71
NtRp1301
(dp1302
g74
(dp1303
g101
g102
ssg83
g1292
sg76
(lp1304
S':'
asbag69
(g90
g71
NtRp1305
(dp1306
g74
(dp1307
sg83
g1292
sg76
(lp1308
g69
(g70
g71
NtRp1309
(dp1310
g74
(dp1311
g82
I4
ssg83
g1305
sg76
(lp1312
g236
asbasbasbag69
(g85
g71
NtRp1313
(dp1314
g74
(dp1315
sg83
g871
sg76
(lp1316
g69
(g90
g71
NtRp1317
(dp1318
g74
(dp1319
g94
g95
ssg83
g1313
sg76
(lp1320
S'remote_port'
p1321
asbag69
(g90
g71
NtRp1322
(dp1323
g74
(dp1324
g101
g102
ssg83
g1313
sg76
(lp1325
S':'
asbag69
(g90
g71
NtRp1326
(dp1327
g74
(dp1328
sg83
g1313
sg76
(lp1329
g69
(g70
g71
NtRp1330
(dp1331
g74
(dp1332
g82
I4
ssg83
g1326
sg76
(lp1333
S'1406'
p1334
asbasbasbag69
(g85
g71
NtRp1335
(dp1336
g74
(dp1337
sg83
g871
sg76
(lp1338
g69
(g90
g71
NtRp1339
(dp1340
g74
(dp1341
g94
g95
ssg83
g1335
sg76
(lp1342
S'request_method'
p1343
asbag69
(g90
g71
NtRp1344
(dp1345
g74
(dp1346
g101
g102
ssg83
g1335
sg76
(lp1347
S':'
asbag69
(g90
g71
NtRp1348
(dp1349
g74
(dp1350
sg83
g1335
sg76
(lp1351
g69
(g70
g71
NtRp1352
(dp1353
g74
(dp1354
g82
I4
ssg83
g1348
sg76
(lp1355
S'GET'
p1356
asbasbasbag69
(g85
g71
NtRp1357
(dp1358
g74
(dp1359
sg83
g871
sg76
(lp1360
g69
(g90
g71
NtRp1361
(dp1362
g74
(dp1363
g94
g95
ssg83
g1357
sg76
(lp1364
S'request_uri'
p1365
asbag69
(g90
g71
NtRp1366
(dp1367
g74
(dp1368
g101
g102
ssg83
g1357
sg76
(lp1369
S':'
asbag69
(g90
g71
NtRp1370
(dp1371
g74
(dp1372
sg83
g1357
sg76
(lp1373
g69
(g70
g71
NtRp1374
(dp1375
g74
(dp1376
g82
I4
ssg83
g1370
sg76
(lp1377
g1270
asbasbasbag69
(g85
g71
NtRp1378
(dp1379
g74
(dp1380
sg83
g871
sg76
(lp1381
g69
(g90
g71
NtRp1382
(dp1383
g74
(dp1384
g94
g95
ssg83
g1378
sg76
(lp1385
S'script_name'
p1386
asbag69
(g90
g71
NtRp1387
(dp1388
g74
(dp1389
g101
g102
ssg83
g1378
sg76
(lp1390
S':'
asbag69
(g90
g71
NtRp1391
(dp1392
g74
(dp1393
sg83
g1378
sg76
(lp1394
g69
(g70
g71
NtRp1395
(dp1396
g74
(dp1397
g82
I4
ssg83
g1391
sg76
(lp1398
S''
asbasbasbag69
(g85
g71
NtRp1399
(dp1400
g74
(dp1401
sg83
g871
sg76
(lp1402
g69
(g90
g71
NtRp1403
(dp1404
g74
(dp1405
g94
g95
ssg83
g1399
sg76
(lp1406
S'server_name'
p1407
asbag69
(g90
g71
NtRp1408
(dp1409
g74
(dp1410
g101
g102
ssg83
g1399
sg76
(lp1411
S':'
asbag69
(g90
g71
NtRp1412
(dp1413
g74
(dp1414
sg83
g1399
sg76
(lp1415
g69
(g70
g71
NtRp1416
(dp1417
g74
(dp1418
g82
I4
ssg83
g1412
sg76
(lp1419
S'MICROSOF-F36848'
p1420
asbasbasbag69
(g85
g71
NtRp1421
(dp1422
g74
(dp1423
sg83
g871
sg76
(lp1424
g69
(g90
g71
NtRp1425
(dp1426
g74
(dp1427
g94
g95
ssg83
g1421
sg76
(lp1428
S'server_port'
p1429
asbag69
(g90
g71
NtRp1430
(dp1431
g74
(dp1432
g101
g102
ssg83
g1421
sg76
(lp1433
S':'
asbag69
(g90
g71
NtRp1434
(dp1435
g74
(dp1436
sg83
g1421
sg76
(lp1437
g69
(g70
g71
NtRp1438
(dp1439
g74
(dp1440
g82
I4
ssg83
g1434
sg76
(lp1441
S'8000'
p1442
asbasbasbag69
(g85
g71
NtRp1443
(dp1444
g74
(dp1445
sg83
g871
sg76
(lp1446
g69
(g90
g71
NtRp1447
(dp1448
g74
(dp1449
g94
g95
ssg83
g1443
sg76
(lp1450
S'server_protocol'
p1451
asbag69
(g90
g71
NtRp1452
(dp1453
g74
(dp1454
g101
g102
ssg83
g1443
sg76
(lp1455
S':'
asbag69
(g90
g71
NtRp1456
(dp1457
g74
(dp1458
sg83
g1443
sg76
(lp1459
g69
(g70
g71
NtRp1460
(dp1461
g74
(dp1462
g82
I4
ssg83
g1456
sg76
(lp1463
S'HTTP/1.1'
p1464
asbasbasbag69
(g85
g71
NtRp1465
(dp1466
g74
(dp1467
sg83
g871
sg76
(lp1468
g69
(g90
g71
NtRp1469
(dp1470
g74
(dp1471
g94
g95
ssg83
g1465
sg76
(lp1472
S'server_software'
p1473
asbag69
(g90
g71
NtRp1474
(dp1475
g74
(dp1476
g101
g102
ssg83
g1465
sg76
(lp1477
S':'
asbag69
(g90
g71
NtRp1478
(dp1479
g74
(dp1480
sg83
g1465
sg76
(lp1481
g69
(g70
g71
NtRp1482
(dp1483
g74
(dp1484
g82
I4
ssg83
g1478
sg76
(lp1485
S'Rocket 1.2.4'
p1486
asbasbasbag69
(g85
g71
NtRp1487
(dp1488
g74
(dp1489
sg83
g871
sg76
(lp1490
g69
(g90
g71
NtRp1491
(dp1492
g74
(dp1493
g94
g95
ssg83
g1487
sg76
(lp1494
S'web2py_crontype'
p1495
asbag69
(g90
g71
NtRp1496
(dp1497
g74
(dp1498
g101
g102
ssg83
g1487
sg76
(lp1499
S':'
asbag69
(g90
g71
NtRp1500
(dp1501
g74
(dp1502
sg83
g1487
sg76
(lp1503
g69
(g70
g71
NtRp1504
(dp1505
g74
(dp1506
g82
I4
ssg83
g1500
sg76
(lp1507
S'hard'
p1508
asbasbasbag69
(g85
g71
NtRp1509
(dp1510
g74
(dp1511
sg83
g871
sg76
(lp1512
g69
(g90
g71
NtRp1513
(dp1514
g74
(dp1515
g94
g95
ssg83
g1509
sg76
(lp1516
S'web2py_path'
p1517
asbag69
(g90
g71
NtRp1518
(dp1519
g74
(dp1520
g101
g102
ssg83
g1509
sg76
(lp1521
S':'
asbag69
(g90
g71
NtRp1522
(dp1523
g74
(dp1524
sg83
g1509
sg76
(lp1525
g69
(g70
g71
NtRp1526
(dp1527
g74
(dp1528
g82
I4
ssg83
g1522
sg76
(lp1529
g918
asbasbasbag69
(g85
g71
NtRp1530
(dp1531
g74
(dp1532
sg83
g871
sg76
(lp1533
g69
(g90
g71
NtRp1534
(dp1535
g74
(dp1536
g94
g95
ssg83
g1530
sg76
(lp1537
S'web2py_version'
p1538
asbag69
(g90
g71
NtRp1539
(dp1540
g74
(dp1541
g101
g102
ssg83
g1530
sg76
(lp1542
S':'
asbag69
(g90
g71
NtRp1543
(dp1544
g74
(dp1545
sg83
g1530
sg76
(lp1546
g69
(g70
g71
NtRp1547
(dp1548
g74
(dp1549
g82
I4
ssg83
g1543
sg76
(lp1550
g69
(g78
g71
NtRp1551
(dp1552
g74
(dp1553
g82
I3
ssg83
Nsg76
(lp1554
g69
(g85
g71
NtRp1555
(dp1556
g74
(dp1557
sg83
g1551
sg76
(lp1558
g69
(g90
g71
NtRp1559
(dp1560
g74
(dp1561
sg83
g1555
sg76
(lp1562
g69
(g70
g71
NtRp1563
(dp1564
g74
(dp1565
g82
I3
ssg83
g1559
sg76
(lp1566
S'2'
asbasbasbag69
(g85
g71
NtRp1567
(dp1568
g74
(dp1569
sg83
g1551
sg76
(lp1570
g69
(g90
g71
NtRp1571
(dp1572
g74
(dp1573
sg83
g1567
sg76
(lp1574
g69
(g70
g71
NtRp1575
(dp1576
g74
(dp1577
g82
I3
ssg83
g1571
sg76
(lp1578
S'0'
asbasbasbag69
(g85
g71
NtRp1579
(dp1580
g74
(dp1581
sg83
g1551
sg76
(lp1582
g69
(g90
g71
NtRp1583
(dp1584
g74
(dp1585
sg83
g1579
sg76
(lp1586
g69
(g70
g71
NtRp1587
(dp1588
g74
(dp1589
g82
I3
ssg83
g1583
sg76
(lp1590
S'9'
asbasbasbag69
(g85
g71
NtRp1591
(dp1592
g74
(dp1593
sg83
g1551
sg76
(lp1594
g69
(g90
g71
NtRp1595
(dp1596
g74
(dp1597
sg83
g1591
sg76
(lp1598
g69
(g70
g71
NtRp1599
(dp1600
g74
(dp1601
g82
I3
ssg83
g1595
sg76
(lp1602
S'datetime.datetime(2012, 9, 13, 23, 51, 30)'
p1603
asbasbasbag69
(g85
g71
NtRp1604
(dp1605
g74
(dp1606
sg83
g1551
sg76
(lp1607
g69
(g90
g71
NtRp1608
(dp1609
g74
(dp1610
sg83
g1604
sg76
(lp1611
g69
(g70
g71
NtRp1612
(dp1613
g74
(dp1614
g82
I3
ssg83
g1608
sg76
(lp1615
S'stable'
p1616
asbasbasbasbasbasbasbag69
(g85
g71
NtRp1617
(dp1618
g74
(dp1619
sg83
g871
sg76
(lp1620
g69
(g90
g71
NtRp1621
(dp1622
g74
(dp1623
g94
g95
ssg83
g1617
sg76
(lp1624
S'wsgi_errors'
p1625
asbag69
(g90
g71
NtRp1626
(dp1627
g74
(dp1628
g101
g102
ssg83
g1617
sg76
(lp1629
S':'
asbag69
(g90
g71
NtRp1630
(dp1631
g74
(dp1632
sg83
g1617
sg76
(lp1633
g69
(g70
g71
NtRp1634
(dp1635
g74
(dp1636
g82
I4
ssg83
g1630
sg76
(lp1637
S"<open file '<stderr>', mode 'w' at 0x009350D0>"
p1638
asbasbasbag69
(g85
g71
NtRp1639
(dp1640
g74
(dp1641
sg83
g871
sg76
(lp1642
g69
(g90
g71
NtRp1643
(dp1644
g74
(dp1645
g94
g95
ssg83
g1639
sg76
(lp1646
S'wsgi_file_wrapper'
p1647
asbag69
(g90
g71
NtRp1648
(dp1649
g74
(dp1650
g101
g102
ssg83
g1639
sg76
(lp1651
S':'
asbag69
(g90
g71
NtRp1652
(dp1653
g74
(dp1654
sg83
g1639
sg76
(lp1655
g69
(g70
g71
NtRp1656
(dp1657
g74
(dp1658
g82
I4
ssg83
g1652
sg76
(lp1659
S'<class wsgiref.util.FileWrapper at 0x016DAF10>'
p1660
asbasbasbag69
(g85
g71
NtRp1661
(dp1662
g74
(dp1663
sg83
g871
sg76
(lp1664
g69
(g90
g71
NtRp1665
(dp1666
g74
(dp1667
g94
g95
ssg83
g1661
sg76
(lp1668
S'wsgi_input'
p1669
asbag69
(g90
g71
NtRp1670
(dp1671
g74
(dp1672
g101
g102
ssg83
g1661
sg76
(lp1673
S':'
asbag69
(g90
g71
NtRp1674
(dp1675
g74
(dp1676
sg83
g1661
sg76
(lp1677
g69
(g70
g71
NtRp1678
(dp1679
g74
(dp1680
g82
I4
ssg83
g1674
sg76
(lp1681
S'<socket._fileobject object at 0x052E52F0>'
p1682
asbasbasbag69
(g85
g71
NtRp1683
(dp1684
g74
(dp1685
sg83
g871
sg76
(lp1686
g69
(g90
g71
NtRp1687
(dp1688
g74
(dp1689
g94
g95
ssg83
g1683
sg76
(lp1690
S'wsgi_multiprocess'
p1691
asbag69
(g90
g71
NtRp1692
(dp1693
g74
(dp1694
g101
g102
ssg83
g1683
sg76
(lp1695
S':'
asbag69
(g90
g71
NtRp1696
(dp1697
g74
(dp1698
sg83
g1683
sg76
(lp1699
g69
(g70
g71
NtRp1700
(dp1701
g74
(dp1702
g82
I4
ssg83
g1696
sg76
(lp1703
g112
asbasbasbag69
(g85
g71
NtRp1704
(dp1705
g74
(dp1706
sg83
g871
sg76
(lp1707
g69
(g90
g71
NtRp1708
(dp1709
g74
(dp1710
g94
g95
ssg83
g1704
sg76
(lp1711
S'wsgi_multithread'
p1712
asbag69
(g90
g71
NtRp1713
(dp1714
g74
(dp1715
g101
g102
ssg83
g1704
sg76
(lp1716
S':'
asbag69
(g90
g71
NtRp1717
(dp1718
g74
(dp1719
sg83
g1704
sg76
(lp1720
g69
(g70
g71
NtRp1721
(dp1722
g74
(dp1723
g82
I4
ssg83
g1717
sg76
(lp1724
S'True'
p1725
asbasbasbag69
(g85
g71
NtRp1726
(dp1727
g74
(dp1728
sg83
g871
sg76
(lp1729
g69
(g90
g71
NtRp1730
(dp1731
g74
(dp1732
g94
g95
ssg83
g1726
sg76
(lp1733
S'wsgi_run_once'
p1734
asbag69
(g90
g71
NtRp1735
(dp1736
g74
(dp1737
g101
g102
ssg83
g1726
sg76
(lp1738
S':'
asbag69
(g90
g71
NtRp1739
(dp1740
g74
(dp1741
sg83
g1726
sg76
(lp1742
g69
(g70
g71
NtRp1743
(dp1744
g74
(dp1745
g82
I4
ssg83
g1739
sg76
(lp1746
g112
asbasbasbag69
(g85
g71
NtRp1747
(dp1748
g74
(dp1749
sg83
g871
sg76
(lp1750
g69
(g90
g71
NtRp1751
(dp1752
g74
(dp1753
g94
g95
ssg83
g1747
sg76
(lp1754
S'wsgi_url_scheme'
p1755
asbag69
(g90
g71
NtRp1756
(dp1757
g74
(dp1758
g101
g102
ssg83
g1747
sg76
(lp1759
S':'
asbag69
(g90
g71
NtRp1760
(dp1761
g74
(dp1762
sg83
g1747
sg76
(lp1763
g69
(g70
g71
NtRp1764
(dp1765
g74
(dp1766
g82
I4
ssg83
g1760
sg76
(lp1767
S'http'
p1768
asbasbasbag69
(g85
g71
NtRp1769
(dp1770
g74
(dp1771
sg83
g871
sg76
(lp1772
g69
(g90
g71
NtRp1773
(dp1774
g74
(dp1775
g94
g95
ssg83
g1769
sg76
(lp1776
S'wsgi_version'
p1777
asbag69
(g90
g71
NtRp1778
(dp1779
g74
(dp1780
g101
g102
ssg83
g1769
sg76
(lp1781
S':'
asbag69
(g90
g71
NtRp1782
(dp1783
g74
(dp1784
sg83
g1769
sg76
(lp1785
g69
(g70
g71
NtRp1786
(dp1787
g74
(dp1788
g82
I4
ssg83
g1782
sg76
(lp1789
g69
(g78
g71
NtRp1790
(dp1791
g74
(dp1792
g82
I3
ssg83
Nsg76
(lp1793
g69
(g85
g71
NtRp1794
(dp1795
g74
(dp1796
sg83
g1790
sg76
(lp1797
g69
(g90
g71
NtRp1798
(dp1799
g74
(dp1800
sg83
g1794
sg76
(lp1801
g69
(g70
g71
NtRp1802
(dp1803
g74
(dp1804
g82
I3
ssg83
g1798
sg76
(lp1805
S'1'
asbasbasbag69
(g85
g71
NtRp1806
(dp1807
g74
(dp1808
sg83
g1790
sg76
(lp1809
g69
(g90
g71
NtRp1810
(dp1811
g74
(dp1812
sg83
g1806
sg76
(lp1813
g69
(g70
g71
NtRp1814
(dp1815
g74
(dp1816
g82
I3
ssg83
g1810
sg76
(lp1817
S'0'
asbasbasbasbasbasbasbasbasbasbasbag69
(g85
g71
NtRp1818
(dp1819
g74
(dp1820
sg83
g79
sg76
(lp1821
g69
(g90
g71
NtRp1822
(dp1823
g74
(dp1824
g94
g95
ssg83
g1818
sg76
(lp1825
S'extension'
p1826
asbag69
(g90
g71
NtRp1827
(dp1828
g74
(dp1829
g101
g102
ssg83
g1818
sg76
(lp1830
S':'
asbag69
(g90
g71
NtRp1831
(dp1832
g74
(dp1833
sg83
g1818
sg76
(lp1834
g69
(g70
g71
NtRp1835
(dp1836
g74
(dp1837
g82
I5
ssg83
g1831
sg76
(lp1838
S'html'
p1839
asbasbasbag69
(g85
g71
NtRp1840
(dp1841
g74
(dp1842
sg83
g79
sg76
(lp1843
g69
(g90
g71
NtRp1844
(dp1845
g74
(dp1846
g94
g95
ssg83
g1840
sg76
(lp1847
S'folder'
p1848
asbag69
(g90
g71
NtRp1849
(dp1850
g74
(dp1851
g101
g102
ssg83
g1840
sg76
(lp1852
S':'
asbag69
(g90
g71
NtRp1853
(dp1854
g74
(dp1855
sg83
g1840
sg76
(lp1856
g69
(g70
g71
NtRp1857
(dp1858
g74
(dp1859
g82
I5
ssg83
g1853
sg76
(lp1860
S'D:\\web2py_win\\web2py\\applications\\QSunTasteBudsV2\\'
p1861
asbasbasbag69
(g85
g71
NtRp1862
(dp1863
g74
(dp1864
sg83
g79
sg76
(lp1865
g69
(g90
g71
NtRp1866
(dp1867
g74
(dp1868
g94
g95
ssg83
g1862
sg76
(lp1869
S'function'
p1870
asbag69
(g90
g71
NtRp1871
(dp1872
g74
(dp1873
g101
g102
ssg83
g1862
sg76
(lp1874
S':'
asbag69
(g90
g71
NtRp1875
(dp1876
g74
(dp1877
sg83
g1862
sg76
(lp1878
g69
(g70
g71
NtRp1879
(dp1880
g74
(dp1881
g82
I5
ssg83
g1875
sg76
(lp1882
S'readRecipe'
p1883
asbasbasbag69
(g85
g71
NtRp1884
(dp1885
g74
(dp1886
sg83
g79
sg76
(lp1887
g69
(g90
g71
NtRp1888
(dp1889
g74
(dp1890
g94
g95
ssg83
g1884
sg76
(lp1891
S'get_vars'
p1892
asbag69
(g90
g71
NtRp1893
(dp1894
g74
(dp1895
g101
g102
ssg83
g1884
sg76
(lp1896
S':'
asbag69
(g90
g71
NtRp1897
(dp1898
g74
(dp1899
sg83
g1884
sg76
(lp1900
g69
(g70
g71
NtRp1901
(dp1902
g74
(dp1903
g82
I5
ssg83
g1897
sg76
(lp1904
g69
(g78
g71
NtRp1905
(dp1906
g74
(dp1907
g82
I4
ssg83
Nsg76
(lp1908
sbasbasbasbag69
(g85
g71
NtRp1909
(dp1910
g74
(dp1911
sg83
g79
sg76
(lp1912
g69
(g90
g71
NtRp1913
(dp1914
g74
(dp1915
g94
g95
ssg83
g1909
sg76
(lp1916
S'global_settings'
p1917
asbag69
(g90
g71
NtRp1918
(dp1919
g74
(dp1920
g101
g102
ssg83
g1909
sg76
(lp1921
S':'
asbag69
(g90
g71
NtRp1922
(dp1923
g74
(dp1924
sg83
g1909
sg76
(lp1925
g69
(g70
g71
NtRp1926
(dp1927
g74
(dp1928
g82
I5
ssg83
g1922
sg76
(lp1929
g69
(g78
g71
NtRp1930
(dp1931
g74
(dp1932
g82
I4
ssg83
Nsg76
(lp1933
g69
(g85
g71
NtRp1934
(dp1935
g74
(dp1936
sg83
g1930
sg76
(lp1937
g69
(g90
g71
NtRp1938
(dp1939
g74
(dp1940
g94
g95
ssg83
g1934
sg76
(lp1941
g883
asbag69
(g90
g71
NtRp1942
(dp1943
g74
(dp1944
g101
g102
ssg83
g1934
sg76
(lp1945
S':'
asbag69
(g90
g71
NtRp1946
(dp1947
g74
(dp1948
sg83
g1934
sg76
(lp1949
g69
(g70
g71
NtRp1950
(dp1951
g74
(dp1952
g82
I4
ssg83
g1946
sg76
(lp1953
S"set(['D:\\\\web2py_win\\\\web2py\\\\applications\\\\welcome\\\\', 'D:\\\\web2py_win\\\\web2py\\\\applications\\\\admin\\\\', 'D:\\\\web2py_win\\\\web2py\\\\applications\\\\QSunTasteBudsV2\\\\'])"
p1954
asbasbasbag69
(g85
g71
NtRp1955
(dp1956
g74
(dp1957
sg83
g1930
sg76
(lp1958
g69
(g90
g71
NtRp1959
(dp1960
g74
(dp1961
g94
g95
ssg83
g1955
sg76
(lp1962
g905
asbag69
(g90
g71
NtRp1963
(dp1964
g74
(dp1965
g101
g102
ssg83
g1955
sg76
(lp1966
S':'
asbag69
(g90
g71
NtRp1967
(dp1968
g74
(dp1969
sg83
g1955
sg76
(lp1970
g69
(g70
g71
NtRp1971
(dp1972
g74
(dp1973
g82
I4
ssg83
g1967
sg76
(lp1974
g918
asbasbasbag69
(g85
g71
NtRp1975
(dp1976
g74
(dp1977
sg83
g1930
sg76
(lp1978
g69
(g90
g71
NtRp1979
(dp1980
g74
(dp1981
g94
g95
ssg83
g1975
sg76
(lp1982
g927
asbag69
(g90
g71
NtRp1983
(dp1984
g74
(dp1985
g101
g102
ssg83
g1975
sg76
(lp1986
S':'
asbag69
(g90
g71
NtRp1987
(dp1988
g74
(dp1989
sg83
g1975
sg76
(lp1990
g69
(g70
g71
NtRp1991
(dp1992
g74
(dp1993
g82
I4
ssg83
g1987
sg76
(lp1994
g69
(g78
g71
NtRp1995
(dp1996
g74
(dp1997
g82
I3
ssg83
Nsg76
(lp1998
sbasbasbasbag69
(g85
g71
NtRp1999
(dp2000
g74
(dp2001
sg83
g1930
sg76
(lp2002
g69
(g90
g71
NtRp2003
(dp2004
g74
(dp2005
g94
g95
ssg83
g1999
sg76
(lp2006
g952
asbag69
(g90
g71
NtRp2007
(dp2008
g74
(dp2009
g101
g102
ssg83
g1999
sg76
(lp2010
S':'
asbag69
(g90
g71
NtRp2011
(dp2012
g74
(dp2013
sg83
g1999
sg76
(lp2014
g69
(g70
g71
NtRp2015
(dp2016
g74
(dp2017
g82
I4
ssg83
g2011
sg76
(lp2018
S"<Values at 0x17494b8: {'verbose': False, 'ip': '127.0.0.1', 'with_scheduler': False, 'ips': [], 'shutdown_timeout': 5, 'taskbar': False, 'port': 8000, 'maxthreads': None, 'softcron': False, 'server_name': 'MICROSOF-F36848', 'bpython': False, 'nogui': False, 'nocron': False, 'extcron': False, 'run_system_tests': False, 'test': None, 'folder': 'D:\\\\web2py_win\\\\web2py', 'config': '', 'import_models': False, 'winservice': '', 'shell': None, 'run': '', 'log_filename': 'httpserver.log', 'debuglevel': 30, 'args': [''], 'socket_timeout': 5, 'ssl_ca_certificate': None, 'scheduler': None, 'profiler_filename': None, 'ssl_private_key': '', 'scheduler_groups': None, 'password': '<ask>', 'request_queue_size': 5, 'ssl_certificate': '', 'cronjob': False, 'numthreads': None, 'quiet': False, 'interfaces': None, 'minthreads': None, 'timeout': 10, 'plain': False, 'nobanner': False, 'pid_filename': 'httpserver.pid'}>"
p2019
asbasbasbag69
(g85
g71
NtRp2020
(dp2021
g74
(dp2022
sg83
g1930
sg76
(lp2023
g69
(g90
g71
NtRp2024
(dp2025
g74
(dp2026
g94
g95
ssg83
g2020
sg76
(lp2027
g974
asbag69
(g90
g71
NtRp2028
(dp2029
g74
(dp2030
g101
g102
ssg83
g2020
sg76
(lp2031
S':'
asbag69
(g90
g71
NtRp2032
(dp2033
g74
(dp2034
sg83
g2020
sg76
(lp2035
g69
(g70
g71
NtRp2036
(dp2037
g74
(dp2038
g82
I4
ssg83
g2032
sg76
(lp2039
S'set([])'
p2040
asbasbasbag69
(g85
g71
NtRp2041
(dp2042
g74
(dp2043
sg83
g1930
sg76
(lp2044
g69
(g90
g71
NtRp2045
(dp2046
g74
(dp2047
g94
g95
ssg83
g2041
sg76
(lp2048
g996
asbag69
(g90
g71
NtRp2049
(dp2050
g74
(dp2051
g101
g102
ssg83
g2041
sg76
(lp2052
S':'
asbag69
(g90
g71
NtRp2053
(dp2054
g74
(dp2055
sg83
g2041
sg76
(lp2056
g69
(g70
g71
NtRp2057
(dp2058
g74
(dp2059
g82
I4
ssg83
g2053
sg76
(lp2060
g112
asbasbasbag69
(g85
g71
NtRp2061
(dp2062
g74
(dp2063
sg83
g1930
sg76
(lp2064
g69
(g90
g71
NtRp2065
(dp2066
g74
(dp2067
g94
g95
ssg83
g2061
sg76
(lp2068
g1017
asbag69
(g90
g71
NtRp2069
(dp2070
g74
(dp2071
g101
g102
ssg83
g2061
sg76
(lp2072
S':'
asbag69
(g90
g71
NtRp2073
(dp2074
g74
(dp2075
sg83
g2061
sg76
(lp2076
g69
(g70
g71
NtRp2077
(dp2078
g74
(dp2079
g82
I4
ssg83
g2073
sg76
(lp2080
g1030
asbasbasbag69
(g85
g71
NtRp2081
(dp2082
g74
(dp2083
sg83
g1930
sg76
(lp2084
g69
(g90
g71
NtRp2085
(dp2086
g74
(dp2087
g94
g95
ssg83
g2081
sg76
(lp2088
g1215
asbag69
(g90
g71
NtRp2089
(dp2090
g74
(dp2091
g101
g102
ssg83
g2081
sg76
(lp2092
S':'
asbag69
(g90
g71
NtRp2093
(dp2094
g74
(dp2095
sg83
g2081
sg76
(lp2096
g69
(g70
g71
NtRp2097
(dp2098
g74
(dp2099
g82
I4
ssg83
g2093
sg76
(lp2100
g112
asbasbasbag69
(g85
g71
NtRp2101
(dp2102
g74
(dp2103
sg83
g1930
sg76
(lp2104
g69
(g90
g71
NtRp2105
(dp2106
g74
(dp2107
g94
g95
ssg83
g2101
sg76
(lp2108
g1236
asbag69
(g90
g71
NtRp2109
(dp2110
g74
(dp2111
g101
g102
ssg83
g2101
sg76
(lp2112
S':'
asbag69
(g90
g71
NtRp2113
(dp2114
g74
(dp2115
sg83
g2101
sg76
(lp2116
g69
(g70
g71
NtRp2117
(dp2118
g74
(dp2119
g82
I4
ssg83
g2113
sg76
(lp2120
g112
asbasbasbag69
(g85
g71
NtRp2121
(dp2122
g74
(dp2123
sg83
g1930
sg76
(lp2124
g69
(g90
g71
NtRp2125
(dp2126
g74
(dp2127
g94
g95
ssg83
g2121
sg76
(lp2128
g1495
asbag69
(g90
g71
NtRp2129
(dp2130
g74
(dp2131
g101
g102
ssg83
g2121
sg76
(lp2132
S':'
asbag69
(g90
g71
NtRp2133
(dp2134
g74
(dp2135
sg83
g2121
sg76
(lp2136
g69
(g70
g71
NtRp2137
(dp2138
g74
(dp2139
g82
I4
ssg83
g2133
sg76
(lp2140
g1508
asbasbasbag69
(g85
g71
NtRp2141
(dp2142
g74
(dp2143
sg83
g1930
sg76
(lp2144
g69
(g90
g71
NtRp2145
(dp2146
g74
(dp2147
g94
g95
ssg83
g2141
sg76
(lp2148
g1538
asbag69
(g90
g71
NtRp2149
(dp2150
g74
(dp2151
g101
g102
ssg83
g2141
sg76
(lp2152
S':'
asbag69
(g90
g71
NtRp2153
(dp2154
g74
(dp2155
sg83
g2141
sg76
(lp2156
g69
(g70
g71
NtRp2157
(dp2158
g74
(dp2159
g82
I4
ssg83
g2153
sg76
(lp2160
g69
(g78
g71
NtRp2161
(dp2162
g74
(dp2163
g82
I3
ssg83
Nsg76
(lp2164
g69
(g85
g71
NtRp2165
(dp2166
g74
(dp2167
sg83
g2161
sg76
(lp2168
g69
(g90
g71
NtRp2169
(dp2170
g74
(dp2171
sg83
g2165
sg76
(lp2172
g69
(g70
g71
NtRp2173
(dp2174
g74
(dp2175
g82
I3
ssg83
g2169
sg76
(lp2176
S'2'
asbasbasbag69
(g85
g71
NtRp2177
(dp2178
g74
(dp2179
sg83
g2161
sg76
(lp2180
g69
(g90
g71
NtRp2181
(dp2182
g74
(dp2183
sg83
g2177
sg76
(lp2184
g69
(g70
g71
NtRp2185
(dp2186
g74
(dp2187
g82
I3
ssg83
g2181
sg76
(lp2188
S'0'
asbasbasbag69
(g85
g71
NtRp2189
(dp2190
g74
(dp2191
sg83
g2161
sg76
(lp2192
g69
(g90
g71
NtRp2193
(dp2194
g74
(dp2195
sg83
g2189
sg76
(lp2196
g69
(g70
g71
NtRp2197
(dp2198
g74
(dp2199
g82
I3
ssg83
g2193
sg76
(lp2200
S'9'
asbasbasbag69
(g85
g71
NtRp2201
(dp2202
g74
(dp2203
sg83
g2161
sg76
(lp2204
g69
(g90
g71
NtRp2205
(dp2206
g74
(dp2207
sg83
g2201
sg76
(lp2208
g69
(g70
g71
NtRp2209
(dp2210
g74
(dp2211
g82
I3
ssg83
g2205
sg76
(lp2212
S'datetime.datetime(2012, 9, 13, 23, 51, 30)'
p2213
asbasbasbag69
(g85
g71
NtRp2214
(dp2215
g74
(dp2216
sg83
g2161
sg76
(lp2217
g69
(g90
g71
NtRp2218
(dp2219
g74
(dp2220
sg83
g2214
sg76
(lp2221
g69
(g70
g71
NtRp2222
(dp2223
g74
(dp2224
g82
I3
ssg83
g2218
sg76
(lp2225
g1616
asbasbasbasbasbasbasbasbasbasbasbag69
(g85
g71
NtRp2226
(dp2227
g74
(dp2228
sg83
g79
sg76
(lp2229
g69
(g90
g71
NtRp2230
(dp2231
g74
(dp2232
g94
g95
ssg83
g2226
sg76
(lp2233
S'is_https'
p2234
asbag69
(g90
g71
NtRp2235
(dp2236
g74
(dp2237
g101
g102
ssg83
g2226
sg76
(lp2238
S':'
asbag69
(g90
g71
NtRp2239
(dp2240
g74
(dp2241
sg83
g2226
sg76
(lp2242
g69
(g70
g71
NtRp2243
(dp2244
g74
(dp2245
g82
I5
ssg83
g2239
sg76
(lp2246
g112
asbasbasbag69
(g85
g71
NtRp2247
(dp2248
g74
(dp2249
sg83
g79
sg76
(lp2250
g69
(g90
g71
NtRp2251
(dp2252
g74
(dp2253
g94
g95
ssg83
g2247
sg76
(lp2254
S'is_local'
p2255
asbag69
(g90
g71
NtRp2256
(dp2257
g74
(dp2258
g101
g102
ssg83
g2247
sg76
(lp2259
S':'
asbag69
(g90
g71
NtRp2260
(dp2261
g74
(dp2262
sg83
g2247
sg76
(lp2263
g69
(g70
g71
NtRp2264
(dp2265
g74
(dp2266
g82
I5
ssg83
g2260
sg76
(lp2267
g1725
asbasbasbag69
(g85
g71
NtRp2268
(dp2269
g74
(dp2270
sg83
g79
sg76
(lp2271
g69
(g90
g71
NtRp2272
(dp2273
g74
(dp2274
g94
g95
ssg83
g2268
sg76
(lp2275
S'is_restful'
p2276
asbag69
(g90
g71
NtRp2277
(dp2278
g74
(dp2279
g101
g102
ssg83
g2268
sg76
(lp2280
S':'
asbag69
(g90
g71
NtRp2281
(dp2282
g74
(dp2283
sg83
g2268
sg76
(lp2284
g69
(g70
g71
NtRp2285
(dp2286
g74
(dp2287
g82
I5
ssg83
g2281
sg76
(lp2288
g112
asbasbasbag69
(g85
g71
NtRp2289
(dp2290
g74
(dp2291
sg83
g79
sg76
(lp2292
g69
(g90
g71
NtRp2293
(dp2294
g74
(dp2295
g94
g95
ssg83
g2289
sg76
(lp2296
S'now'
p2297
asbag69
(g90
g71
NtRp2298
(dp2299
g74
(dp2300
g101
g102
ssg83
g2289
sg76
(lp2301
S':'
asbag69
(g90
g71
NtRp2302
(dp2303
g74
(dp2304
sg83
g2289
sg76
(lp2305
g69
(g70
g71
NtRp2306
(dp2307
g74
(dp2308
g82
I5
ssg83
g2302
sg76
(lp2309
S'datetime.datetime(2012, 11, 28, 0, 41, 1, 562000)'
p2310
asbasbasbag69
(g85
g71
NtRp2311
(dp2312
g74
(dp2313
sg83
g79
sg76
(lp2314
g69
(g90
g71
NtRp2315
(dp2316
g74
(dp2317
g94
g95
ssg83
g2311
sg76
(lp2318
S'post_vars'
p2319
asbag69
(g90
g71
NtRp2320
(dp2321
g74
(dp2322
g101
g102
ssg83
g2311
sg76
(lp2323
S':'
asbag69
(g90
g71
NtRp2324
(dp2325
g74
(dp2326
sg83
g2311
sg76
(lp2327
g69
(g70
g71
NtRp2328
(dp2329
g74
(dp2330
g82
I5
ssg83
g2324
sg76
(lp2331
g69
(g78
g71
NtRp2332
(dp2333
g74
(dp2334
g82
I4
ssg83
Nsg76
(lp2335
sbasbasbasbag69
(g85
g71
NtRp2336
(dp2337
g74
(dp2338
sg83
g79
sg76
(lp2339
g69
(g90
g71
NtRp2340
(dp2341
g74
(dp2342
g94
g95
ssg83
g2336
sg76
(lp2343
S'raw_args'
p2344
asbag69
(g90
g71
NtRp2345
(dp2346
g74
(dp2347
g101
g102
ssg83
g2336
sg76
(lp2348
S':'
asbag69
(g90
g71
NtRp2349
(dp2350
g74
(dp2351
sg83
g2336
sg76
(lp2352
g69
(g70
g71
NtRp2353
(dp2354
g74
(dp2355
g82
I5
ssg83
g2349
sg76
(lp2356
S'5'
asbasbasbag69
(g85
g71
NtRp2357
(dp2358
g74
(dp2359
sg83
g79
sg76
(lp2360
g69
(g90
g71
NtRp2361
(dp2362
g74
(dp2363
g94
g95
ssg83
g2357
sg76
(lp2364
S'raw_extension'
p2365
asbag69
(g90
g71
NtRp2366
(dp2367
g74
(dp2368
g101
g102
ssg83
g2357
sg76
(lp2369
S':'
asbag69
(g90
g71
NtRp2370
(dp2371
g74
(dp2372
sg83
g2357
sg76
(lp2373
g69
(g70
g71
NtRp2374
(dp2375
g74
(dp2376
g82
I5
ssg83
g2370
sg76
(lp2377
S'None'
p2378
asbasbasbag69
(g85
g71
NtRp2379
(dp2380
g74
(dp2381
sg83
g79
sg76
(lp2382
g69
(g90
g71
NtRp2383
(dp2384
g74
(dp2385
g94
g95
ssg83
g2379
sg76
(lp2386
S'url'
p2387
asbag69
(g90
g71
NtRp2388
(dp2389
g74
(dp2390
g101
g102
ssg83
g2379
sg76
(lp2391
S':'
asbag69
(g90
g71
NtRp2392
(dp2393
g74
(dp2394
sg83
g2379
sg76
(lp2395
g69
(g70
g71
NtRp2396
(dp2397
g74
(dp2398
g82
I5
ssg83
g2392
sg76
(lp2399
g1270
asbasbasbag69
(g85
g71
NtRp2400
(dp2401
g74
(dp2402
sg83
g79
sg76
(lp2403
g69
(g90
g71
NtRp2404
(dp2405
g74
(dp2406
g94
g95
ssg83
g2400
sg76
(lp2407
S'utcnow'
p2408
asbag69
(g90
g71
NtRp2409
(dp2410
g74
(dp2411
g101
g102
ssg83
g2400
sg76
(lp2412
S':'
asbag69
(g90
g71
NtRp2413
(dp2414
g74
(dp2415
sg83
g2400
sg76
(lp2416
g69
(g70
g71
NtRp2417
(dp2418
g74
(dp2419
g82
I5
ssg83
g2413
sg76
(lp2420
S'datetime.datetime(2012, 11, 27, 16, 41, 1, 562000)'
p2421
asbasbasbag69
(g85
g71
NtRp2422
(dp2423
g74
(dp2424
sg83
g79
sg76
(lp2425
g69
(g90
g71
NtRp2426
(dp2427
g74
(dp2428
g94
g95
ssg83
g2422
sg76
(lp2429
S'uuid'
p2430
asbag69
(g90
g71
NtRp2431
(dp2432
g74
(dp2433
g101
g102
ssg83
g2422
sg76
(lp2434
S':'
asbag69
(g90
g71
NtRp2435
(dp2436
g74
(dp2437
sg83
g2422
sg76
(lp2438
g69
(g70
g71
NtRp2439
(dp2440
g74
(dp2441
g82
I5
ssg83
g2435
sg76
(lp2442
S'QSunTasteBudsV2/127.0.0.1.2012-11-28.00-41-01.ed32573b-401d-4acc-915d-87fff3231efc'
p2443
asbasbasbag69
(g85
g71
NtRp2444
(dp2445
g74
(dp2446
sg83
g79
sg76
(lp2447
g69
(g90
g71
NtRp2448
(dp2449
g74
(dp2450
g94
g95
ssg83
g2444
sg76
(lp2451
S'vars'
p2452
asbag69
(g90
g71
NtRp2453
(dp2454
g74
(dp2455
g101
g102
ssg83
g2444
sg76
(lp2456
S':'
asbag69
(g90
g71
NtRp2457
(dp2458
g74
(dp2459
sg83
g2444
sg76
(lp2460
g69
(g70
g71
NtRp2461
(dp2462
g74
(dp2463
g82
I5
ssg83
g2457
sg76
(lp2464
g69
(g78
g71
NtRp2465
(dp2466
g74
(dp2467
g82
I4
ssg83
Nsg76
(lp2468
sbasbasbasbag69
(g85
g71
NtRp2469
(dp2470
g74
(dp2471
sg83
g79
sg76
(lp2472
g69
(g90
g71
NtRp2473
(dp2474
g74
(dp2475
g94
g95
ssg83
g2469
sg76
(lp2476
S'wsgi'
p2477
asbag69
(g90
g71
NtRp2478
(dp2479
g74
(dp2480
g101
g102
ssg83
g2469
sg76
(lp2481
S':'
asbag69
(g90
g71
NtRp2482
(dp2483
g74
(dp2484
sg83
g2469
sg76
(lp2485
g69
(g70
g71
NtRp2486
(dp2487
g74
(dp2488
g82
I5
ssg83
g2482
sg76
(lp2489
g69
(g78
g71
NtRp2490
(dp2491
g74
(dp2492
g82
I4
ssg83
Nsg76
(lp2493
g69
(g85
g71
NtRp2494
(dp2495
g74
(dp2496
sg83
g2490
sg76
(lp2497
g69
(g90
g71
NtRp2498
(dp2499
g74
(dp2500
g94
g95
ssg83
g2494
sg76
(lp2501
S'environ'
p2502
asbag69
(g90
g71
NtRp2503
(dp2504
g74
(dp2505
g101
g102
ssg83
g2494
sg76
(lp2506
S':'
asbag69
(g90
g71
NtRp2507
(dp2508
g74
(dp2509
sg83
g2494
sg76
(lp2510
g69
(g70
g71
NtRp2511
(dp2512
g74
(dp2513
g82
I4
ssg83
g2507
sg76
(lp2514
g69
(g78
g71
NtRp2515
(dp2516
g74
(dp2517
g82
I3
ssg83
Nsg76
(lp2518
g69
(g85
g71
NtRp2519
(dp2520
g74
(dp2521
sg83
g2515
sg76
(lp2522
g69
(g90
g71
NtRp2523
(dp2524
g74
(dp2525
g94
g95
ssg83
g2519
sg76
(lp2526
S'HTTP_ACCEPT'
p2527
asbag69
(g90
g71
NtRp2528
(dp2529
g74
(dp2530
g101
g102
ssg83
g2519
sg76
(lp2531
S':'
asbag69
(g90
g71
NtRp2532
(dp2533
g74
(dp2534
sg83
g2519
sg76
(lp2535
g69
(g70
g71
NtRp2536
(dp2537
g74
(dp2538
g82
I3
ssg83
g2532
sg76
(lp2539
g1052
asbasbasbag69
(g85
g71
NtRp2540
(dp2541
g74
(dp2542
sg83
g2515
sg76
(lp2543
g69
(g90
g71
NtRp2544
(dp2545
g74
(dp2546
g94
g95
ssg83
g2540
sg76
(lp2547
S'HTTP_ACCEPT_ENCODING'
p2548
asbag69
(g90
g71
NtRp2549
(dp2550
g74
(dp2551
g101
g102
ssg83
g2540
sg76
(lp2552
S':'
asbag69
(g90
g71
NtRp2553
(dp2554
g74
(dp2555
sg83
g2540
sg76
(lp2556
g69
(g70
g71
NtRp2557
(dp2558
g74
(dp2559
g82
I3
ssg83
g2553
sg76
(lp2560
g1074
asbasbasbag69
(g85
g71
NtRp2561
(dp2562
g74
(dp2563
sg83
g2515
sg76
(lp2564
g69
(g90
g71
NtRp2565
(dp2566
g74
(dp2567
g94
g95
ssg83
g2561
sg76
(lp2568
S'HTTP_ACCEPT_LANGUAGE'
p2569
asbag69
(g90
g71
NtRp2570
(dp2571
g74
(dp2572
g101
g102
ssg83
g2561
sg76
(lp2573
S':'
asbag69
(g90
g71
NtRp2574
(dp2575
g74
(dp2576
sg83
g2561
sg76
(lp2577
g69
(g70
g71
NtRp2578
(dp2579
g74
(dp2580
g82
I3
ssg83
g2574
sg76
(lp2581
g1096
asbasbasbag69
(g85
g71
NtRp2582
(dp2583
g74
(dp2584
sg83
g2515
sg76
(lp2585
g69
(g90
g71
NtRp2586
(dp2587
g74
(dp2588
g94
g95
ssg83
g2582
sg76
(lp2589
S'HTTP_CONNECTION'
p2590
asbag69
(g90
g71
NtRp2591
(dp2592
g74
(dp2593
g101
g102
ssg83
g2582
sg76
(lp2594
S':'
asbag69
(g90
g71
NtRp2595
(dp2596
g74
(dp2597
sg83
g2582
sg76
(lp2598
g69
(g70
g71
NtRp2599
(dp2600
g74
(dp2601
g82
I3
ssg83
g2595
sg76
(lp2602
g1118
asbasbasbag69
(g85
g71
NtRp2603
(dp2604
g74
(dp2605
sg83
g2515
sg76
(lp2606
g69
(g90
g71
NtRp2607
(dp2608
g74
(dp2609
g94
g95
ssg83
g2603
sg76
(lp2610
S'HTTP_COOKIE'
p2611
asbag69
(g90
g71
NtRp2612
(dp2613
g74
(dp2614
g101
g102
ssg83
g2603
sg76
(lp2615
S':'
asbag69
(g90
g71
NtRp2616
(dp2617
g74
(dp2618
sg83
g2603
sg76
(lp2619
g69
(g70
g71
NtRp2620
(dp2621
g74
(dp2622
g82
I3
ssg83
g2616
sg76
(lp2623
g1140
asbasbasbag69
(g85
g71
NtRp2624
(dp2625
g74
(dp2626
sg83
g2515
sg76
(lp2627
g69
(g90
g71
NtRp2628
(dp2629
g74
(dp2630
g94
g95
ssg83
g2624
sg76
(lp2631
S'HTTP_HOST'
p2632
asbag69
(g90
g71
NtRp2633
(dp2634
g74
(dp2635
g101
g102
ssg83
g2624
sg76
(lp2636
S':'
asbag69
(g90
g71
NtRp2637
(dp2638
g74
(dp2639
sg83
g2624
sg76
(lp2640
g69
(g70
g71
NtRp2641
(dp2642
g74
(dp2643
g82
I3
ssg83
g2637
sg76
(lp2644
g1162
asbasbasbag69
(g85
g71
NtRp2645
(dp2646
g74
(dp2647
sg83
g2515
sg76
(lp2648
g69
(g90
g71
NtRp2649
(dp2650
g74
(dp2651
g94
g95
ssg83
g2645
sg76
(lp2652
S'HTTP_REFERER'
p2653
asbag69
(g90
g71
NtRp2654
(dp2655
g74
(dp2656
g101
g102
ssg83
g2645
sg76
(lp2657
S':'
asbag69
(g90
g71
NtRp2658
(dp2659
g74
(dp2660
sg83
g2645
sg76
(lp2661
g69
(g70
g71
NtRp2662
(dp2663
g74
(dp2664
g82
I3
ssg83
g2658
sg76
(lp2665
g1184
asbasbasbag69
(g85
g71
NtRp2666
(dp2667
g74
(dp2668
sg83
g2515
sg76
(lp2669
g69
(g90
g71
NtRp2670
(dp2671
g74
(dp2672
g94
g95
ssg83
g2666
sg76
(lp2673
S'HTTP_USER_AGENT'
p2674
asbag69
(g90
g71
NtRp2675
(dp2676
g74
(dp2677
g101
g102
ssg83
g2666
sg76
(lp2678
S':'
asbag69
(g90
g71
NtRp2679
(dp2680
g74
(dp2681
sg83
g2666
sg76
(lp2682
g69
(g70
g71
NtRp2683
(dp2684
g74
(dp2685
g82
I3
ssg83
g2679
sg76
(lp2686
g1206
asbasbasbag69
(g85
g71
NtRp2687
(dp2688
g74
(dp2689
sg83
g2515
sg76
(lp2690
g69
(g90
g71
NtRp2691
(dp2692
g74
(dp2693
g94
g95
ssg83
g2687
sg76
(lp2694
S'PATH_INFO'
p2695
asbag69
(g90
g71
NtRp2696
(dp2697
g74
(dp2698
g101
g102
ssg83
g2687
sg76
(lp2699
S':'
asbag69
(g90
g71
NtRp2700
(dp2701
g74
(dp2702
sg83
g2687
sg76
(lp2703
g69
(g70
g71
NtRp2704
(dp2705
g74
(dp2706
g82
I3
ssg83
g2700
sg76
(lp2707
g1270
asbasbasbag69
(g85
g71
NtRp2708
(dp2709
g74
(dp2710
sg83
g2515
sg76
(lp2711
g69
(g90
g71
NtRp2712
(dp2713
g74
(dp2714
g94
g95
ssg83
g2708
sg76
(lp2715
S'QUERY_STRING'
p2716
asbag69
(g90
g71
NtRp2717
(dp2718
g74
(dp2719
g101
g102
ssg83
g2708
sg76
(lp2720
S':'
asbag69
(g90
g71
NtRp2721
(dp2722
g74
(dp2723
sg83
g2708
sg76
(lp2724
g69
(g70
g71
NtRp2725
(dp2726
g74
(dp2727
g82
I3
ssg83
g2721
sg76
(lp2728
S''
asbasbasbag69
(g85
g71
NtRp2729
(dp2730
g74
(dp2731
sg83
g2515
sg76
(lp2732
g69
(g90
g71
NtRp2733
(dp2734
g74
(dp2735
g94
g95
ssg83
g2729
sg76
(lp2736
S'REMOTE_ADDR'
p2737
asbag69
(g90
g71
NtRp2738
(dp2739
g74
(dp2740
g101
g102
ssg83
g2729
sg76
(lp2741
S':'
asbag69
(g90
g71
NtRp2742
(dp2743
g74
(dp2744
sg83
g2729
sg76
(lp2745
g69
(g70
g71
NtRp2746
(dp2747
g74
(dp2748
g82
I3
ssg83
g2742
sg76
(lp2749
g236
asbasbasbag69
(g85
g71
NtRp2750
(dp2751
g74
(dp2752
sg83
g2515
sg76
(lp2753
g69
(g90
g71
NtRp2754
(dp2755
g74
(dp2756
g94
g95
ssg83
g2750
sg76
(lp2757
S'REMOTE_PORT'
p2758
asbag69
(g90
g71
NtRp2759
(dp2760
g74
(dp2761
g101
g102
ssg83
g2750
sg76
(lp2762
S':'
asbag69
(g90
g71
NtRp2763
(dp2764
g74
(dp2765
sg83
g2750
sg76
(lp2766
g69
(g70
g71
NtRp2767
(dp2768
g74
(dp2769
g82
I3
ssg83
g2763
sg76
(lp2770
g1334
asbasbasbag69
(g85
g71
NtRp2771
(dp2772
g74
(dp2773
sg83
g2515
sg76
(lp2774
g69
(g90
g71
NtRp2775
(dp2776
g74
(dp2777
g94
g95
ssg83
g2771
sg76
(lp2778
S'REQUEST_METHOD'
p2779
asbag69
(g90
g71
NtRp2780
(dp2781
g74
(dp2782
g101
g102
ssg83
g2771
sg76
(lp2783
S':'
asbag69
(g90
g71
NtRp2784
(dp2785
g74
(dp2786
sg83
g2771
sg76
(lp2787
g69
(g70
g71
NtRp2788
(dp2789
g74
(dp2790
g82
I3
ssg83
g2784
sg76
(lp2791
g1356
asbasbasbag69
(g85
g71
NtRp2792
(dp2793
g74
(dp2794
sg83
g2515
sg76
(lp2795
g69
(g90
g71
NtRp2796
(dp2797
g74
(dp2798
g94
g95
ssg83
g2792
sg76
(lp2799
S'REQUEST_URI'
p2800
asbag69
(g90
g71
NtRp2801
(dp2802
g74
(dp2803
g101
g102
ssg83
g2792
sg76
(lp2804
S':'
asbag69
(g90
g71
NtRp2805
(dp2806
g74
(dp2807
sg83
g2792
sg76
(lp2808
g69
(g70
g71
NtRp2809
(dp2810
g74
(dp2811
g82
I3
ssg83
g2805
sg76
(lp2812
g1270
asbasbasbag69
(g85
g71
NtRp2813
(dp2814
g74
(dp2815
sg83
g2515
sg76
(lp2816
g69
(g90
g71
NtRp2817
(dp2818
g74
(dp2819
g94
g95
ssg83
g2813
sg76
(lp2820
S'SCRIPT_NAME'
p2821
asbag69
(g90
g71
NtRp2822
(dp2823
g74
(dp2824
g101
g102
ssg83
g2813
sg76
(lp2825
S':'
asbag69
(g90
g71
NtRp2826
(dp2827
g74
(dp2828
sg83
g2813
sg76
(lp2829
g69
(g70
g71
NtRp2830
(dp2831
g74
(dp2832
g82
I3
ssg83
g2826
sg76
(lp2833
S''
asbasbasbag69
(g85
g71
NtRp2834
(dp2835
g74
(dp2836
sg83
g2515
sg76
(lp2837
g69
(g90
g71
NtRp2838
(dp2839
g74
(dp2840
g94
g95
ssg83
g2834
sg76
(lp2841
S'SERVER_NAME'
p2842
asbag69
(g90
g71
NtRp2843
(dp2844
g74
(dp2845
g101
g102
ssg83
g2834
sg76
(lp2846
S':'
asbag69
(g90
g71
NtRp2847
(dp2848
g74
(dp2849
sg83
g2834
sg76
(lp2850
g69
(g70
g71
NtRp2851
(dp2852
g74
(dp2853
g82
I3
ssg83
g2847
sg76
(lp2854
g1420
asbasbasbag69
(g85
g71
NtRp2855
(dp2856
g74
(dp2857
sg83
g2515
sg76
(lp2858
g69
(g90
g71
NtRp2859
(dp2860
g74
(dp2861
g94
g95
ssg83
g2855
sg76
(lp2862
S'SERVER_PORT'
p2863
asbag69
(g90
g71
NtRp2864
(dp2865
g74
(dp2866
g101
g102
ssg83
g2855
sg76
(lp2867
S':'
asbag69
(g90
g71
NtRp2868
(dp2869
g74
(dp2870
sg83
g2855
sg76
(lp2871
g69
(g70
g71
NtRp2872
(dp2873
g74
(dp2874
g82
I3
ssg83
g2868
sg76
(lp2875
g1442
asbasbasbag69
(g85
g71
NtRp2876
(dp2877
g74
(dp2878
sg83
g2515
sg76
(lp2879
g69
(g90
g71
NtRp2880
(dp2881
g74
(dp2882
g94
g95
ssg83
g2876
sg76
(lp2883
S'SERVER_PROTOCOL'
p2884
asbag69
(g90
g71
NtRp2885
(dp2886
g74
(dp2887
g101
g102
ssg83
g2876
sg76
(lp2888
S':'
asbag69
(g90
g71
NtRp2889
(dp2890
g74
(dp2891
sg83
g2876
sg76
(lp2892
g69
(g70
g71
NtRp2893
(dp2894
g74
(dp2895
g82
I3
ssg83
g2889
sg76
(lp2896
g1464
asbasbasbag69
(g85
g71
NtRp2897
(dp2898
g74
(dp2899
sg83
g2515
sg76
(lp2900
g69
(g90
g71
NtRp2901
(dp2902
g74
(dp2903
g94
g95
ssg83
g2897
sg76
(lp2904
S'SERVER_SOFTWARE'
p2905
asbag69
(g90
g71
NtRp2906
(dp2907
g74
(dp2908
g101
g102
ssg83
g2897
sg76
(lp2909
S':'
asbag69
(g90
g71
NtRp2910
(dp2911
g74
(dp2912
sg83
g2897
sg76
(lp2913
g69
(g70
g71
NtRp2914
(dp2915
g74
(dp2916
g82
I3
ssg83
g2910
sg76
(lp2917
g1486
asbasbasbag69
(g85
g71
NtRp2918
(dp2919
g74
(dp2920
sg83
g2515
sg76
(lp2921
g69
(g90
g71
NtRp2922
(dp2923
g74
(dp2924
g94
g95
ssg83
g2918
sg76
(lp2925
S'wsgi.errors'
p2926
asbag69
(g90
g71
NtRp2927
(dp2928
g74
(dp2929
g101
g102
ssg83
g2918
sg76
(lp2930
S':'
asbag69
(g90
g71
NtRp2931
(dp2932
g74
(dp2933
sg83
g2918
sg76
(lp2934
g69
(g70
g71
NtRp2935
(dp2936
g74
(dp2937
g82
I3
ssg83
g2931
sg76
(lp2938
S"<open file '<stderr>', mode 'w' at 0x009350D0>"
p2939
asbasbasbag69
(g85
g71
NtRp2940
(dp2941
g74
(dp2942
sg83
g2515
sg76
(lp2943
g69
(g90
g71
NtRp2944
(dp2945
g74
(dp2946
g94
g95
ssg83
g2940
sg76
(lp2947
S'wsgi.file_wrapper'
p2948
asbag69
(g90
g71
NtRp2949
(dp2950
g74
(dp2951
g101
g102
ssg83
g2940
sg76
(lp2952
S':'
asbag69
(g90
g71
NtRp2953
(dp2954
g74
(dp2955
sg83
g2940
sg76
(lp2956
g69
(g70
g71
NtRp2957
(dp2958
g74
(dp2959
g82
I3
ssg83
g2953
sg76
(lp2960
S'<class wsgiref.util.FileWrapper at 0x016DAF10>'
p2961
asbasbasbag69
(g85
g71
NtRp2962
(dp2963
g74
(dp2964
sg83
g2515
sg76
(lp2965
g69
(g90
g71
NtRp2966
(dp2967
g74
(dp2968
g94
g95
ssg83
g2962
sg76
(lp2969
S'wsgi.input'
p2970
asbag69
(g90
g71
NtRp2971
(dp2972
g74
(dp2973
g101
g102
ssg83
g2962
sg76
(lp2974
S':'
asbag69
(g90
g71
NtRp2975
(dp2976
g74
(dp2977
sg83
g2962
sg76
(lp2978
g69
(g70
g71
NtRp2979
(dp2980
g74
(dp2981
g82
I3
ssg83
g2975
sg76
(lp2982
S'<cStringIO.StringO object at 0x045D0E80>'
p2983
asbasbasbag69
(g85
g71
NtRp2984
(dp2985
g74
(dp2986
sg83
g2515
sg76
(lp2987
g69
(g90
g71
NtRp2988
(dp2989
g74
(dp2990
g94
g95
ssg83
g2984
sg76
(lp2991
S'wsgi.multiprocess'
p2992
asbag69
(g90
g71
NtRp2993
(dp2994
g74
(dp2995
g101
g102
ssg83
g2984
sg76
(lp2996
S':'
asbag69
(g90
g71
NtRp2997
(dp2998
g74
(dp2999
sg83
g2984
sg76
(lp3000
g69
(g70
g71
NtRp3001
(dp3002
g74
(dp3003
g82
I3
ssg83
g2997
sg76
(lp3004
g112
asbasbasbag69
(g85
g71
NtRp3005
(dp3006
g74
(dp3007
sg83
g2515
sg76
(lp3008
g69
(g90
g71
NtRp3009
(dp3010
g74
(dp3011
g94
g95
ssg83
g3005
sg76
(lp3012
S'wsgi.multithread'
p3013
asbag69
(g90
g71
NtRp3014
(dp3015
g74
(dp3016
g101
g102
ssg83
g3005
sg76
(lp3017
S':'
asbag69
(g90
g71
NtRp3018
(dp3019
g74
(dp3020
sg83
g3005
sg76
(lp3021
g69
(g70
g71
NtRp3022
(dp3023
g74
(dp3024
g82
I3
ssg83
g3018
sg76
(lp3025
g1725
asbasbasbag69
(g85
g71
NtRp3026
(dp3027
g74
(dp3028
sg83
g2515
sg76
(lp3029
g69
(g90
g71
NtRp3030
(dp3031
g74
(dp3032
g94
g95
ssg83
g3026
sg76
(lp3033
S'wsgi.run_once'
p3034
asbag69
(g90
g71
NtRp3035
(dp3036
g74
(dp3037
g101
g102
ssg83
g3026
sg76
(lp3038
S':'
asbag69
(g90
g71
NtRp3039
(dp3040
g74
(dp3041
sg83
g3026
sg76
(lp3042
g69
(g70
g71
NtRp3043
(dp3044
g74
(dp3045
g82
I3
ssg83
g3039
sg76
(lp3046
g112
asbasbasbag69
(g85
g71
NtRp3047
(dp3048
g74
(dp3049
sg83
g2515
sg76
(lp3050
g69
(g90
g71
NtRp3051
(dp3052
g74
(dp3053
g94
g95
ssg83
g3047
sg76
(lp3054
S'wsgi.url_scheme'
p3055
asbag69
(g90
g71
NtRp3056
(dp3057
g74
(dp3058
g101
g102
ssg83
g3047
sg76
(lp3059
S':'
asbag69
(g90
g71
NtRp3060
(dp3061
g74
(dp3062
sg83
g3047
sg76
(lp3063
g69
(g70
g71
NtRp3064
(dp3065
g74
(dp3066
g82
I3
ssg83
g3060
sg76
(lp3067
g1768
asbasbasbag69
(g85
g71
NtRp3068
(dp3069
g74
(dp3070
sg83
g2515
sg76
(lp3071
g69
(g90
g71
NtRp3072
(dp3073
g74
(dp3074
g94
g95
ssg83
g3068
sg76
(lp3075
S'wsgi.version'
p3076
asbag69
(g90
g71
NtRp3077
(dp3078
g74
(dp3079
g101
g102
ssg83
g3068
sg76
(lp3080
S':'
asbag69
(g90
g71
NtRp3081
(dp3082
g74
(dp3083
sg83
g3068
sg76
(lp3084
g69
(g70
g71
NtRp3085
(dp3086
g74
(dp3087
g82
I3
ssg83
g3081
sg76
(lp3088
S'1'
asbasbasbasbasbasbasbasbasbasbasbasbasbsS'frames'
p3089
(lp3090
(dp3091
S'file'
p3092
S'D:\\web2py_win\\web2py\\gluon\\restricted.py'
p3093
sS'dump'
p3094
(dp3095
sS'lnum'
p3096
I208
sS'lines'
p3097
(dp3098
sS'call'
p3099
S'(code=\'response.write("<html>\\\\r\\\\n\\\\t<head>\\\\r\\\\n        <h...iv>\\\\r\\\\n    </body>\\\\r\\\\n</html>\\\\r\\\\n\\\', escape=False)\', environment={\'A\': <class \'gluon.html.A\'>, \'Auth\': <class \'gluon.tools.Auth\'>, \'B\': <class \'gluon.html.B\'>, \'BEAUTIFY\': <class \'gluon.html.BEAUTIFY\'>, \'BODY\': <class \'gluon.html.BODY\'>, \'BR\': <class \'gluon.html.BR\'>, \'BUTTON\': <class \'gluon.html.BUTTON\'>, \'CAT\': <class \'gluon.html.CAT\'>, \'CENTER\': <class \'gluon.html.CENTER\'>, \'CLEANUP\': <class \'gluon.validators.CLEANUP\'>, ...}, layer=r\'D:\\web2py_win\\web2py\\applications\\QSunTasteBudsV2\\views\\default/readRecipe.html\')'
p3100
sS'func'
p3101
S'restricted'
p3102
sa(dp3103
g3092
S'D:\\web2py_win\\web2py\\gluon\\restricted.py'
p3104
sg3094
(dp3105
sg3096
I193
sg3097
(dp3106
sg3099
S'(code=\'response.write("<html>\\\\r\\\\n\\\\t<head>\\\\r\\\\n        <h...iv>\\\\r\\\\n    </body>\\\\r\\\\n</html>\\\\r\\\\n\\\', escape=False)\', layer=r\'D:\\web2py_win\\web2py\\applications\\QSunTasteBudsV2\\views\\default/readRecipe.html\')'
p3107
sg3101
S'compile2'
p3108
sasS'pyver'
p3109
S'Python 2.7: D:\\web2py_win\\web2py\\web2py.exe'
p3110
sS'session'
p3111
g69
(g70
g71
NtRp3112
(dp3113
g74
(dp3114
sg76
(lp3115
g69
(g78
g71
NtRp3116
(dp3117
g74
(dp3118
g82
I5
ssg83
Nsg76
(lp3119
g69
(g85
g71
NtRp3120
(dp3121
g74
(dp3122
sg83
g3116
sg76
(lp3123
g69
(g90
g71
NtRp3124
(dp3125
g74
(dp3126
g94
g95
ssg83
g3120
sg76
(lp3127
S'auth'
p3128
asbag69
(g90
g71
NtRp3129
(dp3130
g74
(dp3131
g101
g102
ssg83
g3120
sg76
(lp3132
S':'
asbag69
(g90
g71
NtRp3133
(dp3134
g74
(dp3135
sg83
g3120
sg76
(lp3136
g69
(g70
g71
NtRp3137
(dp3138
g74
(dp3139
g82
I5
ssg83
g3133
sg76
(lp3140
g69
(g78
g71
NtRp3141
(dp3142
g74
(dp3143
g82
I4
ssg83
Nsg76
(lp3144
g69
(g85
g71
NtRp3145
(dp3146
g74
(dp3147
sg83
g3141
sg76
(lp3148
g69
(g90
g71
NtRp3149
(dp3150
g74
(dp3151
g94
g95
ssg83
g3145
sg76
(lp3152
S'expiration'
p3153
asbag69
(g90
g71
NtRp3154
(dp3155
g74
(dp3156
g101
g102
ssg83
g3145
sg76
(lp3157
S':'
asbag69
(g90
g71
NtRp3158
(dp3159
g74
(dp3160
sg83
g3145
sg76
(lp3161
g69
(g70
g71
NtRp3162
(dp3163
g74
(dp3164
g82
I4
ssg83
g3158
sg76
(lp3165
S'3600'
p3166
asbasbasbag69
(g85
g71
NtRp3167
(dp3168
g74
(dp3169
sg83
g3141
sg76
(lp3170
g69
(g90
g71
NtRp3171
(dp3172
g74
(dp3173
g94
g95
ssg83
g3167
sg76
(lp3174
S'hmac_key'
p3175
asbag69
(g90
g71
NtRp3176
(dp3177
g74
(dp3178
g101
g102
ssg83
g3167
sg76
(lp3179
S':'
asbag69
(g90
g71
NtRp3180
(dp3181
g74
(dp3182
sg83
g3167
sg76
(lp3183
g69
(g70
g71
NtRp3184
(dp3185
g74
(dp3186
g82
I4
ssg83
g3180
sg76
(lp3187
S'a649bf08-64dc-4881-8095-2d090430acf2'
p3188
asbasbasbag69
(g85
g71
NtRp3189
(dp3190
g74
(dp3191
sg83
g3141
sg76
(lp3192
g69
(g90
g71
NtRp3193
(dp3194
g74
(dp3195
g94
g95
ssg83
g3189
sg76
(lp3196
S'last_visit'
p3197
asbag69
(g90
g71
NtRp3198
(dp3199
g74
(dp3200
g101
g102
ssg83
g3189
sg76
(lp3201
S':'
asbag69
(g90
g71
NtRp3202
(dp3203
g74
(dp3204
sg83
g3189
sg76
(lp3205
g69
(g70
g71
NtRp3206
(dp3207
g74
(dp3208
g82
I4
ssg83
g3202
sg76
(lp3209
S'datetime.datetime(2012, 11, 28, 0, 36, 40, 968000)'
p3210
asbasbasbag69
(g85
g71
NtRp3211
(dp3212
g74
(dp3213
sg83
g3141
sg76
(lp3214
g69
(g90
g71
NtRp3215
(dp3216
g74
(dp3217
g94
g95
ssg83
g3211
sg76
(lp3218
S'remember'
p3219
asbag69
(g90
g71
NtRp3220
(dp3221
g74
(dp3222
g101
g102
ssg83
g3211
sg76
(lp3223
S':'
asbag69
(g90
g71
NtRp3224
(dp3225
g74
(dp3226
sg83
g3211
sg76
(lp3227
g69
(g70
g71
NtRp3228
(dp3229
g74
(dp3230
g82
I4
ssg83
g3224
sg76
(lp3231
g112
asbasbasbag69
(g85
g71
NtRp3232
(dp3233
g74
(dp3234
sg83
g3141
sg76
(lp3235
g69
(g90
g71
NtRp3236
(dp3237
g74
(dp3238
g94
g95
ssg83
g3232
sg76
(lp3239
S'user'
p3240
asbag69
(g90
g71
NtRp3241
(dp3242
g74
(dp3243
g101
g102
ssg83
g3232
sg76
(lp3244
S':'
asbag69
(g90
g71
NtRp3245
(dp3246
g74
(dp3247
sg83
g3232
sg76
(lp3248
g69
(g70
g71
NtRp3249
(dp3250
g74
(dp3251
g82
I4
ssg83
g3245
sg76
(lp3252
g69
(g78
g71
NtRp3253
(dp3254
g74
(dp3255
g82
I3
ssg83
Nsg76
(lp3256
g69
(g85
g71
NtRp3257
(dp3258
g74
(dp3259
sg83
g3253
sg76
(lp3260
g69
(g90
g71
NtRp3261
(dp3262
g74
(dp3263
g94
g95
ssg83
g3257
sg76
(lp3264
S'email'
p3265
asbag69
(g90
g71
NtRp3266
(dp3267
g74
(dp3268
g101
g102
ssg83
g3257
sg76
(lp3269
S':'
asbag69
(g90
g71
NtRp3270
(dp3271
g74
(dp3272
sg83
g3257
sg76
(lp3273
g69
(g70
g71
NtRp3274
(dp3275
g74
(dp3276
g82
I3
ssg83
g3270
sg76
(lp3277
S'sunqiansun@hotmail.com'
p3278
asbasbasbag69
(g85
g71
NtRp3279
(dp3280
g74
(dp3281
sg83
g3253
sg76
(lp3282
g69
(g90
g71
NtRp3283
(dp3284
g74
(dp3285
g94
g95
ssg83
g3279
sg76
(lp3286
S'first_name'
p3287
asbag69
(g90
g71
NtRp3288
(dp3289
g74
(dp3290
g101
g102
ssg83
g3279
sg76
(lp3291
S':'
asbag69
(g90
g71
NtRp3292
(dp3293
g74
(dp3294
sg83
g3279
sg76
(lp3295
g69
(g70
g71
NtRp3296
(dp3297
g74
(dp3298
g82
I3
ssg83
g3292
sg76
(lp3299
S'Qian'
p3300
asbasbasbag69
(g85
g71
NtRp3301
(dp3302
g74
(dp3303
sg83
g3253
sg76
(lp3304
g69
(g90
g71
NtRp3305
(dp3306
g74
(dp3307
g94
g95
ssg83
g3301
sg76
(lp3308
S'id'
p3309
asbag69
(g90
g71
NtRp3310
(dp3311
g74
(dp3312
g101
g102
ssg83
g3301
sg76
(lp3313
S':'
asbag69
(g90
g71
NtRp3314
(dp3315
g74
(dp3316
sg83
g3301
sg76
(lp3317
g69
(g70
g71
NtRp3318
(dp3319
g74
(dp3320
g82
I3
ssg83
g3314
sg76
(lp3321
S'1'
asbasbasbag69
(g85
g71
NtRp3322
(dp3323
g74
(dp3324
sg83
g3253
sg76
(lp3325
g69
(g90
g71
NtRp3326
(dp3327
g74
(dp3328
g94
g95
ssg83
g3322
sg76
(lp3329
S'last_name'
p3330
asbag69
(g90
g71
NtRp3331
(dp3332
g74
(dp3333
g101
g102
ssg83
g3322
sg76
(lp3334
S':'
asbag69
(g90
g71
NtRp3335
(dp3336
g74
(dp3337
sg83
g3322
sg76
(lp3338
g69
(g70
g71
NtRp3339
(dp3340
g74
(dp3341
g82
I3
ssg83
g3335
sg76
(lp3342
S'Sun'
p3343
asbasbasbag69
(g85
g71
NtRp3344
(dp3345
g74
(dp3346
sg83
g3253
sg76
(lp3347
g69
(g90
g71
NtRp3348
(dp3349
g74
(dp3350
g94
g95
ssg83
g3344
sg76
(lp3351
S'password'
p3352
asbag69
(g90
g71
NtRp3353
(dp3354
g74
(dp3355
g101
g102
ssg83
g3344
sg76
(lp3356
S':'
asbag69
(g90
g71
NtRp3357
(dp3358
g74
(dp3359
sg83
g3344
sg76
(lp3360
g69
(g70
g71
NtRp3361
(dp3362
g74
(dp3363
g82
I3
ssg83
g3357
sg76
(lp3364
S'pbkdf2(1000,20,sha512)$a46998f5dc55594e$bbdc84ad7d4fc987637a2565d94371214b8404fe'
p3365
asbasbasbag69
(g85
g71
NtRp3366
(dp3367
g74
(dp3368
sg83
g3253
sg76
(lp3369
g69
(g90
g71
NtRp3370
(dp3371
g74
(dp3372
g94
g95
ssg83
g3366
sg76
(lp3373
S'registration_id'
p3374
asbag69
(g90
g71
NtRp3375
(dp3376
g74
(dp3377
g101
g102
ssg83
g3366
sg76
(lp3378
S':'
asbag69
(g90
g71
NtRp3379
(dp3380
g74
(dp3381
sg83
g3366
sg76
(lp3382
g69
(g70
g71
NtRp3383
(dp3384
g74
(dp3385
g82
I3
ssg83
g3379
sg76
(lp3386
S''
asbasbasbag69
(g85
g71
NtRp3387
(dp3388
g74
(dp3389
sg83
g3253
sg76
(lp3390
g69
(g90
g71
NtRp3391
(dp3392
g74
(dp3393
g94
g95
ssg83
g3387
sg76
(lp3394
S'registration_key'
p3395
asbag69
(g90
g71
NtRp3396
(dp3397
g74
(dp3398
g101
g102
ssg83
g3387
sg76
(lp3399
S':'
asbag69
(g90
g71
NtRp3400
(dp3401
g74
(dp3402
sg83
g3387
sg76
(lp3403
g69
(g70
g71
NtRp3404
(dp3405
g74
(dp3406
g82
I3
ssg83
g3400
sg76
(lp3407
S''
asbasbasbag69
(g85
g71
NtRp3408
(dp3409
g74
(dp3410
sg83
g3253
sg76
(lp3411
g69
(g90
g71
NtRp3412
(dp3413
g74
(dp3414
g94
g95
ssg83
g3408
sg76
(lp3415
S'reset_password_key'
p3416
asbag69
(g90
g71
NtRp3417
(dp3418
g74
(dp3419
g101
g102
ssg83
g3408
sg76
(lp3420
S':'
asbag69
(g90
g71
NtRp3421
(dp3422
g74
(dp3423
sg83
g3408
sg76
(lp3424
g69
(g70
g71
NtRp3425
(dp3426
g74
(dp3427
g82
I3
ssg83
g3421
sg76
(lp3428
S''
asbasbasbasbasbasbasbag69
(g85
g71
NtRp3429
(dp3430
g74
(dp3431
sg83
g3141
sg76
(lp3432
g69
(g90
g71
NtRp3433
(dp3434
g74
(dp3435
g94
g95
ssg83
g3429
sg76
(lp3436
S'user_groups'
p3437
asbag69
(g90
g71
NtRp3438
(dp3439
g74
(dp3440
g101
g102
ssg83
g3429
sg76
(lp3441
S':'
asbag69
(g90
g71
NtRp3442
(dp3443
g74
(dp3444
sg83
g3429
sg76
(lp3445
g69
(g70
g71
NtRp3446
(dp3447
g74
(dp3448
g82
I4
ssg83
g3442
sg76
(lp3449
g69
(g78
g71
NtRp3450
(dp3451
g74
(dp3452
g82
I3
ssg83
Nsg76
(lp3453
g69
(g85
g71
NtRp3454
(dp3455
g74
(dp3456
sg83
g3450
sg76
(lp3457
g69
(g90
g71
NtRp3458
(dp3459
g74
(dp3460
g94
g95
ssg83
g3454
sg76
(lp3461
S'1'
asbag69
(g90
g71
NtRp3462
(dp3463
g74
(dp3464
g101
g102
ssg83
g3454
sg76
(lp3465
S':'
asbag69
(g90
g71
NtRp3466
(dp3467
g74
(dp3468
sg83
g3454
sg76
(lp3469
g69
(g70
g71
NtRp3470
(dp3471
g74
(dp3472
g82
I3
ssg83
g3466
sg76
(lp3473
S'user_1'
p3474
asbasbasbasbasbasbasbasbasbasbasbag69
(g85
g71
NtRp3475
(dp3476
g74
(dp3477
sg83
g3116
sg76
(lp3478
g69
(g90
g71
NtRp3479
(dp3480
g74
(dp3481
g94
g95
ssg83
g3475
sg76
(lp3482
S'currentRecipe'
p3483
asbag69
(g90
g71
NtRp3484
(dp3485
g74
(dp3486
g101
g102
ssg83
g3475
sg76
(lp3487
S':'
asbag69
(g90
g71
NtRp3488
(dp3489
g74
(dp3490
sg83
g3475
sg76
(lp3491
g69
(g70
g71
NtRp3492
(dp3493
g74
(dp3494
g82
I5
ssg83
g3488
sg76
(lp3495
S'5'
asbasbasbag69
(g85
g71
NtRp3496
(dp3497
g74
(dp3498
sg83
g3116
sg76
(lp3499
g69
(g90
g71
NtRp3500
(dp3501
g74
(dp3502
g94
g95
ssg83
g3496
sg76
(lp3503
S'flash'
p3504
asbag69
(g90
g71
NtRp3505
(dp3506
g74
(dp3507
g101
g102
ssg83
g3496
sg76
(lp3508
S':'
asbag69
(g90
g71
NtRp3509
(dp3510
g74
(dp3511
sg83
g3496
sg76
(lp3512
g69
(g70
g71
NtRp3513
(dp3514
g74
(dp3515
g82
I5
ssg83
g3509
sg76
(lp3516
S'None'
p3517
asbasbasbag69
(g85
g71
NtRp3518
(dp3519
g74
(dp3520
sg83
g3116
sg76
(lp3521
g69
(g90
g71
NtRp3522
(dp3523
g74
(dp3524
g94
g95
ssg83
g3518
sg76
(lp3525
S'last_orderby'
p3526
asbag69
(g90
g71
NtRp3527
(dp3528
g74
(dp3529
g101
g102
ssg83
g3518
sg76
(lp3530
S':'
asbag69
(g90
g71
NtRp3531
(dp3532
g74
(dp3533
sg83
g3518
sg76
(lp3534
g69
(g70
g71
NtRp3535
(dp3536
g74
(dp3537
g82
I5
ssg83
g3531
sg76
(lp3538
S'None'
p3539
asbasbasbag69
(g85
g71
NtRp3540
(dp3541
g74
(dp3542
sg83
g3116
sg76
(lp3543
g69
(g90
g71
NtRp3544
(dp3545
g74
(dp3546
g94
g95
ssg83
g3540
sg76
(lp3547
S'last_query'
p3548
asbag69
(g90
g71
NtRp3549
(dp3550
g74
(dp3551
g101
g102
ssg83
g3540
sg76
(lp3552
S':'
asbag69
(g90
g71
NtRp3553
(dp3554
g74
(dp3555
sg83
g3540
sg76
(lp3556
g69
(g70
g71
NtRp3557
(dp3558
g74
(dp3559
g82
I5
ssg83
g3553
sg76
(lp3560
S'db.comments.id>0'
p3561
asbasbasbag69
(g85
g71
NtRp3562
(dp3563
g74
(dp3564
sg83
g3116
sg76
(lp3565
g69
(g90
g71
NtRp3566
(dp3567
g74
(dp3568
g94
g95
ssg83
g3562
sg76
(lp3569
S'owner'
p3570
asbag69
(g90
g71
NtRp3571
(dp3572
g74
(dp3573
g101
g102
ssg83
g3562
sg76
(lp3574
S':'
asbag69
(g90
g71
NtRp3575
(dp3576
g74
(dp3577
sg83
g3562
sg76
(lp3578
g69
(g70
g71
NtRp3579
(dp3580
g74
(dp3581
g82
I5
ssg83
g3575
sg76
(lp3582
S'You Folks'
p3583
asbasbasbag69
(g85
g71
NtRp3584
(dp3585
g74
(dp3586
sg83
g3116
sg76
(lp3587
g69
(g90
g71
NtRp3588
(dp3589
g74
(dp3590
g94
g95
ssg83
g3584
sg76
(lp3591
S'title'
p3592
asbag69
(g90
g71
NtRp3593
(dp3594
g74
(dp3595
g101
g102
ssg83
g3584
sg76
(lp3596
S':'
asbag69
(g90
g71
NtRp3597
(dp3598
g74
(dp3599
sg83
g3584
sg76
(lp3600
g69
(g70
g71
NtRp3601
(dp3602
g74
(dp3603
g82
I5
ssg83
g3597
sg76
(lp3604
S'Clam Chowder'
p3605
asbasbasbasbasbsS'etype'
p3606
S"<type 'exceptions.SyntaxError'>"
p3607
sS'date'
p3608
S'Wed Nov 28 00:41:01 2012'
p3609
sS'response'
p3610
g69
(g70
g71
NtRp3611
(dp3612
g74
(dp3613
sg76
(lp3614
g69
(g78
g71
NtRp3615
(dp3616
g74
(dp3617
g82
I5
ssg83
Nsg76
(lp3618
g69
(g85
g71
NtRp3619
(dp3620
g74
(dp3621
sg83
g3615
sg76
(lp3622
g69
(g90
g71
NtRp3623
(dp3624
g74
(dp3625
g94
g95
ssg83
g3619
sg76
(lp3626
g179
asbag69
(g90
g71
NtRp3627
(dp3628
g74
(dp3629
g101
g102
ssg83
g3619
sg76
(lp3630
S':'
asbag69
(g90
g71
NtRp3631
(dp3632
g74
(dp3633
sg83
g3619
sg76
(lp3634
g69
(g70
g71
NtRp3635
(dp3636
g74
(dp3637
g82
I5
ssg83
g3631
sg76
(lp3638
S'<cStringIO.StringO object at 0x040DDAC0>'
p3639
asbasbasbag69
(g85
g71
NtRp3640
(dp3641
g74
(dp3642
sg83
g3615
sg76
(lp3643
g69
(g90
g71
NtRp3644
(dp3645
g74
(dp3646
g94
g95
ssg83
g3640
sg76
(lp3647
g267
asbag69
(g90
g71
NtRp3648
(dp3649
g74
(dp3650
g101
g102
ssg83
g3640
sg76
(lp3651
S':'
asbag69
(g90
g71
NtRp3652
(dp3653
g74
(dp3654
sg83
g3640
sg76
(lp3655
g69
(g70
g71
NtRp3656
(dp3657
g74
(dp3658
g82
I5
ssg83
g3652
sg76
(lp3659
g69
(g78
g71
NtRp3660
(dp3661
g74
(dp3662
g82
I4
ssg83
Nsg76
(lp3663
g69
(g85
g71
NtRp3664
(dp3665
g74
(dp3666
sg83
g3660
sg76
(lp3667
g69
(g90
g71
NtRp3668
(dp3669
g74
(dp3670
g94
g95
ssg83
g3664
sg76
(lp3671
S'session_id_qsuntastebudsv2'
p3672
asbag69
(g90
g71
NtRp3673
(dp3674
g74
(dp3675
g101
g102
ssg83
g3664
sg76
(lp3676
S':'
asbag69
(g90
g71
NtRp3677
(dp3678
g74
(dp3679
sg83
g3664
sg76
(lp3680
g69
(g70
g71
NtRp3681
(dp3682
g74
(dp3683
g82
I4
ssg83
g3677
sg76
(lp3684
g499
ag69
(g78
g71
NtRp3685
(dp3686
g74
(dp3687
g82
I3
ssg83
Nsg76
(lp3688
g69
(g85
g71
NtRp3689
(dp3690
g74
(dp3691
sg83
g3685
sg76
(lp3692
g69
(g90
g71
NtRp3693
(dp3694
g74
(dp3695
g94
g95
ssg83
g3689
sg76
(lp3696
g318
asbag69
(g90
g71
NtRp3697
(dp3698
g74
(dp3699
g101
g102
ssg83
g3689
sg76
(lp3700
S':'
asbag69
(g90
g71
NtRp3701
(dp3702
g74
(dp3703
sg83
g3689
sg76
(lp3704
g69
(g70
g71
NtRp3705
(dp3706
g74
(dp3707
g82
I3
ssg83
g3701
sg76
(lp3708
S''
asbasbasbag69
(g85
g71
NtRp3709
(dp3710
g74
(dp3711
sg83
g3685
sg76
(lp3712
g69
(g90
g71
NtRp3713
(dp3714
g74
(dp3715
g94
g95
ssg83
g3709
sg76
(lp3716
g339
asbag69
(g90
g71
NtRp3717
(dp3718
g74
(dp3719
g101
g102
ssg83
g3709
sg76
(lp3720
S':'
asbag69
(g90
g71
NtRp3721
(dp3722
g74
(dp3723
sg83
g3709
sg76
(lp3724
g69
(g70
g71
NtRp3725
(dp3726
g74
(dp3727
g82
I3
ssg83
g3721
sg76
(lp3728
S''
asbasbasbag69
(g85
g71
NtRp3729
(dp3730
g74
(dp3731
sg83
g3685
sg76
(lp3732
g69
(g90
g71
NtRp3733
(dp3734
g74
(dp3735
g94
g95
ssg83
g3729
sg76
(lp3736
g360
asbag69
(g90
g71
NtRp3737
(dp3738
g74
(dp3739
g101
g102
ssg83
g3729
sg76
(lp3740
S':'
asbag69
(g90
g71
NtRp3741
(dp3742
g74
(dp3743
sg83
g3729
sg76
(lp3744
g69
(g70
g71
NtRp3745
(dp3746
g74
(dp3747
g82
I3
ssg83
g3741
sg76
(lp3748
S''
asbasbasbag69
(g85
g71
NtRp3749
(dp3750
g74
(dp3751
sg83
g3685
sg76
(lp3752
g69
(g90
g71
NtRp3753
(dp3754
g74
(dp3755
g94
g95
ssg83
g3749
sg76
(lp3756
g381
asbag69
(g90
g71
NtRp3757
(dp3758
g74
(dp3759
g101
g102
ssg83
g3749
sg76
(lp3760
S':'
asbag69
(g90
g71
NtRp3761
(dp3762
g74
(dp3763
sg83
g3749
sg76
(lp3764
g69
(g70
g71
NtRp3765
(dp3766
g74
(dp3767
g82
I3
ssg83
g3761
sg76
(lp3768
S''
asbasbasbag69
(g85
g71
NtRp3769
(dp3770
g74
(dp3771
sg83
g3685
sg76
(lp3772
g69
(g90
g71
NtRp3773
(dp3774
g74
(dp3775
g94
g95
ssg83
g3769
sg76
(lp3776
g402
asbag69
(g90
g71
NtRp3777
(dp3778
g74
(dp3779
g101
g102
ssg83
g3769
sg76
(lp3780
S':'
asbag69
(g90
g71
NtRp3781
(dp3782
g74
(dp3783
sg83
g3769
sg76
(lp3784
g69
(g70
g71
NtRp3785
(dp3786
g74
(dp3787
g82
I3
ssg83
g3781
sg76
(lp3788
S''
asbasbasbag69
(g85
g71
NtRp3789
(dp3790
g74
(dp3791
sg83
g3685
sg76
(lp3792
g69
(g90
g71
NtRp3793
(dp3794
g74
(dp3795
g94
g95
ssg83
g3789
sg76
(lp3796
g423
asbag69
(g90
g71
NtRp3797
(dp3798
g74
(dp3799
g101
g102
ssg83
g3789
sg76
(lp3800
S':'
asbag69
(g90
g71
NtRp3801
(dp3802
g74
(dp3803
sg83
g3789
sg76
(lp3804
g69
(g70
g71
NtRp3805
(dp3806
g74
(dp3807
g82
I3
ssg83
g3801
sg76
(lp3808
S'/'
asbasbasbag69
(g85
g71
NtRp3809
(dp3810
g74
(dp3811
sg83
g3685
sg76
(lp3812
g69
(g90
g71
NtRp3813
(dp3814
g74
(dp3815
g94
g95
ssg83
g3809
sg76
(lp3816
g444
asbag69
(g90
g71
NtRp3817
(dp3818
g74
(dp3819
g101
g102
ssg83
g3809
sg76
(lp3820
S':'
asbag69
(g90
g71
NtRp3821
(dp3822
g74
(dp3823
sg83
g3809
sg76
(lp3824
g69
(g70
g71
NtRp3825
(dp3826
g74
(dp3827
g82
I3
ssg83
g3821
sg76
(lp3828
S''
asbasbasbag69
(g85
g71
NtRp3829
(dp3830
g74
(dp3831
sg83
g3685
sg76
(lp3832
g69
(g90
g71
NtRp3833
(dp3834
g74
(dp3835
g94
g95
ssg83
g3829
sg76
(lp3836
g465
asbag69
(g90
g71
NtRp3837
(dp3838
g74
(dp3839
g101
g102
ssg83
g3829
sg76
(lp3840
S':'
asbag69
(g90
g71
NtRp3841
(dp3842
g74
(dp3843
sg83
g3829
sg76
(lp3844
g69
(g70
g71
NtRp3845
(dp3846
g74
(dp3847
g82
I3
ssg83
g3841
sg76
(lp3848
S''
asbasbasbasbasbasbasbasbasbasbasbag69
(g85
g71
NtRp3849
(dp3850
g74
(dp3851
sg83
g3615
sg76
(lp3852
g69
(g90
g71
NtRp3853
(dp3854
g74
(dp3855
g94
g95
ssg83
g3849
sg76
(lp3856
S'delimiters'
p3857
asbag69
(g90
g71
NtRp3858
(dp3859
g74
(dp3860
g101
g102
ssg83
g3849
sg76
(lp3861
S':'
asbag69
(g90
g71
NtRp3862
(dp3863
g74
(dp3864
sg83
g3849
sg76
(lp3865
g69
(g70
g71
NtRp3866
(dp3867
g74
(dp3868
g82
I5
ssg83
g3862
sg76
(lp3869
g69
(g78
g71
NtRp3870
(dp3871
g74
(dp3872
g82
I4
ssg83
Nsg76
(lp3873
g69
(g85
g71
NtRp3874
(dp3875
g74
(dp3876
sg83
g3870
sg76
(lp3877
g69
(g90
g71
NtRp3878
(dp3879
g74
(dp3880
sg83
g3874
sg76
(lp3881
g69
(g70
g71
NtRp3882
(dp3883
g74
(dp3884
g82
I4
ssg83
g3878
sg76
(lp3885
S'{{'
p3886
asbasbasbag69
(g85
g71
NtRp3887
(dp3888
g74
(dp3889
sg83
g3870
sg76
(lp3890
g69
(g90
g71
NtRp3891
(dp3892
g74
(dp3893
sg83
g3887
sg76
(lp3894
g69
(g70
g71
NtRp3895
(dp3896
g74
(dp3897
g82
I4
ssg83
g3891
sg76
(lp3898
S'}}'
p3899
asbasbasbasbasbasbasbag69
(g85
g71
NtRp3900
(dp3901
g74
(dp3902
sg83
g3615
sg76
(lp3903
g69
(g90
g71
NtRp3904
(dp3905
g74
(dp3906
g94
g95
ssg83
g3900
sg76
(lp3907
S'files'
p3908
asbag69
(g90
g71
NtRp3909
(dp3910
g74
(dp3911
g101
g102
ssg83
g3900
sg76
(lp3912
S':'
asbag69
(g90
g71
NtRp3913
(dp3914
g74
(dp3915
sg83
g3900
sg76
(lp3916
g69
(g70
g71
NtRp3917
(dp3918
g74
(dp3919
g82
I5
ssg83
g3913
sg76
(lp3920
g69
(g78
g71
NtRp3921
(dp3922
g74
(dp3923
g82
I4
ssg83
Nsg76
(lp3924
sbasbasbasbag69
(g85
g71
NtRp3925
(dp3926
g74
(dp3927
sg83
g3615
sg76
(lp3928
g69
(g90
g71
NtRp3929
(dp3930
g74
(dp3931
g94
g95
ssg83
g3925
sg76
(lp3932
S'flash'
p3933
asbag69
(g90
g71
NtRp3934
(dp3935
g74
(dp3936
g101
g102
ssg83
g3925
sg76
(lp3937
S':'
asbag69
(g90
g71
NtRp3938
(dp3939
g74
(dp3940
sg83
g3925
sg76
(lp3941
g69
(g70
g71
NtRp3942
(dp3943
g74
(dp3944
g82
I5
ssg83
g3938
sg76
(lp3945
S''
asbasbasbag69
(g85
g71
NtRp3946
(dp3947
g74
(dp3948
sg83
g3615
sg76
(lp3949
g69
(g90
g71
NtRp3950
(dp3951
g74
(dp3952
g94
g95
ssg83
g3946
sg76
(lp3953
S'generic_patterns'
p3954
asbag69
(g90
g71
NtRp3955
(dp3956
g74
(dp3957
g101
g102
ssg83
g3946
sg76
(lp3958
S':'
asbag69
(g90
g71
NtRp3959
(dp3960
g74
(dp3961
sg83
g3946
sg76
(lp3962
g69
(g70
g71
NtRp3963
(dp3964
g74
(dp3965
g82
I5
ssg83
g3959
sg76
(lp3966
g69
(g78
g71
NtRp3967
(dp3968
g74
(dp3969
g82
I4
ssg83
Nsg76
(lp3970
g69
(g85
g71
NtRp3971
(dp3972
g74
(dp3973
sg83
g3967
sg76
(lp3974
g69
(g90
g71
NtRp3975
(dp3976
g74
(dp3977
sg83
g3971
sg76
(lp3978
g69
(g70
g71
NtRp3979
(dp3980
g74
(dp3981
g82
I4
ssg83
g3975
sg76
(lp3982
S'*'
asbasbasbasbasbasbasbag69
(g85
g71
NtRp3983
(dp3984
g74
(dp3985
sg83
g3615
sg76
(lp3986
g69
(g90
g71
NtRp3987
(dp3988
g74
(dp3989
g94
g95
ssg83
g3983
sg76
(lp3990
S'google_analytics_id'
p3991
asbag69
(g90
g71
NtRp3992
(dp3993
g74
(dp3994
g101
g102
ssg83
g3983
sg76
(lp3995
S':'
asbag69
(g90
g71
NtRp3996
(dp3997
g74
(dp3998
sg83
g3983
sg76
(lp3999
g69
(g70
g71
NtRp4000
(dp4001
g74
(dp4002
g82
I5
ssg83
g3996
sg76
(lp4003
S'None'
p4004
asbasbasbag69
(g85
g71
NtRp4005
(dp4006
g74
(dp4007
sg83
g3615
sg76
(lp4008
g69
(g90
g71
NtRp4009
(dp4010
g74
(dp4011
g94
g95
ssg83
g4005
sg76
(lp4012
S'headers'
p4013
asbag69
(g90
g71
NtRp4014
(dp4015
g74
(dp4016
g101
g102
ssg83
g4005
sg76
(lp4017
S':'
asbag69
(g90
g71
NtRp4018
(dp4019
g74
(dp4020
sg83
g4005
sg76
(lp4021
g69
(g70
g71
NtRp4022
(dp4023
g74
(dp4024
g82
I5
ssg83
g4018
sg76
(lp4025
g69
(g78
g71
NtRp4026
(dp4027
g74
(dp4028
g82
I4
ssg83
Nsg76
(lp4029
g69
(g85
g71
NtRp4030
(dp4031
g74
(dp4032
sg83
g4026
sg76
(lp4033
g69
(g90
g71
NtRp4034
(dp4035
g74
(dp4036
g94
g95
ssg83
g4030
sg76
(lp4037
S'X-Powered-By'
p4038
asbag69
(g90
g71
NtRp4039
(dp4040
g74
(dp4041
g101
g102
ssg83
g4030
sg76
(lp4042
S':'
asbag69
(g90
g71
NtRp4043
(dp4044
g74
(dp4045
sg83
g4030
sg76
(lp4046
g69
(g70
g71
NtRp4047
(dp4048
g74
(dp4049
g82
I4
ssg83
g4043
sg76
(lp4050
S'web2py'
p4051
asbasbasbasbasbasbasbag69
(g85
g71
NtRp4052
(dp4053
g74
(dp4054
sg83
g3615
sg76
(lp4055
g69
(g90
g71
NtRp4056
(dp4057
g74
(dp4058
g94
g95
ssg83
g4052
sg76
(lp4059
S'menu'
p4060
asbag69
(g90
g71
NtRp4061
(dp4062
g74
(dp4063
g101
g102
ssg83
g4052
sg76
(lp4064
S':'
asbag69
(g90
g71
NtRp4065
(dp4066
g74
(dp4067
sg83
g4052
sg76
(lp4068
g69
(g70
g71
NtRp4069
(dp4070
g74
(dp4071
g82
I5
ssg83
g4065
sg76
(lp4072
g69
(g78
g71
NtRp4073
(dp4074
g74
(dp4075
g82
I4
ssg83
Nsg76
(lp4076
g69
(g85
g71
NtRp4077
(dp4078
g74
(dp4079
sg83
g4073
sg76
(lp4080
g69
(g90
g71
NtRp4081
(dp4082
g74
(dp4083
sg83
g4077
sg76
(lp4084
g69
(g70
g71
NtRp4085
(dp4086
g74
(dp4087
g82
I4
ssg83
g4081
sg76
(lp4088
g69
(g78
g71
NtRp4089
(dp4090
g74
(dp4091
g82
I3
ssg83
Nsg76
(lp4092
g69
(g85
g71
NtRp4093
(dp4094
g74
(dp4095
sg83
g4089
sg76
(lp4096
g69
(g90
g71
NtRp4097
(dp4098
g74
(dp4099
sg83
g4093
sg76
(lp4100
g69
(g70
g71
NtRp4101
(dp4102
g74
(dp4103
g82
I3
ssg83
g4097
sg76
(lp4104
cgluon.languages
lazyT_unpickle
p4105
(S't\x04\x00\x00\x00Home'
tRp4106
asbasbasbag69
(g85
g71
NtRp4107
(dp4108
g74
(dp4109
sg83
g4089
sg76
(lp4110
g69
(g90
g71
NtRp4111
(dp4112
g74
(dp4113
sg83
g4107
sg76
(lp4114
g69
(g70
g71
NtRp4115
(dp4116
g74
(dp4117
g82
I3
ssg83
g4111
sg76
(lp4118
g112
asbasbasbag69
(g85
g71
NtRp4119
(dp4120
g74
(dp4121
sg83
g4089
sg76
(lp4122
g69
(g90
g71
NtRp4123
(dp4124
g74
(dp4125
sg83
g4119
sg76
(lp4126
g69
(g70
g71
NtRp4127
(dp4128
g74
(dp4129
g82
I3
ssg83
g4123
sg76
(lp4130
S'/QSunTasteBudsV2/default/index'
p4131
asbasbasbag69
(g85
g71
NtRp4132
(dp4133
g74
(dp4134
sg83
g4089
sg76
(lp4135
g69
(g90
g71
NtRp4136
(dp4137
g74
(dp4138
sg83
g4132
sg76
(lp4139
g69
(g70
g71
NtRp4140
(dp4141
g74
(dp4142
g82
I3
ssg83
g4136
sg76
(lp4143
g69
(g78
g71
NtRp4144
(dp4145
g74
(dp4146
g82
I2
ssg83
Nsg76
(lp4147
sbasbasbasbasbasbasbasbag69
(g85
g71
NtRp4148
(dp4149
g74
(dp4150
sg83
g4073
sg76
(lp4151
g69
(g90
g71
NtRp4152
(dp4153
g74
(dp4154
sg83
g4148
sg76
(lp4155
g69
(g70
g71
NtRp4156
(dp4157
g74
(dp4158
g82
I4
ssg83
g4152
sg76
(lp4159
g69
(g78
g71
NtRp4160
(dp4161
g74
(dp4162
g82
I3
ssg83
Nsg76
(lp4163
g69
(g85
g71
NtRp4164
(dp4165
g74
(dp4166
sg83
g4160
sg76
(lp4167
g69
(g90
g71
NtRp4168
(dp4169
g74
(dp4170
sg83
g4164
sg76
(lp4171
g69
(g70
g71
NtRp4172
(dp4173
g74
(dp4174
g82
I3
ssg83
g4168
sg76
(lp4175
g69
(cgluon.html
SPAN
p4176
g71
NtRp4177
(dp4178
g74
(dp4179
g94
S'color:yellow'
p4180
ssg83
Nsg76
(lp4181
g4051
asbasbasbasbag69
(g85
g71
NtRp4182
(dp4183
g74
(dp4184
sg83
g4160
sg76
(lp4185
g69
(g90
g71
NtRp4186
(dp4187
g74
(dp4188
sg83
g4182
sg76
(lp4189
g69
(g70
g71
NtRp4190
(dp4191
g74
(dp4192
g82
I3
ssg83
g4186
sg76
(lp4193
g112
asbasbasbag69
(g85
g71
NtRp4194
(dp4195
g74
(dp4196
sg83
g4160
sg76
(lp4197
g69
(g90
g71
NtRp4198
(dp4199
g74
(dp4200
sg83
g4194
sg76
(lp4201
g69
(g70
g71
NtRp4202
(dp4203
g74
(dp4204
g82
I3
ssg83
g4198
sg76
(lp4205
S'http://web2py.com'
p4206
asbasbasbag69
(g85
g71
NtRp4207
(dp4208
g74
(dp4209
sg83
g4160
sg76
(lp4210
g69
(g90
g71
NtRp4211
(dp4212
g74
(dp4213
sg83
g4207
sg76
(lp4214
g69
(g70
g71
NtRp4215
(dp4216
g74
(dp4217
g82
I3
ssg83
g4211
sg76
(lp4218
g69
(g78
g71
NtRp4219
(dp4220
g74
(dp4221
g82
I2
ssg83
Nsg76
(lp4222
g69
(g85
g71
NtRp4223
(dp4224
g74
(dp4225
sg83
g4219
sg76
(lp4226
g69
(g90
g71
NtRp4227
(dp4228
g74
(dp4229
sg83
g4223
sg76
(lp4230
g69
(g70
g71
NtRp4231
(dp4232
g74
(dp4233
g82
I2
ssg83
g4227
sg76
(lp4234
g69
(g78
g71
NtRp4235
(dp4236
g74
(dp4237
g82
I1
ssg83
Nsg76
(lp4238
g69
(g85
g71
NtRp4239
(dp4240
g74
(dp4241
sg83
g4235
sg76
(lp4242
g69
(g90
g71
NtRp4243
(dp4244
g74
(dp4245
sg83
g4239
sg76
(lp4246
g69
(g70
g71
NtRp4247
(dp4248
g74
(dp4249
g82
I1
ssg83
g4243
sg76
(lp4250
g4105
(S's\x08\x00\x00\x00My Sites'
tRp4251
asbasbasbag69
(g85
g71
NtRp4252
(dp4253
g74
(dp4254
sg83
g4235
sg76
(lp4255
g69
(g90
g71
NtRp4256
(dp4257
g74
(dp4258
sg83
g4252
sg76
(lp4259
g69
(g70
g71
NtRp4260
(dp4261
g74
(dp4262
g82
I1
ssg83
g4256
sg76
(lp4263
I00
asbasbasbag69
(g85
g71
NtRp4264
(dp4265
g74
(dp4266
sg83
g4235
sg76
(lp4267
g69
(g90
g71
NtRp4268
(dp4269
g74
(dp4270
sg83
g4264
sg76
(lp4271
g69
(g70
g71
NtRp4272
(dp4273
g74
(dp4274
g82
I1
ssg83
g4268
sg76
(lp4275
S'/admin/default/site'
p4276
asbasbasbasbasbasbasbag69
(g85
g71
NtRp4277
(dp4278
g74
(dp4279
sg83
g4219
sg76
(lp4280
g69
(g90
g71
NtRp4281
(dp4282
g74
(dp4283
sg83
g4277
sg76
(lp4284
g69
(g70
g71
NtRp4285
(dp4286
g74
(dp4287
g82
I2
ssg83
g4281
sg76
(lp4288
g69
(g78
g71
NtRp4289
(dp4290
g74
(dp4291
g82
I1
ssg83
Nsg76
(lp4292
g69
(g85
g71
NtRp4293
(dp4294
g74
(dp4295
sg83
g4289
sg76
(lp4296
g69
(g90
g71
NtRp4297
(dp4298
g74
(dp4299
sg83
g4293
sg76
(lp4300
g69
(g70
g71
NtRp4301
(dp4302
g74
(dp4303
g82
I1
ssg83
g4297
sg76
(lp4304
g4105
(S's\x08\x00\x00\x00This App'
tRp4305
asbasbasbag69
(g85
g71
NtRp4306
(dp4307
g74
(dp4308
sg83
g4289
sg76
(lp4309
g69
(g90
g71
NtRp4310
(dp4311
g74
(dp4312
sg83
g4306
sg76
(lp4313
g69
(g70
g71
NtRp4314
(dp4315
g74
(dp4316
g82
I1
ssg83
g4310
sg76
(lp4317
I00
asbasbasbag69
(g85
g71
NtRp4318
(dp4319
g74
(dp4320
sg83
g4289
sg76
(lp4321
g69
(g90
g71
NtRp4322
(dp4323
g74
(dp4324
sg83
g4318
sg76
(lp4325
g69
(g70
g71
NtRp4326
(dp4327
g74
(dp4328
g82
I1
ssg83
g4322
sg76
(lp4329
S'/admin/default/design/QSunTasteBudsV2'
p4330
asbasbasbag69
(g85
g71
NtRp4331
(dp4332
g74
(dp4333
sg83
g4289
sg76
(lp4334
g69
(g90
g71
NtRp4335
(dp4336
g74
(dp4337
sg83
g4331
sg76
(lp4338
g69
(g70
g71
NtRp4339
(dp4340
g74
(dp4341
g82
I1
ssg83
g4335
sg76
(lp4342
(lp4343
(g4105
(S't\n\x00\x00\x00Controller'
tRp4344
I00
S'/admin/default/edit/QSunTasteBudsV2/controllers/default.py'
tp4345
a(g4105
(S't\x04\x00\x00\x00View'
tRp4346
I00
S'/admin/default/edit/QSunTasteBudsV2/views/default/readRecipe.html'
tp4347
a(g4105
(S't\x06\x00\x00\x00Layout'
tRp4348
I00
S'/admin/default/edit/QSunTasteBudsV2/views/layout.html'
tp4349
a(g4105
(S't\n\x00\x00\x00Stylesheet'
tRp4350
I00
S'/admin/default/edit/QSunTasteBudsV2/static/css/web2py.css'
tp4351
a(g4105
(S's\x08\x00\x00\x00DB Model'
tRp4352
I00
S'/admin/default/edit/QSunTasteBudsV2/models/db.py'
tp4353
a(g4105
(S's\n\x00\x00\x00Menu Model'
tRp4354
I00
S'/admin/default/edit/QSunTasteBudsV2/models/menu.py'
tp4355
a(g4105
(S't\x08\x00\x00\x00Database'
tRp4356
I00
S'/QSunTasteBudsV2/appadmin/index'
tp4357
a(g4105
(S't\x06\x00\x00\x00Errors'
tRp4358
I00
S'/admin/default/errors/QSunTasteBudsV2'
tp4359
a(g4105
(S't\x05\x00\x00\x00About'
tRp4360
I00
S'/admin/default/about/QSunTasteBudsV2'
tp4361
aasbasbasbasbasbasbasbag69
(g85
g71
NtRp4362
(dp4363
g74
(dp4364
sg83
g4219
sg76
(lp4365
g69
(g90
g71
NtRp4366
(dp4367
g74
(dp4368
sg83
g4362
sg76
(lp4369
g69
(g70
g71
NtRp4370
(dp4371
g74
(dp4372
g82
I2
ssg83
g4366
sg76
(lp4373
g69
(g78
g71
NtRp4374
(dp4375
g74
(dp4376
g82
I1
ssg83
Nsg76
(lp4377
g69
(g85
g71
NtRp4378
(dp4379
g74
(dp4380
sg83
g4374
sg76
(lp4381
g69
(g90
g71
NtRp4382
(dp4383
g74
(dp4384
sg83
g4378
sg76
(lp4385
g69
(g70
g71
NtRp4386
(dp4387
g74
(dp4388
g82
I1
ssg83
g4382
sg76
(lp4389
S'web2py.com'
p4390
asbasbasbag69
(g85
g71
NtRp4391
(dp4392
g74
(dp4393
sg83
g4374
sg76
(lp4394
g69
(g90
g71
NtRp4395
(dp4396
g74
(dp4397
sg83
g4391
sg76
(lp4398
g69
(g70
g71
NtRp4399
(dp4400
g74
(dp4401
g82
I1
ssg83
g4395
sg76
(lp4402
I00
asbasbasbag69
(g85
g71
NtRp4403
(dp4404
g74
(dp4405
sg83
g4374
sg76
(lp4406
g69
(g90
g71
NtRp4407
(dp4408
g74
(dp4409
sg83
g4403
sg76
(lp4410
g69
(g70
g71
NtRp4411
(dp4412
g74
(dp4413
g82
I1
ssg83
g4407
sg76
(lp4414
S'http://www.web2py.com'
p4415
asbasbasbag69
(g85
g71
NtRp4416
(dp4417
g74
(dp4418
sg83
g4374
sg76
(lp4419
g69
(g90
g71
NtRp4420
(dp4421
g74
(dp4422
sg83
g4416
sg76
(lp4423
g69
(g70
g71
NtRp4424
(dp4425
g74
(dp4426
g82
I1
ssg83
g4420
sg76
(lp4427
(lp4428
(g4105
(S't\x08\x00\x00\x00Download'
tRp4429
I00
S'http://www.web2py.com/examples/default/download'
p4430
tp4431
a(g4105
(S't\x07\x00\x00\x00Support'
tRp4432
I00
S'http://www.web2py.com/examples/default/support'
p4433
tp4434
a(g4105
(S't\x04\x00\x00\x00Demo'
tRp4435
I00
S'http://web2py.com/demo_admin'
p4436
tp4437
a(g4105
(S's\x0e\x00\x00\x00Quick Examples'
tRp4438
I00
S'http://web2py.com/examples/default/examples'
p4439
tp4440
a(g4105
(S't\x03\x00\x00\x00FAQ'
tRp4441
I00
S'http://web2py.com/AlterEgo'
p4442
tp4443
a(g4105
(S't\x06\x00\x00\x00Videos'
tRp4444
I00
S'http://www.web2py.com/examples/default/videos/'
p4445
tp4446
a(g4105
(S's\x11\x00\x00\x00Free Applications'
tRp4447
I00
S'http://web2py.com/appliances'
p4448
tp4449
a(g4105
(S't\x07\x00\x00\x00Plugins'
tRp4450
I00
S'http://web2py.com/plugins'
p4451
tp4452
a(g4105
(S't\x07\x00\x00\x00Layouts'
tRp4453
I00
S'http://web2py.com/layouts'
p4454
tp4455
a(g4105
(S't\x07\x00\x00\x00Recipes'
tRp4456
I00
S'http://web2pyslices.com/'
p4457
tp4458
a(g4105
(S't\x08\x00\x00\x00Semantic'
tRp4459
I00
S'http://web2py.com/semantic'
p4460
tp4461
aasbasbasbasbasbasbasbag69
(g85
g71
NtRp4462
(dp4463
g74
(dp4464
sg83
g4219
sg76
(lp4465
g69
(g90
g71
NtRp4466
(dp4467
g74
(dp4468
sg83
g4462
sg76
(lp4469
g69
(g70
g71
NtRp4470
(dp4471
g74
(dp4472
g82
I2
ssg83
g4466
sg76
(lp4473
g69
(g78
g71
NtRp4474
(dp4475
g74
(dp4476
g82
I1
ssg83
Nsg76
(lp4477
g69
(g85
g71
NtRp4478
(dp4479
g74
(dp4480
sg83
g4474
sg76
(lp4481
g69
(g90
g71
NtRp4482
(dp4483
g74
(dp4484
sg83
g4478
sg76
(lp4485
g69
(g70
g71
NtRp4486
(dp4487
g74
(dp4488
g82
I1
ssg83
g4482
sg76
(lp4489
g4105
(S't\r\x00\x00\x00Documentation'
tRp4490
asbasbasbag69
(g85
g71
NtRp4491
(dp4492
g74
(dp4493
sg83
g4474
sg76
(lp4494
g69
(g90
g71
NtRp4495
(dp4496
g74
(dp4497
sg83
g4491
sg76
(lp4498
g69
(g70
g71
NtRp4499
(dp4500
g74
(dp4501
g82
I1
ssg83
g4495
sg76
(lp4502
I00
asbasbasbag69
(g85
g71
NtRp4503
(dp4504
g74
(dp4505
sg83
g4474
sg76
(lp4506
g69
(g90
g71
NtRp4507
(dp4508
g74
(dp4509
sg83
g4503
sg76
(lp4510
g69
(g70
g71
NtRp4511
(dp4512
g74
(dp4513
g82
I1
ssg83
g4507
sg76
(lp4514
S'http://www.web2py.com/book'
p4515
asbasbasbag69
(g85
g71
NtRp4516
(dp4517
g74
(dp4518
sg83
g4474
sg76
(lp4519
g69
(g90
g71
NtRp4520
(dp4521
g74
(dp4522
sg83
g4516
sg76
(lp4523
g69
(g70
g71
NtRp4524
(dp4525
g74
(dp4526
g82
I1
ssg83
g4520
sg76
(lp4527
(lp4528
(g4105
(S't\x07\x00\x00\x00Preface'
tRp4529
I00
S'http://www.web2py.com/book/default/chapter/00'
p4530
tp4531
a(g4105
(S't\x0c\x00\x00\x00Introduction'
tRp4532
I00
S'http://www.web2py.com/book/default/chapter/01'
p4533
tp4534
a(g4105
(S't\x06\x00\x00\x00Python'
tRp4535
I00
S'http://www.web2py.com/book/default/chapter/02'
p4536
tp4537
a(g4105
(S't\x08\x00\x00\x00Overview'
tRp4538
I00
S'http://www.web2py.com/book/default/chapter/03'
p4539
tp4540
a(g4105
(S's\x08\x00\x00\x00The Core'
tRp4541
I00
S'http://www.web2py.com/book/default/chapter/04'
p4542
tp4543
a(g4105
(S's\t\x00\x00\x00The Views'
tRp4544
I00
S'http://www.web2py.com/book/default/chapter/05'
p4545
tp4546
a(g4105
(S't\x08\x00\x00\x00Database'
tRp4547
I00
S'http://www.web2py.com/book/default/chapter/06'
p4548
tp4549
a(g4105
(S's\x14\x00\x00\x00Forms and Validators'
tRp4550
I00
S'http://www.web2py.com/book/default/chapter/07'
p4551
tp4552
a(g4105
(S's\r\x00\x00\x00Email and SMS'
tRp4553
I00
S'http://www.web2py.com/book/default/chapter/08'
p4554
tp4555
a(g4105
(S's\x0e\x00\x00\x00Access Control'
tRp4556
I00
S'http://www.web2py.com/book/default/chapter/09'
p4557
tp4558
a(g4105
(S't\x08\x00\x00\x00Services'
tRp4559
I00
S'http://www.web2py.com/book/default/chapter/10'
p4560
tp4561
a(g4105
(S's\x0c\x00\x00\x00Ajax Recipes'
tRp4562
I00
S'http://www.web2py.com/book/default/chapter/11'
p4563
tp4564
a(g4105
(S's\x16\x00\x00\x00Components and Plugins'
tRp4565
I00
S'http://www.web2py.com/book/default/chapter/12'
p4566
tp4567
a(g4105
(S's\x12\x00\x00\x00Deployment Recipes'
tRp4568
I00
S'http://www.web2py.com/book/default/chapter/13'
p4569
tp4570
a(g4105
(S's\r\x00\x00\x00Other Recipes'
tRp4571
I00
S'http://www.web2py.com/book/default/chapter/14'
p4572
tp4573
a(g4105
(S's\r\x00\x00\x00Buy this book'
tRp4574
I00
S'http://stores.lulu.com/web2py'
p4575
tp4576
aasbasbasbasbasbasbasbag69
(g85
g71
NtRp4577
(dp4578
g74
(dp4579
sg83
g4219
sg76
(lp4580
g69
(g90
g71
NtRp4581
(dp4582
g74
(dp4583
sg83
g4577
sg76
(lp4584
g69
(g70
g71
NtRp4585
(dp4586
g74
(dp4587
g82
I2
ssg83
g4581
sg76
(lp4588
g69
(g78
g71
NtRp4589
(dp4590
g74
(dp4591
g82
I1
ssg83
Nsg76
(lp4592
g69
(g85
g71
NtRp4593
(dp4594
g74
(dp4595
sg83
g4589
sg76
(lp4596
g69
(g90
g71
NtRp4597
(dp4598
g74
(dp4599
sg83
g4593
sg76
(lp4600
g69
(g70
g71
NtRp4601
(dp4602
g74
(dp4603
g82
I1
ssg83
g4597
sg76
(lp4604
g4105
(S't\t\x00\x00\x00Community'
tRp4605
asbasbasbag69
(g85
g71
NtRp4606
(dp4607
g74
(dp4608
sg83
g4589
sg76
(lp4609
g69
(g90
g71
NtRp4610
(dp4611
g74
(dp4612
sg83
g4606
sg76
(lp4613
g69
(g70
g71
NtRp4614
(dp4615
g74
(dp4616
g82
I1
ssg83
g4610
sg76
(lp4617
I00
asbasbasbag69
(g85
g71
NtRp4618
(dp4619
g74
(dp4620
sg83
g4589
sg76
(lp4621
g69
(g90
g71
NtRp4622
(dp4623
g74
(dp4624
sg83
g4618
sg76
(lp4625
g69
(g70
g71
NtRp4626
(dp4627
g74
(dp4628
g82
I1
ssg83
g4622
sg76
(lp4629
Nasbasbasbag69
(g85
g71
NtRp4630
(dp4631
g74
(dp4632
sg83
g4589
sg76
(lp4633
g69
(g90
g71
NtRp4634
(dp4635
g74
(dp4636
sg83
g4630
sg76
(lp4637
g69
(g70
g71
NtRp4638
(dp4639
g74
(dp4640
g82
I1
ssg83
g4634
sg76
(lp4641
(lp4642
(g4105
(S't\x06\x00\x00\x00Groups'
tRp4643
I00
S'http://www.web2py.com/examples/default/usergroups'
p4644
tp4645
a(g4105
(S't\x07\x00\x00\x00Twitter'
tRp4646
I00
S'http://twitter.com/web2py'
p4647
tp4648
a(g4105
(S's\t\x00\x00\x00Live Chat'
tRp4649
I00
S'http://webchat.freenode.net/?channels=web2py'
p4650
tp4651
aasbasbasbasbasbasbasbag69
(g85
g71
NtRp4652
(dp4653
g74
(dp4654
sg83
g4219
sg76
(lp4655
g69
(g90
g71
NtRp4656
(dp4657
g74
(dp4658
sg83
g4652
sg76
(lp4659
g69
(g70
g71
NtRp4660
(dp4661
g74
(dp4662
g82
I2
ssg83
g4656
sg76
(lp4663
g69
(g78
g71
NtRp4664
(dp4665
g74
(dp4666
g82
I1
ssg83
Nsg76
(lp4667
g69
(g85
g71
NtRp4668
(dp4669
g74
(dp4670
sg83
g4664
sg76
(lp4671
g69
(g90
g71
NtRp4672
(dp4673
g74
(dp4674
sg83
g4668
sg76
(lp4675
g69
(g70
g71
NtRp4676
(dp4677
g74
(dp4678
g82
I1
ssg83
g4672
sg76
(lp4679
g4105
(S't\x07\x00\x00\x00Plugins'
tRp4680
asbasbasbag69
(g85
g71
NtRp4681
(dp4682
g74
(dp4683
sg83
g4664
sg76
(lp4684
g69
(g90
g71
NtRp4685
(dp4686
g74
(dp4687
sg83
g4681
sg76
(lp4688
g69
(g70
g71
NtRp4689
(dp4690
g74
(dp4691
g82
I1
ssg83
g4685
sg76
(lp4692
I00
asbasbasbag69
(g85
g71
NtRp4693
(dp4694
g74
(dp4695
sg83
g4664
sg76
(lp4696
g69
(g90
g71
NtRp4697
(dp4698
g74
(dp4699
sg83
g4693
sg76
(lp4700
g69
(g70
g71
NtRp4701
(dp4702
g74
(dp4703
g82
I1
ssg83
g4697
sg76
(lp4704
Nasbasbasbag69
(g85
g71
NtRp4705
(dp4706
g74
(dp4707
sg83
g4664
sg76
(lp4708
g69
(g90
g71
NtRp4709
(dp4710
g74
(dp4711
sg83
g4705
sg76
(lp4712
g69
(g70
g71
NtRp4713
(dp4714
g74
(dp4715
g82
I1
ssg83
g4709
sg76
(lp4716
(lp4717
(S'plugin_wiki'
p4718
I00
S'http://web2py.com/examples/default/download'
p4719
tp4720
a(g4105
(S's\r\x00\x00\x00Other Plugins'
tRp4721
I00
g4451
tp4722
a(g4105
(S's\x0e\x00\x00\x00Layout Plugins'
tRp4723
I00
g4454
tp4724
aasbasbasbasbasbasbasbasbasbasbasbasbasbasbasbasbasbasbasbag69
(g85
g71
NtRp4725
(dp4726
g74
(dp4727
sg83
g3615
sg76
(lp4728
g69
(g90
g71
NtRp4729
(dp4730
g74
(dp4731
g94
g95
ssg83
g4725
sg76
(lp4732
S'meta'
p4733
asbag69
(g90
g71
NtRp4734
(dp4735
g74
(dp4736
g101
g102
ssg83
g4725
sg76
(lp4737
S':'
asbag69
(g90
g71
NtRp4738
(dp4739
g74
(dp4740
sg83
g4725
sg76
(lp4741
g69
(g70
g71
NtRp4742
(dp4743
g74
(dp4744
g82
I5
ssg83
g4738
sg76
(lp4745
g69
(g78
g71
NtRp4746
(dp4747
g74
(dp4748
g82
I4
ssg83
Nsg76
(lp4749
g69
(g85
g71
NtRp4750
(dp4751
g74
(dp4752
sg83
g4746
sg76
(lp4753
g69
(g90
g71
NtRp4754
(dp4755
g74
(dp4756
g94
g95
ssg83
g4750
sg76
(lp4757
S'author'
p4758
asbag69
(g90
g71
NtRp4759
(dp4760
g74
(dp4761
g101
g102
ssg83
g4750
sg76
(lp4762
S':'
asbag69
(g90
g71
NtRp4763
(dp4764
g74
(dp4765
sg83
g4750
sg76
(lp4766
g69
(g70
g71
NtRp4767
(dp4768
g74
(dp4769
g82
I4
ssg83
g4763
sg76
(lp4770
S'Your Name <you@example.com>'
p4771
asbasbasbag69
(g85
g71
NtRp4772
(dp4773
g74
(dp4774
sg83
g4746
sg76
(lp4775
g69
(g90
g71
NtRp4776
(dp4777
g74
(dp4778
g94
g95
ssg83
g4772
sg76
(lp4779
S'description'
p4780
asbag69
(g90
g71
NtRp4781
(dp4782
g74
(dp4783
g101
g102
ssg83
g4772
sg76
(lp4784
S':'
asbag69
(g90
g71
NtRp4785
(dp4786
g74
(dp4787
sg83
g4772
sg76
(lp4788
g69
(g70
g71
NtRp4789
(dp4790
g74
(dp4791
g82
I4
ssg83
g4785
sg76
(lp4792
S'a cool new app'
p4793
asbasbasbag69
(g85
g71
NtRp4794
(dp4795
g74
(dp4796
sg83
g4746
sg76
(lp4797
g69
(g90
g71
NtRp4798
(dp4799
g74
(dp4800
g94
g95
ssg83
g4794
sg76
(lp4801
S'generator'
p4802
asbag69
(g90
g71
NtRp4803
(dp4804
g74
(dp4805
g101
g102
ssg83
g4794
sg76
(lp4806
S':'
asbag69
(g90
g71
NtRp4807
(dp4808
g74
(dp4809
sg83
g4794
sg76
(lp4810
g69
(g70
g71
NtRp4811
(dp4812
g74
(dp4813
g82
I4
ssg83
g4807
sg76
(lp4814
S'Web2py Web Framework'
p4815
asbasbasbag69
(g85
g71
NtRp4816
(dp4817
g74
(dp4818
sg83
g4746
sg76
(lp4819
g69
(g90
g71
NtRp4820
(dp4821
g74
(dp4822
g94
g95
ssg83
g4816
sg76
(lp4823
S'keywords'
p4824
asbag69
(g90
g71
NtRp4825
(dp4826
g74
(dp4827
g101
g102
ssg83
g4816
sg76
(lp4828
S':'
asbag69
(g90
g71
NtRp4829
(dp4830
g74
(dp4831
sg83
g4816
sg76
(lp4832
g69
(g70
g71
NtRp4833
(dp4834
g74
(dp4835
g82
I4
ssg83
g4829
sg76
(lp4836
S'web2py, python, framework'
p4837
asbasbasbasbasbasbasbag69
(g85
g71
NtRp4838
(dp4839
g74
(dp4840
sg83
g3615
sg76
(lp4841
g69
(g90
g71
NtRp4842
(dp4843
g74
(dp4844
g94
g95
ssg83
g4838
sg76
(lp4845
S'models_to_run'
p4846
asbag69
(g90
g71
NtRp4847
(dp4848
g74
(dp4849
g101
g102
ssg83
g4838
sg76
(lp4850
S':'
asbag69
(g90
g71
NtRp4851
(dp4852
g74
(dp4853
sg83
g4838
sg76
(lp4854
g69
(g70
g71
NtRp4855
(dp4856
g74
(dp4857
g82
I5
ssg83
g4851
sg76
(lp4858
g69
(g78
g71
NtRp4859
(dp4860
g74
(dp4861
g82
I4
ssg83
Nsg76
(lp4862
g69
(g85
g71
NtRp4863
(dp4864
g74
(dp4865
sg83
g4859
sg76
(lp4866
g69
(g90
g71
NtRp4867
(dp4868
g74
(dp4869
sg83
g4863
sg76
(lp4870
g69
(g70
g71
NtRp4871
(dp4872
g74
(dp4873
g82
I4
ssg83
g4867
sg76
(lp4874
S'^\\w+\\.py$'
p4875
asbasbasbag69
(g85
g71
NtRp4876
(dp4877
g74
(dp4878
sg83
g4859
sg76
(lp4879
g69
(g90
g71
NtRp4880
(dp4881
g74
(dp4882
sg83
g4876
sg76
(lp4883
g69
(g70
g71
NtRp4884
(dp4885
g74
(dp4886
g82
I4
ssg83
g4880
sg76
(lp4887
S'^default/\\w+\\.py$'
p4888
asbasbasbag69
(g85
g71
NtRp4889
(dp4890
g74
(dp4891
sg83
g4859
sg76
(lp4892
g69
(g90
g71
NtRp4893
(dp4894
g74
(dp4895
sg83
g4889
sg76
(lp4896
g69
(g70
g71
NtRp4897
(dp4898
g74
(dp4899
g82
I4
ssg83
g4893
sg76
(lp4900
S'^default/readRecipe/\\w+\\.py$'
p4901
asbasbasbasbasbasbasbag69
(g85
g71
NtRp4902
(dp4903
g74
(dp4904
sg83
g3615
sg76
(lp4905
g69
(g90
g71
NtRp4906
(dp4907
g74
(dp4908
g94
g95
ssg83
g4902
sg76
(lp4909
S'postprocessing'
p4910
asbag69
(g90
g71
NtRp4911
(dp4912
g74
(dp4913
g101
g102
ssg83
g4902
sg76
(lp4914
S':'
asbag69
(g90
g71
NtRp4915
(dp4916
g74
(dp4917
sg83
g4902
sg76
(lp4918
g69
(g70
g71
NtRp4919
(dp4920
g74
(dp4921
g82
I5
ssg83
g4915
sg76
(lp4922
g69
(g78
g71
NtRp4923
(dp4924
g74
(dp4925
g82
I4
ssg83
Nsg76
(lp4926
sbasbasbasbag69
(g85
g71
NtRp4927
(dp4928
g74
(dp4929
sg83
g3615
sg76
(lp4930
g69
(g90
g71
NtRp4931
(dp4932
g74
(dp4933
g94
g95
ssg83
g4927
sg76
(lp4934
S'session_file'
p4935
asbag69
(g90
g71
NtRp4936
(dp4937
g74
(dp4938
g101
g102
ssg83
g4927
sg76
(lp4939
S':'
asbag69
(g90
g71
NtRp4940
(dp4941
g74
(dp4942
sg83
g4927
sg76
(lp4943
g69
(g70
g71
NtRp4944
(dp4945
g74
(dp4946
g82
I5
ssg83
g4940
sg76
(lp4947
S"<open file 'D:\\web2py_win\\web2py\\applications\\QSunTasteBudsV2\\sessions\\127.0.0.1-03c509ec-2cef-426f-a88b-6eb0c079c2a6', mode 'rb+' at 0x04042338>"
p4948
asbasbasbag69
(g85
g71
NtRp4949
(dp4950
g74
(dp4951
sg83
g3615
sg76
(lp4952
g69
(g90
g71
NtRp4953
(dp4954
g74
(dp4955
g94
g95
ssg83
g4949
sg76
(lp4956
S'session_filename'
p4957
asbag69
(g90
g71
NtRp4958
(dp4959
g74
(dp4960
g101
g102
ssg83
g4949
sg76
(lp4961
S':'
asbag69
(g90
g71
NtRp4962
(dp4963
g74
(dp4964
sg83
g4949
sg76
(lp4965
g69
(g70
g71
NtRp4966
(dp4967
g74
(dp4968
g82
I5
ssg83
g4962
sg76
(lp4969
S'D:\\web2py_win\\web2py\\applications\\QSunTasteBudsV2\\sessions\\127.0.0.1-03c509ec-2cef-426f-a88b-6eb0c079c2a6'
p4970
asbasbasbag69
(g85
g71
NtRp4971
(dp4972
g74
(dp4973
sg83
g3615
sg76
(lp4974
g69
(g90
g71
NtRp4975
(dp4976
g74
(dp4977
g94
g95
ssg83
g4971
sg76
(lp4978
S'session_id'
p4979
asbag69
(g90
g71
NtRp4980
(dp4981
g74
(dp4982
g101
g102
ssg83
g4971
sg76
(lp4983
S':'
asbag69
(g90
g71
NtRp4984
(dp4985
g74
(dp4986
sg83
g4971
sg76
(lp4987
g69
(g70
g71
NtRp4988
(dp4989
g74
(dp4990
g82
I5
ssg83
g4984
sg76
(lp4991
g499
asbasbasbag69
(g85
g71
NtRp4992
(dp4993
g74
(dp4994
sg83
g3615
sg76
(lp4995
g69
(g90
g71
NtRp4996
(dp4997
g74
(dp4998
g94
g95
ssg83
g4992
sg76
(lp4999
S'session_id_name'
p5000
asbag69
(g90
g71
NtRp5001
(dp5002
g74
(dp5003
g101
g102
ssg83
g4992
sg76
(lp5004
S':'
asbag69
(g90
g71
NtRp5005
(dp5006
g74
(dp5007
sg83
g4992
sg76
(lp5008
g69
(g70
g71
NtRp5009
(dp5010
g74
(dp5011
g82
I5
ssg83
g5005
sg76
(lp5012
g3672
asbasbasbag69
(g85
g71
NtRp5013
(dp5014
g74
(dp5015
sg83
g3615
sg76
(lp5016
g69
(g90
g71
NtRp5017
(dp5018
g74
(dp5019
g94
g95
ssg83
g5013
sg76
(lp5020
S'session_locked'
p5021
asbag69
(g90
g71
NtRp5022
(dp5023
g74
(dp5024
g101
g102
ssg83
g5013
sg76
(lp5025
S':'
asbag69
(g90
g71
NtRp5026
(dp5027
g74
(dp5028
sg83
g5013
sg76
(lp5029
g69
(g70
g71
NtRp5030
(dp5031
g74
(dp5032
g82
I5
ssg83
g5026
sg76
(lp5033
g1725
asbasbasbag69
(g85
g71
NtRp5034
(dp5035
g74
(dp5036
sg83
g3615
sg76
(lp5037
g69
(g90
g71
NtRp5038
(dp5039
g74
(dp5040
g94
g95
ssg83
g5034
sg76
(lp5041
S'session_new'
p5042
asbag69
(g90
g71
NtRp5043
(dp5044
g74
(dp5045
g101
g102
ssg83
g5034
sg76
(lp5046
S':'
asbag69
(g90
g71
NtRp5047
(dp5048
g74
(dp5049
sg83
g5034
sg76
(lp5050
g69
(g70
g71
NtRp5051
(dp5052
g74
(dp5053
g82
I5
ssg83
g5047
sg76
(lp5054
g112
asbasbasbag69
(g85
g71
NtRp5055
(dp5056
g74
(dp5057
sg83
g3615
sg76
(lp5058
g69
(g90
g71
NtRp5059
(dp5060
g74
(dp5061
g94
g95
ssg83
g5055
sg76
(lp5062
S'status'
p5063
asbag69
(g90
g71
NtRp5064
(dp5065
g74
(dp5066
g101
g102
ssg83
g5055
sg76
(lp5067
S':'
asbag69
(g90
g71
NtRp5068
(dp5069
g74
(dp5070
sg83
g5055
sg76
(lp5071
g69
(g70
g71
NtRp5072
(dp5073
g74
(dp5074
g82
I5
ssg83
g5068
sg76
(lp5075
S'200'
p5076
asbasbasbag69
(g85
g71
NtRp5077
(dp5078
g74
(dp5079
sg83
g3615
sg76
(lp5080
g69
(g90
g71
NtRp5081
(dp5082
g74
(dp5083
g94
g95
ssg83
g5077
sg76
(lp5084
S'subtitle'
p5085
asbag69
(g90
g71
NtRp5086
(dp5087
g74
(dp5088
g101
g102
ssg83
g5077
sg76
(lp5089
S':'
asbag69
(g90
g71
NtRp5090
(dp5091
g74
(dp5092
sg83
g5077
sg76
(lp5093
g69
(g70
g71
NtRp5094
(dp5095
g74
(dp5096
g82
I5
ssg83
g5090
sg76
(lp5097
g4105
(S's\r\x00\x00\x00customize me!'
tRp5098
asbasbasbag69
(g85
g71
NtRp5099
(dp5100
g74
(dp5101
sg83
g3615
sg76
(lp5102
g69
(g90
g71
NtRp5103
(dp5104
g74
(dp5105
g94
g95
ssg83
g5099
sg76
(lp5106
S'title'
p5107
asbag69
(g90
g71
NtRp5108
(dp5109
g74
(dp5110
g101
g102
ssg83
g5099
sg76
(lp5111
S':'
asbag69
(g90
g71
NtRp5112
(dp5113
g74
(dp5114
sg83
g5099
sg76
(lp5115
g69
(g70
g71
NtRp5116
(dp5117
g74
(dp5118
g82
I5
ssg83
g5112
sg76
(lp5119
S'Qsuntastebudsv2'
p5120
asbasbasbag69
(g85
g71
NtRp5121
(dp5122
g74
(dp5123
sg83
g3615
sg76
(lp5124
g69
(g90
g71
NtRp5125
(dp5126
g74
(dp5127
g94
g95
ssg83
g5121
sg76
(lp5128
S'view'
p5129
asbag69
(g90
g71
NtRp5130
(dp5131
g74
(dp5132
g101
g102
ssg83
g5121
sg76
(lp5133
S':'
asbag69
(g90
g71
NtRp5134
(dp5135
g74
(dp5136
sg83
g5121
sg76
(lp5137
g69
(g70
g71
NtRp5138
(dp5139
g74
(dp5140
g82
I5
ssg83
g5134
sg76
(lp5141
S'default/readRecipe.html'
p5142
asbasbasbasbasbsS'locals'
p5143
(dp5144
g4
S"r'D:\\web2py_win\\web2py\\applications\\QSunTasteBudsV2\\views\\default/readRecipe.html'"
p5145
sg6
S'\'response.write("<html>\\\\r\\\\n\\\\t<head>\\\\r\\\\n        <h...iv>\\\\r\\\\n    </body>\\\\r\\\\n</html>\\\\r\\\\n\\\', escape=False)\''
p5146
sssS'traceback'
p5147
S'Traceback (most recent call last):\n  File "gluon/restricted.py", line 208, in restricted\n  File "gluon/restricted.py", line 193, in compile2\n  File "D:\\web2py_win\\web2py\\applications\\QSunTasteBudsV2\\views\\default/readRecipe.html", line 18\n    for c in commentList\n                       ^\nSyntaxError: invalid syntax\n'
p5148
s.