(dp1
S'output'
p2
S"<type 'exceptions.NameError'> global name 'rating' is not defined"
p3
sS'layer'
p4
S'D:\\web2py_win\\web2py\\applications\\QSunTasteBudsV2\\controllers/default.py'
p5
sS'code'
p6
S'# -*- coding: utf-8 -*-\n# this file is released under public domain and you can use without limitations\n\n#########################################################################\n## This is a samples controller\n## - index is the default action of any application\n## - user is required for authentication and authorization\n## - download is for downloading files uploaded in the db (does streaming)\n## - call exposes all registered services (none by default)\n#########################################################################\n\ndef index():\n    if(auth.is_logged_in()):\n        userINFO = db.auth_user(auth.user_id)\n    else:\n        userINFO = 0\n    recipes = db().select(db.Recipes.ALL, orderby = ~db.Recipes.rating, limitby = (0, 3))\n    places = db().select(db.Restaurants.ALL, orderby = ~db.Restaurants.rating, limitby = (0, 3))\n    \n    \n    return dict(userINFO = userINFO, recipes = recipes, places = places)\n    \n@auth.requires_login()    \ndef login():\n    redirect(URL(\'index\'))\n    return dict()\n    \ndef logout():\n    auth.logout()\n    redirect(URL(\'index\'))\n    return dict()\n    \ndef recipe():\n    if(auth.is_logged_in()):\n        userINFO = db.auth_user(auth.user_id)\n    else:\n        userINFO = 0\n    return dict(userINFO = userINFO)\n    \ndef discover():\n    return dict()\n\ndef community():\n    return dict()\n\ndef news():\n    return dict() \n    \ndef addRecipe():\n    form = SQLFORM(db.Recipes)\n    if form.process().accepted:\n        redirect(URL(\'index\'))\n    return dict(form=form)\n    \ndef addRestaurant():\n    form = SQLFORM(db.Restaurants)\n    if form.process().accepted:\n        redirect(URL(\'index\'))\n    return dict(form=form)\n    \ndef readRecipe():\n    recipe = db.Recipes(request.args[0])\n    session.currentRecipe = request.args[0]\n    rateForm = FORM(\'Rate or Comment this recipe?\',\n                     INPUT(_type = \'submit\', _value = \'Rate and Comment\')\n                )\n    if rateForm.process().accepted:\n        session.title = recipe.title\n        session.owner = recipe.owner.first_name + " " + recipe.owner.last_name\n        redirect(URL(\'rateRecipe\'))\n    return dict(recipe = recipe, rateForm = rateForm)   \n    \ndef readRestaurant():\n    place = db.Restaurants(request.args[0])\n    rateForm = FORM(\'Rate or Comment this restaurant?\',\n                     INPUT(_type = \'submit\', _value = \'Rate and Comment\')\n                )\n    if rateForm.process().accepted:\n        redirect(URL(\'rateRestaurant\'))\n    return dict(place = place, rateForm = rateForm)\n    \n@auth.requires_login()        \ndef rateRecipe():\n    form = FORM(\n                \'Select to Rate\',\n                 SELECT(\'bad\', \'good\', \'very good\', \'excellent\', _name = \'rating\'),\n                 BR(),BR(),\n                 \n                 \'your comment: \', TEXTAREA(),\n                 BR(),BR(),\n                 \n                 INPUT(_type = \'submit\', _value = \'Go submit\')\n                )\n    \n    if form.process().accepted:\n        if form.vars.rating == \'bad\':\n            db(db.Recipes.id == session.currentRecipe).update(--rating)         \n            db.commit()\n        \n            redirect(URL(\'readRecipe\', args = [session.currentRecipe]))\n                    \n                \n    return dict(form = form)                    \n\n@auth.requires_login()                        \ndef rateRestaurant():\n    return dict()\n    \n        \n                \ndef user():\n    """\n    exposes:\n    http://..../[app]/default/user/login\n    http://..../[app]/default/user/logout\n    http://..../[app]/default/user/register\n    http://..../[app]/default/user/profile\n    http://..../[app]/default/user/retrieve_password\n    http://..../[app]/default/user/change_password\n    use @auth.requires_login()\n        @auth.requires_membership(\'group name\')\n        @auth.requires_permission(\'read\',\'table name\',record_id)\n    to decorate functions that need access control\n    """\n    return dict(form=auth())\n\n    \n\ndef download():\n    """\n    allows downloading of uploaded files\n    http://..../[app]/default/download/[filename]\n    """\n    return response.download(request,db)\n\n\ndef call():\n    """\n    exposes services. for example:\n    http://..../[app]/default/call/jsonrpc\n    decorate with @services.jsonrpc the functions to expose\n    supports xml, json, xmlrpc, jsonrpc, amfrpc, rss, csv\n    """\n    return service()\n\n\n@auth.requires_signature()\ndef data():\n    """\n    http://..../[app]/default/data/tables\n    http://..../[app]/default/data/create/[table]\n    http://..../[app]/default/data/read/[table]/[id]\n    http://..../[app]/default/data/update/[table]/[id]\n    http://..../[app]/default/data/delete/[table]/[id]\n    http://..../[app]/default/data/select/[table]\n    http://..../[app]/default/data/search/[table]\n    but URLs must be signed, i.e. linked with\n      A(\'table\',_href=URL(\'data/tables\',user_signature=True))\n    or with the signed load operator\n      LOAD(\'default\',\'data.load\',args=\'tables\',ajax=True,user_signature=True)\n    """\n    return dict(form=crud())\n\nresponse._vars=response._caller(rateRecipe)\n'
p7
sS'snapshot'
p8
(dp9
S'exception'
p10
(dp11
S'__hash__'
p12
S"<method-wrapper '__hash__' of exceptions.NameError object>"
p13
sS'__setattr__'
p14
S"<method-wrapper '__setattr__' of exceptions.NameError object>"
p15
sS'__reduce_ex__'
p16
S'<built-in method __reduce_ex__ of exceptions.NameError object>'
p17
sS'__getslice__'
p18
S"<method-wrapper '__getslice__' of exceptions.NameError object>"
p19
sS'__getitem__'
p20
S"<method-wrapper '__getitem__' of exceptions.NameError object>"
p21
sS'__setstate__'
p22
S'<built-in method __setstate__ of exceptions.NameError object>'
p23
sS'__reduce__'
p24
S'<built-in method __reduce__ of exceptions.NameError object>'
p25
sS'__str__'
p26
S"<method-wrapper '__str__' of exceptions.NameError object>"
p27
sS'__format__'
p28
S'<built-in method __format__ of exceptions.NameError object>'
p29
sS'__getattribute__'
p30
S"<method-wrapper '__getattribute__' of exceptions.NameError object>"
p31
sS'__class__'
p32
S"<type 'exceptions.NameError'>"
p33
sS'__unicode__'
p34
S'<built-in method __unicode__ of exceptions.NameError object>'
p35
sS'__delattr__'
p36
S"<method-wrapper '__delattr__' of exceptions.NameError object>"
p37
sS'__subclasshook__'
p38
S'<built-in method __subclasshook__ of type object>'
p39
sS'__repr__'
p40
S"<method-wrapper '__repr__' of exceptions.NameError object>"
p41
sS'args'
p42
S'("global name \'rating\' is not defined",)'
p43
sS'__dict__'
p44
S'{}'
p45
sS'__sizeof__'
p46
S'<built-in method __sizeof__ of exceptions.NameError object>'
p47
sS'__doc__'
p48
S"'Name not found globally.'"
p49
sS'__init__'
p50
S"<method-wrapper '__init__' of exceptions.NameError object>"
p51
sS'__new__'
p52
S'<built-in method __new__ of type object>'
p53
ssS'evalue'
p54
S"global name 'rating' is not defined"
p55
sS'request'
p56
ccopy_reg
_reconstructor
p57
(cgluon.html
BEAUTIFY
p58
c__builtin__
object
p59
NtRp60
(dp61
S'attributes'
p62
(dp63
sS'components'
p64
(lp65
g57
(cgluon.html
TABLE
p66
g59
NtRp67
(dp68
g62
(dp69
S'level'
p70
I5
ssS'parent'
p71
Nsg64
(lp72
g57
(cgluon.html
TR
p73
g59
NtRp74
(dp75
g62
(dp76
sg71
g67
sg64
(lp77
g57
(cgluon.html
TD
p78
g59
NtRp79
(dp80
g62
(dp81
S'_style'
p82
S'font-weight:bold;vertical-align:top'
p83
ssg71
g74
sg64
(lp84
S'ajax'
p85
asbag57
(g78
g59
NtRp86
(dp87
g62
(dp88
S'_valign'
p89
S'top'
p90
ssg71
g74
sg64
(lp91
S':'
asbag57
(g78
g59
NtRp92
(dp93
g62
(dp94
sg71
g74
sg64
(lp95
g57
(g58
g59
NtRp96
(dp97
g62
(dp98
g70
I5
ssg71
g92
sg64
(lp99
S'False'
p100
asbasbasbag57
(g73
g59
NtRp101
(dp102
g62
(dp103
sg71
g67
sg64
(lp104
g57
(g78
g59
NtRp105
(dp106
g62
(dp107
g82
g83
ssg71
g101
sg64
(lp108
S'application'
p109
asbag57
(g78
g59
NtRp110
(dp111
g62
(dp112
g89
g90
ssg71
g101
sg64
(lp113
S':'
asbag57
(g78
g59
NtRp114
(dp115
g62
(dp116
sg71
g101
sg64
(lp117
g57
(g58
g59
NtRp118
(dp119
g62
(dp120
g70
I5
ssg71
g114
sg64
(lp121
S'QSunTasteBudsV2'
p122
asbasbasbag57
(g73
g59
NtRp123
(dp124
g62
(dp125
sg71
g67
sg64
(lp126
g57
(g78
g59
NtRp127
(dp128
g62
(dp129
g82
g83
ssg71
g123
sg64
(lp130
g42
asbag57
(g78
g59
NtRp131
(dp132
g62
(dp133
g89
g90
ssg71
g123
sg64
(lp134
S':'
asbag57
(g78
g59
NtRp135
(dp136
g62
(dp137
sg71
g123
sg64
(lp138
g57
(g58
g59
NtRp139
(dp140
g62
(dp141
g70
I5
ssg71
g135
sg64
(lp142
g57
(g66
g59
NtRp143
(dp144
g62
(dp145
g70
I4
ssg71
Nsg64
(lp146
sbasbasbasbag57
(g73
g59
NtRp147
(dp148
g62
(dp149
sg71
g67
sg64
(lp150
g57
(g78
g59
NtRp151
(dp152
g62
(dp153
g82
g83
ssg71
g147
sg64
(lp154
S'body'
p155
asbag57
(g78
g59
NtRp156
(dp157
g62
(dp158
g89
g90
ssg71
g147
sg64
(lp159
S':'
asbag57
(g78
g59
NtRp160
(dp161
g62
(dp162
sg71
g147
sg64
(lp163
g57
(g58
g59
NtRp164
(dp165
g62
(dp166
g70
I5
ssg71
g160
sg64
(lp167
S"<open file '<fdopen>', mode 'w+b' at 0x01A1D3E8>"
p168
asbasbasbag57
(g73
g59
NtRp169
(dp170
g62
(dp171
sg71
g67
sg64
(lp172
g57
(g78
g59
NtRp173
(dp174
g62
(dp175
g82
g83
ssg71
g169
sg64
(lp176
S'cid'
p177
asbag57
(g78
g59
NtRp178
(dp179
g62
(dp180
g89
g90
ssg71
g169
sg64
(lp181
S':'
asbag57
(g78
g59
NtRp182
(dp183
g62
(dp184
sg71
g169
sg64
(lp185
g57
(g58
g59
NtRp186
(dp187
g62
(dp188
g70
I5
ssg71
g182
sg64
(lp189
S'None'
p190
asbasbasbag57
(g73
g59
NtRp191
(dp192
g62
(dp193
sg71
g67
sg64
(lp194
g57
(g78
g59
NtRp195
(dp196
g62
(dp197
g82
g83
ssg71
g191
sg64
(lp198
S'client'
p199
asbag57
(g78
g59
NtRp200
(dp201
g62
(dp202
g89
g90
ssg71
g191
sg64
(lp203
S':'
asbag57
(g78
g59
NtRp204
(dp205
g62
(dp206
sg71
g191
sg64
(lp207
g57
(g58
g59
NtRp208
(dp209
g62
(dp210
g70
I5
ssg71
g204
sg64
(lp211
S'127.0.0.1'
p212
asbasbasbag57
(g73
g59
NtRp213
(dp214
g62
(dp215
sg71
g67
sg64
(lp216
g57
(g78
g59
NtRp217
(dp218
g62
(dp219
g82
g83
ssg71
g213
sg64
(lp220
S'controller'
p221
asbag57
(g78
g59
NtRp222
(dp223
g62
(dp224
g89
g90
ssg71
g213
sg64
(lp225
S':'
asbag57
(g78
g59
NtRp226
(dp227
g62
(dp228
sg71
g213
sg64
(lp229
g57
(g58
g59
NtRp230
(dp231
g62
(dp232
g70
I5
ssg71
g226
sg64
(lp233
S'default'
p234
asbasbasbag57
(g73
g59
NtRp235
(dp236
g62
(dp237
sg71
g67
sg64
(lp238
g57
(g78
g59
NtRp239
(dp240
g62
(dp241
g82
g83
ssg71
g235
sg64
(lp242
S'cookies'
p243
asbag57
(g78
g59
NtRp244
(dp245
g62
(dp246
g89
g90
ssg71
g235
sg64
(lp247
S':'
asbag57
(g78
g59
NtRp248
(dp249
g62
(dp250
sg71
g235
sg64
(lp251
g57
(g58
g59
NtRp252
(dp253
g62
(dp254
g70
I5
ssg71
g248
sg64
(lp255
g57
(g66
g59
NtRp256
(dp257
g62
(dp258
g70
I4
ssg71
Nsg64
(lp259
g57
(g73
g59
NtRp260
(dp261
g62
(dp262
sg71
g256
sg64
(lp263
g57
(g78
g59
NtRp264
(dp265
g62
(dp266
g82
g83
ssg71
g260
sg64
(lp267
S'session_id_admin'
p268
asbag57
(g78
g59
NtRp269
(dp270
g62
(dp271
g89
g90
ssg71
g260
sg64
(lp272
S':'
asbag57
(g78
g59
NtRp273
(dp274
g62
(dp275
sg71
g260
sg64
(lp276
g57
(g58
g59
NtRp277
(dp278
g62
(dp279
g70
I4
ssg71
g273
sg64
(lp280
S'127.0.0.1-304ee069-1576-4fbf-bd8b-3f7ad31c7229'
p281
ag57
(g66
g59
NtRp282
(dp283
g62
(dp284
g70
I3
ssg71
Nsg64
(lp285
g57
(g73
g59
NtRp286
(dp287
g62
(dp288
sg71
g282
sg64
(lp289
g57
(g78
g59
NtRp290
(dp291
g62
(dp292
g82
g83
ssg71
g286
sg64
(lp293
S'comment'
p294
asbag57
(g78
g59
NtRp295
(dp296
g62
(dp297
g89
g90
ssg71
g286
sg64
(lp298
S':'
asbag57
(g78
g59
NtRp299
(dp300
g62
(dp301
sg71
g286
sg64
(lp302
g57
(g58
g59
NtRp303
(dp304
g62
(dp305
g70
I3
ssg71
g299
sg64
(lp306
S''
asbasbasbag57
(g73
g59
NtRp307
(dp308
g62
(dp309
sg71
g282
sg64
(lp310
g57
(g78
g59
NtRp311
(dp312
g62
(dp313
g82
g83
ssg71
g307
sg64
(lp314
S'domain'
p315
asbag57
(g78
g59
NtRp316
(dp317
g62
(dp318
g89
g90
ssg71
g307
sg64
(lp319
S':'
asbag57
(g78
g59
NtRp320
(dp321
g62
(dp322
sg71
g307
sg64
(lp323
g57
(g58
g59
NtRp324
(dp325
g62
(dp326
g70
I3
ssg71
g320
sg64
(lp327
S''
asbasbasbag57
(g73
g59
NtRp328
(dp329
g62
(dp330
sg71
g282
sg64
(lp331
g57
(g78
g59
NtRp332
(dp333
g62
(dp334
g82
g83
ssg71
g328
sg64
(lp335
S'expires'
p336
asbag57
(g78
g59
NtRp337
(dp338
g62
(dp339
g89
g90
ssg71
g328
sg64
(lp340
S':'
asbag57
(g78
g59
NtRp341
(dp342
g62
(dp343
sg71
g328
sg64
(lp344
g57
(g58
g59
NtRp345
(dp346
g62
(dp347
g70
I3
ssg71
g341
sg64
(lp348
S''
asbasbasbag57
(g73
g59
NtRp349
(dp350
g62
(dp351
sg71
g282
sg64
(lp352
g57
(g78
g59
NtRp353
(dp354
g62
(dp355
g82
g83
ssg71
g349
sg64
(lp356
S'httponly'
p357
asbag57
(g78
g59
NtRp358
(dp359
g62
(dp360
g89
g90
ssg71
g349
sg64
(lp361
S':'
asbag57
(g78
g59
NtRp362
(dp363
g62
(dp364
sg71
g349
sg64
(lp365
g57
(g58
g59
NtRp366
(dp367
g62
(dp368
g70
I3
ssg71
g362
sg64
(lp369
S''
asbasbasbag57
(g73
g59
NtRp370
(dp371
g62
(dp372
sg71
g282
sg64
(lp373
g57
(g78
g59
NtRp374
(dp375
g62
(dp376
g82
g83
ssg71
g370
sg64
(lp377
S'max-age'
p378
asbag57
(g78
g59
NtRp379
(dp380
g62
(dp381
g89
g90
ssg71
g370
sg64
(lp382
S':'
asbag57
(g78
g59
NtRp383
(dp384
g62
(dp385
sg71
g370
sg64
(lp386
g57
(g58
g59
NtRp387
(dp388
g62
(dp389
g70
I3
ssg71
g383
sg64
(lp390
S''
asbasbasbag57
(g73
g59
NtRp391
(dp392
g62
(dp393
sg71
g282
sg64
(lp394
g57
(g78
g59
NtRp395
(dp396
g62
(dp397
g82
g83
ssg71
g391
sg64
(lp398
S'path'
p399
asbag57
(g78
g59
NtRp400
(dp401
g62
(dp402
g89
g90
ssg71
g391
sg64
(lp403
S':'
asbag57
(g78
g59
NtRp404
(dp405
g62
(dp406
sg71
g391
sg64
(lp407
g57
(g58
g59
NtRp408
(dp409
g62
(dp410
g70
I3
ssg71
g404
sg64
(lp411
S''
asbasbasbag57
(g73
g59
NtRp412
(dp413
g62
(dp414
sg71
g282
sg64
(lp415
g57
(g78
g59
NtRp416
(dp417
g62
(dp418
g82
g83
ssg71
g412
sg64
(lp419
S'secure'
p420
asbag57
(g78
g59
NtRp421
(dp422
g62
(dp423
g89
g90
ssg71
g412
sg64
(lp424
S':'
asbag57
(g78
g59
NtRp425
(dp426
g62
(dp427
sg71
g412
sg64
(lp428
g57
(g58
g59
NtRp429
(dp430
g62
(dp431
g70
I3
ssg71
g425
sg64
(lp432
S''
asbasbasbag57
(g73
g59
NtRp433
(dp434
g62
(dp435
sg71
g282
sg64
(lp436
g57
(g78
g59
NtRp437
(dp438
g62
(dp439
g82
g83
ssg71
g433
sg64
(lp440
S'version'
p441
asbag57
(g78
g59
NtRp442
(dp443
g62
(dp444
g89
g90
ssg71
g433
sg64
(lp445
S':'
asbag57
(g78
g59
NtRp446
(dp447
g62
(dp448
sg71
g433
sg64
(lp449
g57
(g58
g59
NtRp450
(dp451
g62
(dp452
g70
I3
ssg71
g446
sg64
(lp453
S''
asbasbasbasbasbasbasbag57
(g73
g59
NtRp454
(dp455
g62
(dp456
sg71
g256
sg64
(lp457
g57
(g78
g59
NtRp458
(dp459
g62
(dp460
g82
g83
ssg71
g454
sg64
(lp461
S'session_id_qsuntastebudsv2'
p462
asbag57
(g78
g59
NtRp463
(dp464
g62
(dp465
g89
g90
ssg71
g454
sg64
(lp466
S':'
asbag57
(g78
g59
NtRp467
(dp468
g62
(dp469
sg71
g454
sg64
(lp470
g57
(g58
g59
NtRp471
(dp472
g62
(dp473
g70
I4
ssg71
g467
sg64
(lp474
S'127.0.0.1-03c509ec-2cef-426f-a88b-6eb0c079c2a6'
p475
ag57
(g66
g59
NtRp476
(dp477
g62
(dp478
g70
I3
ssg71
Nsg64
(lp479
g57
(g73
g59
NtRp480
(dp481
g62
(dp482
sg71
g476
sg64
(lp483
g57
(g78
g59
NtRp484
(dp485
g62
(dp486
g82
g83
ssg71
g480
sg64
(lp487
g294
asbag57
(g78
g59
NtRp488
(dp489
g62
(dp490
g89
g90
ssg71
g480
sg64
(lp491
S':'
asbag57
(g78
g59
NtRp492
(dp493
g62
(dp494
sg71
g480
sg64
(lp495
g57
(g58
g59
NtRp496
(dp497
g62
(dp498
g70
I3
ssg71
g492
sg64
(lp499
S''
asbasbasbag57
(g73
g59
NtRp500
(dp501
g62
(dp502
sg71
g476
sg64
(lp503
g57
(g78
g59
NtRp504
(dp505
g62
(dp506
g82
g83
ssg71
g500
sg64
(lp507
g315
asbag57
(g78
g59
NtRp508
(dp509
g62
(dp510
g89
g90
ssg71
g500
sg64
(lp511
S':'
asbag57
(g78
g59
NtRp512
(dp513
g62
(dp514
sg71
g500
sg64
(lp515
g57
(g58
g59
NtRp516
(dp517
g62
(dp518
g70
I3
ssg71
g512
sg64
(lp519
S''
asbasbasbag57
(g73
g59
NtRp520
(dp521
g62
(dp522
sg71
g476
sg64
(lp523
g57
(g78
g59
NtRp524
(dp525
g62
(dp526
g82
g83
ssg71
g520
sg64
(lp527
g336
asbag57
(g78
g59
NtRp528
(dp529
g62
(dp530
g89
g90
ssg71
g520
sg64
(lp531
S':'
asbag57
(g78
g59
NtRp532
(dp533
g62
(dp534
sg71
g520
sg64
(lp535
g57
(g58
g59
NtRp536
(dp537
g62
(dp538
g70
I3
ssg71
g532
sg64
(lp539
S''
asbasbasbag57
(g73
g59
NtRp540
(dp541
g62
(dp542
sg71
g476
sg64
(lp543
g57
(g78
g59
NtRp544
(dp545
g62
(dp546
g82
g83
ssg71
g540
sg64
(lp547
g357
asbag57
(g78
g59
NtRp548
(dp549
g62
(dp550
g89
g90
ssg71
g540
sg64
(lp551
S':'
asbag57
(g78
g59
NtRp552
(dp553
g62
(dp554
sg71
g540
sg64
(lp555
g57
(g58
g59
NtRp556
(dp557
g62
(dp558
g70
I3
ssg71
g552
sg64
(lp559
S''
asbasbasbag57
(g73
g59
NtRp560
(dp561
g62
(dp562
sg71
g476
sg64
(lp563
g57
(g78
g59
NtRp564
(dp565
g62
(dp566
g82
g83
ssg71
g560
sg64
(lp567
g378
asbag57
(g78
g59
NtRp568
(dp569
g62
(dp570
g89
g90
ssg71
g560
sg64
(lp571
S':'
asbag57
(g78
g59
NtRp572
(dp573
g62
(dp574
sg71
g560
sg64
(lp575
g57
(g58
g59
NtRp576
(dp577
g62
(dp578
g70
I3
ssg71
g572
sg64
(lp579
S''
asbasbasbag57
(g73
g59
NtRp580
(dp581
g62
(dp582
sg71
g476
sg64
(lp583
g57
(g78
g59
NtRp584
(dp585
g62
(dp586
g82
g83
ssg71
g580
sg64
(lp587
g399
asbag57
(g78
g59
NtRp588
(dp589
g62
(dp590
g89
g90
ssg71
g580
sg64
(lp591
S':'
asbag57
(g78
g59
NtRp592
(dp593
g62
(dp594
sg71
g580
sg64
(lp595
g57
(g58
g59
NtRp596
(dp597
g62
(dp598
g70
I3
ssg71
g592
sg64
(lp599
S''
asbasbasbag57
(g73
g59
NtRp600
(dp601
g62
(dp602
sg71
g476
sg64
(lp603
g57
(g78
g59
NtRp604
(dp605
g62
(dp606
g82
g83
ssg71
g600
sg64
(lp607
g420
asbag57
(g78
g59
NtRp608
(dp609
g62
(dp610
g89
g90
ssg71
g600
sg64
(lp611
S':'
asbag57
(g78
g59
NtRp612
(dp613
g62
(dp614
sg71
g600
sg64
(lp615
g57
(g58
g59
NtRp616
(dp617
g62
(dp618
g70
I3
ssg71
g612
sg64
(lp619
S''
asbasbasbag57
(g73
g59
NtRp620
(dp621
g62
(dp622
sg71
g476
sg64
(lp623
g57
(g78
g59
NtRp624
(dp625
g62
(dp626
g82
g83
ssg71
g620
sg64
(lp627
g441
asbag57
(g78
g59
NtRp628
(dp629
g62
(dp630
g89
g90
ssg71
g620
sg64
(lp631
S':'
asbag57
(g78
g59
NtRp632
(dp633
g62
(dp634
sg71
g620
sg64
(lp635
g57
(g58
g59
NtRp636
(dp637
g62
(dp638
g70
I3
ssg71
g632
sg64
(lp639
S''
asbasbasbasbasbasbasbag57
(g73
g59
NtRp640
(dp641
g62
(dp642
sg71
g256
sg64
(lp643
g57
(g78
g59
NtRp644
(dp645
g62
(dp646
g82
g83
ssg71
g640
sg64
(lp647
S'session_id_welcome'
p648
asbag57
(g78
g59
NtRp649
(dp650
g62
(dp651
g89
g90
ssg71
g640
sg64
(lp652
S':'
asbag57
(g78
g59
NtRp653
(dp654
g62
(dp655
sg71
g640
sg64
(lp656
g57
(g58
g59
NtRp657
(dp658
g62
(dp659
g70
I4
ssg71
g653
sg64
(lp660
S'127.0.0.1-85cf6716-f458-4c20-b470-30e58294b230'
p661
ag57
(g66
g59
NtRp662
(dp663
g62
(dp664
g70
I3
ssg71
Nsg64
(lp665
g57
(g73
g59
NtRp666
(dp667
g62
(dp668
sg71
g662
sg64
(lp669
g57
(g78
g59
NtRp670
(dp671
g62
(dp672
g82
g83
ssg71
g666
sg64
(lp673
g294
asbag57
(g78
g59
NtRp674
(dp675
g62
(dp676
g89
g90
ssg71
g666
sg64
(lp677
S':'
asbag57
(g78
g59
NtRp678
(dp679
g62
(dp680
sg71
g666
sg64
(lp681
g57
(g58
g59
NtRp682
(dp683
g62
(dp684
g70
I3
ssg71
g678
sg64
(lp685
S''
asbasbasbag57
(g73
g59
NtRp686
(dp687
g62
(dp688
sg71
g662
sg64
(lp689
g57
(g78
g59
NtRp690
(dp691
g62
(dp692
g82
g83
ssg71
g686
sg64
(lp693
g315
asbag57
(g78
g59
NtRp694
(dp695
g62
(dp696
g89
g90
ssg71
g686
sg64
(lp697
S':'
asbag57
(g78
g59
NtRp698
(dp699
g62
(dp700
sg71
g686
sg64
(lp701
g57
(g58
g59
NtRp702
(dp703
g62
(dp704
g70
I3
ssg71
g698
sg64
(lp705
S''
asbasbasbag57
(g73
g59
NtRp706
(dp707
g62
(dp708
sg71
g662
sg64
(lp709
g57
(g78
g59
NtRp710
(dp711
g62
(dp712
g82
g83
ssg71
g706
sg64
(lp713
g336
asbag57
(g78
g59
NtRp714
(dp715
g62
(dp716
g89
g90
ssg71
g706
sg64
(lp717
S':'
asbag57
(g78
g59
NtRp718
(dp719
g62
(dp720
sg71
g706
sg64
(lp721
g57
(g58
g59
NtRp722
(dp723
g62
(dp724
g70
I3
ssg71
g718
sg64
(lp725
S''
asbasbasbag57
(g73
g59
NtRp726
(dp727
g62
(dp728
sg71
g662
sg64
(lp729
g57
(g78
g59
NtRp730
(dp731
g62
(dp732
g82
g83
ssg71
g726
sg64
(lp733
g357
asbag57
(g78
g59
NtRp734
(dp735
g62
(dp736
g89
g90
ssg71
g726
sg64
(lp737
S':'
asbag57
(g78
g59
NtRp738
(dp739
g62
(dp740
sg71
g726
sg64
(lp741
g57
(g58
g59
NtRp742
(dp743
g62
(dp744
g70
I3
ssg71
g738
sg64
(lp745
S''
asbasbasbag57
(g73
g59
NtRp746
(dp747
g62
(dp748
sg71
g662
sg64
(lp749
g57
(g78
g59
NtRp750
(dp751
g62
(dp752
g82
g83
ssg71
g746
sg64
(lp753
g378
asbag57
(g78
g59
NtRp754
(dp755
g62
(dp756
g89
g90
ssg71
g746
sg64
(lp757
S':'
asbag57
(g78
g59
NtRp758
(dp759
g62
(dp760
sg71
g746
sg64
(lp761
g57
(g58
g59
NtRp762
(dp763
g62
(dp764
g70
I3
ssg71
g758
sg64
(lp765
S''
asbasbasbag57
(g73
g59
NtRp766
(dp767
g62
(dp768
sg71
g662
sg64
(lp769
g57
(g78
g59
NtRp770
(dp771
g62
(dp772
g82
g83
ssg71
g766
sg64
(lp773
g399
asbag57
(g78
g59
NtRp774
(dp775
g62
(dp776
g89
g90
ssg71
g766
sg64
(lp777
S':'
asbag57
(g78
g59
NtRp778
(dp779
g62
(dp780
sg71
g766
sg64
(lp781
g57
(g58
g59
NtRp782
(dp783
g62
(dp784
g70
I3
ssg71
g778
sg64
(lp785
S''
asbasbasbag57
(g73
g59
NtRp786
(dp787
g62
(dp788
sg71
g662
sg64
(lp789
g57
(g78
g59
NtRp790
(dp791
g62
(dp792
g82
g83
ssg71
g786
sg64
(lp793
g420
asbag57
(g78
g59
NtRp794
(dp795
g62
(dp796
g89
g90
ssg71
g786
sg64
(lp797
S':'
asbag57
(g78
g59
NtRp798
(dp799
g62
(dp800
sg71
g786
sg64
(lp801
g57
(g58
g59
NtRp802
(dp803
g62
(dp804
g70
I3
ssg71
g798
sg64
(lp805
S''
asbasbasbag57
(g73
g59
NtRp806
(dp807
g62
(dp808
sg71
g662
sg64
(lp809
g57
(g78
g59
NtRp810
(dp811
g62
(dp812
g82
g83
ssg71
g806
sg64
(lp813
g441
asbag57
(g78
g59
NtRp814
(dp815
g62
(dp816
g89
g90
ssg71
g806
sg64
(lp817
S':'
asbag57
(g78
g59
NtRp818
(dp819
g62
(dp820
sg71
g806
sg64
(lp821
g57
(g58
g59
NtRp822
(dp823
g62
(dp824
g70
I3
ssg71
g818
sg64
(lp825
S''
asbasbasbasbasbasbasbasbasbasbasbag57
(g73
g59
NtRp826
(dp827
g62
(dp828
sg71
g67
sg64
(lp829
g57
(g78
g59
NtRp830
(dp831
g62
(dp832
g82
g83
ssg71
g826
sg64
(lp833
S'env'
p834
asbag57
(g78
g59
NtRp835
(dp836
g62
(dp837
g89
g90
ssg71
g826
sg64
(lp838
S':'
asbag57
(g78
g59
NtRp839
(dp840
g62
(dp841
sg71
g826
sg64
(lp842
g57
(g58
g59
NtRp843
(dp844
g62
(dp845
g70
I5
ssg71
g839
sg64
(lp846
g57
(g66
g59
NtRp847
(dp848
g62
(dp849
g70
I4
ssg71
Nsg64
(lp850
g57
(g73
g59
NtRp851
(dp852
g62
(dp853
sg71
g847
sg64
(lp854
g57
(g78
g59
NtRp855
(dp856
g62
(dp857
g82
g83
ssg71
g851
sg64
(lp858
S'app_folders'
p859
asbag57
(g78
g59
NtRp860
(dp861
g62
(dp862
g89
g90
ssg71
g851
sg64
(lp863
S':'
asbag57
(g78
g59
NtRp864
(dp865
g62
(dp866
sg71
g851
sg64
(lp867
g57
(g58
g59
NtRp868
(dp869
g62
(dp870
g70
I4
ssg71
g864
sg64
(lp871
S"set(['D:\\\\web2py_win\\\\web2py\\\\applications\\\\welcome\\\\', 'D:\\\\web2py_win\\\\web2py\\\\applications\\\\admin\\\\', 'D:\\\\web2py_win\\\\web2py\\\\applications\\\\QSunTasteBudsV2\\\\'])"
p872
asbasbasbag57
(g73
g59
NtRp873
(dp874
g62
(dp875
sg71
g847
sg64
(lp876
g57
(g78
g59
NtRp877
(dp878
g62
(dp879
g82
g83
ssg71
g873
sg64
(lp880
S'applications_parent'
p881
asbag57
(g78
g59
NtRp882
(dp883
g62
(dp884
g89
g90
ssg71
g873
sg64
(lp885
S':'
asbag57
(g78
g59
NtRp886
(dp887
g62
(dp888
sg71
g873
sg64
(lp889
g57
(g58
g59
NtRp890
(dp891
g62
(dp892
g70
I4
ssg71
g886
sg64
(lp893
S'D:\\web2py_win\\web2py'
p894
asbasbasbag57
(g73
g59
NtRp895
(dp896
g62
(dp897
sg71
g847
sg64
(lp898
g57
(g78
g59
NtRp899
(dp900
g62
(dp901
g82
g83
ssg71
g895
sg64
(lp902
S'cmd_args'
p903
asbag57
(g78
g59
NtRp904
(dp905
g62
(dp906
g89
g90
ssg71
g895
sg64
(lp907
S':'
asbag57
(g78
g59
NtRp908
(dp909
g62
(dp910
sg71
g895
sg64
(lp911
g57
(g58
g59
NtRp912
(dp913
g62
(dp914
g70
I4
ssg71
g908
sg64
(lp915
g57
(g66
g59
NtRp916
(dp917
g62
(dp918
g70
I3
ssg71
Nsg64
(lp919
sbasbasbasbag57
(g73
g59
NtRp920
(dp921
g62
(dp922
sg71
g847
sg64
(lp923
g57
(g78
g59
NtRp924
(dp925
g62
(dp926
g82
g83
ssg71
g920
sg64
(lp927
S'cmd_options'
p928
asbag57
(g78
g59
NtRp929
(dp930
g62
(dp931
g89
g90
ssg71
g920
sg64
(lp932
S':'
asbag57
(g78
g59
NtRp933
(dp934
g62
(dp935
sg71
g920
sg64
(lp936
g57
(g58
g59
NtRp937
(dp938
g62
(dp939
g70
I4
ssg71
g933
sg64
(lp940
S"<Values at 0x17494b8: {'verbose': False, 'ip': '127.0.0.1', 'with_scheduler': False, 'ips': [], 'shutdown_timeout': 5, 'taskbar': False, 'port': 8000, 'maxthreads': None, 'softcron': False, 'server_name': 'MICROSOF-F36848', 'bpython': False, 'nogui': False, 'nocron': False, 'extcron': False, 'run_system_tests': False, 'test': None, 'folder': 'D:\\\\web2py_win\\\\web2py', 'config': '', 'import_models': False, 'winservice': '', 'shell': None, 'run': '', 'log_filename': 'httpserver.log', 'debuglevel': 30, 'args': [''], 'socket_timeout': 5, 'ssl_ca_certificate': None, 'scheduler': None, 'profiler_filename': None, 'ssl_private_key': '', 'scheduler_groups': None, 'password': '<ask>', 'request_queue_size': 5, 'ssl_certificate': '', 'cronjob': False, 'numthreads': None, 'quiet': False, 'interfaces': None, 'minthreads': None, 'timeout': 10, 'plain': False, 'nobanner': False, 'pid_filename': 'httpserver.pid'}>"
p941
asbasbasbag57
(g73
g59
NtRp942
(dp943
g62
(dp944
sg71
g847
sg64
(lp945
g57
(g78
g59
NtRp946
(dp947
g62
(dp948
g82
g83
ssg71
g942
sg64
(lp949
S'content_length'
p950
asbag57
(g78
g59
NtRp951
(dp952
g62
(dp953
g89
g90
ssg71
g942
sg64
(lp954
S':'
asbag57
(g78
g59
NtRp955
(dp956
g62
(dp957
sg71
g942
sg64
(lp958
g57
(g58
g59
NtRp959
(dp960
g62
(dp961
g70
I4
ssg71
g955
sg64
(lp962
S'382'
p963
asbasbasbag57
(g73
g59
NtRp964
(dp965
g62
(dp966
sg71
g847
sg64
(lp967
g57
(g78
g59
NtRp968
(dp969
g62
(dp970
g82
g83
ssg71
g964
sg64
(lp971
S'content_type'
p972
asbag57
(g78
g59
NtRp973
(dp974
g62
(dp975
g89
g90
ssg71
g964
sg64
(lp976
S':'
asbag57
(g78
g59
NtRp977
(dp978
g62
(dp979
sg71
g964
sg64
(lp980
g57
(g58
g59
NtRp981
(dp982
g62
(dp983
g70
I4
ssg71
g977
sg64
(lp984
S'multipart/form-data; boundary=---------------------------7dc1d41a10628'
p985
asbasbasbag57
(g73
g59
NtRp986
(dp987
g62
(dp988
sg71
g847
sg64
(lp989
g57
(g78
g59
NtRp990
(dp991
g62
(dp992
g82
g83
ssg71
g986
sg64
(lp993
S'db_sessions'
p994
asbag57
(g78
g59
NtRp995
(dp996
g62
(dp997
g89
g90
ssg71
g986
sg64
(lp998
S':'
asbag57
(g78
g59
NtRp999
(dp1000
g62
(dp1001
sg71
g986
sg64
(lp1002
g57
(g58
g59
NtRp1003
(dp1004
g62
(dp1005
g70
I4
ssg71
g999
sg64
(lp1006
S'set([])'
p1007
asbasbasbag57
(g73
g59
NtRp1008
(dp1009
g62
(dp1010
sg71
g847
sg64
(lp1011
g57
(g78
g59
NtRp1012
(dp1013
g62
(dp1014
g82
g83
ssg71
g1008
sg64
(lp1015
S'debugging'
p1016
asbag57
(g78
g59
NtRp1017
(dp1018
g62
(dp1019
g89
g90
ssg71
g1008
sg64
(lp1020
S':'
asbag57
(g78
g59
NtRp1021
(dp1022
g62
(dp1023
sg71
g1008
sg64
(lp1024
g57
(g58
g59
NtRp1025
(dp1026
g62
(dp1027
g70
I4
ssg71
g1021
sg64
(lp1028
g100
asbasbasbag57
(g73
g59
NtRp1029
(dp1030
g62
(dp1031
sg71
g847
sg64
(lp1032
g57
(g78
g59
NtRp1033
(dp1034
g62
(dp1035
g82
g83
ssg71
g1029
sg64
(lp1036
S'gluon_parent'
p1037
asbag57
(g78
g59
NtRp1038
(dp1039
g62
(dp1040
g89
g90
ssg71
g1029
sg64
(lp1041
S':'
asbag57
(g78
g59
NtRp1042
(dp1043
g62
(dp1044
sg71
g1029
sg64
(lp1045
g57
(g58
g59
NtRp1046
(dp1047
g62
(dp1048
g70
I4
ssg71
g1042
sg64
(lp1049
S'D:\\web2py_win\\web2py'
p1050
asbasbasbag57
(g73
g59
NtRp1051
(dp1052
g62
(dp1053
sg71
g847
sg64
(lp1054
g57
(g78
g59
NtRp1055
(dp1056
g62
(dp1057
g82
g83
ssg71
g1051
sg64
(lp1058
S'http_accept'
p1059
asbag57
(g78
g59
NtRp1060
(dp1061
g62
(dp1062
g89
g90
ssg71
g1051
sg64
(lp1063
S':'
asbag57
(g78
g59
NtRp1064
(dp1065
g62
(dp1066
sg71
g1051
sg64
(lp1067
g57
(g58
g59
NtRp1068
(dp1069
g62
(dp1070
g70
I4
ssg71
g1064
sg64
(lp1071
S'image/gif, image/jpeg, image/pjpeg, image/pjpeg, application/x-shockwave-flash, application/xaml+xml, application/x-ms-xbap, application/x-ms-application, application/vnd.ms-excel, application/vnd.ms-powerpoint, application/msword, application/QVOD, application/QVOD, */*'
p1072
asbasbasbag57
(g73
g59
NtRp1073
(dp1074
g62
(dp1075
sg71
g847
sg64
(lp1076
g57
(g78
g59
NtRp1077
(dp1078
g62
(dp1079
g82
g83
ssg71
g1073
sg64
(lp1080
S'http_accept_encoding'
p1081
asbag57
(g78
g59
NtRp1082
(dp1083
g62
(dp1084
g89
g90
ssg71
g1073
sg64
(lp1085
S':'
asbag57
(g78
g59
NtRp1086
(dp1087
g62
(dp1088
sg71
g1073
sg64
(lp1089
g57
(g58
g59
NtRp1090
(dp1091
g62
(dp1092
g70
I4
ssg71
g1086
sg64
(lp1093
S'gzip, deflate'
p1094
asbasbasbag57
(g73
g59
NtRp1095
(dp1096
g62
(dp1097
sg71
g847
sg64
(lp1098
g57
(g78
g59
NtRp1099
(dp1100
g62
(dp1101
g82
g83
ssg71
g1095
sg64
(lp1102
S'http_accept_language'
p1103
asbag57
(g78
g59
NtRp1104
(dp1105
g62
(dp1106
g89
g90
ssg71
g1095
sg64
(lp1107
S':'
asbag57
(g78
g59
NtRp1108
(dp1109
g62
(dp1110
sg71
g1095
sg64
(lp1111
g57
(g58
g59
NtRp1112
(dp1113
g62
(dp1114
g70
I4
ssg71
g1108
sg64
(lp1115
S'en-US,zh-cn;q=0.5'
p1116
asbasbasbag57
(g73
g59
NtRp1117
(dp1118
g62
(dp1119
sg71
g847
sg64
(lp1120
g57
(g78
g59
NtRp1121
(dp1122
g62
(dp1123
g82
g83
ssg71
g1117
sg64
(lp1124
S'http_cache_control'
p1125
asbag57
(g78
g59
NtRp1126
(dp1127
g62
(dp1128
g89
g90
ssg71
g1117
sg64
(lp1129
S':'
asbag57
(g78
g59
NtRp1130
(dp1131
g62
(dp1132
sg71
g1117
sg64
(lp1133
g57
(g58
g59
NtRp1134
(dp1135
g62
(dp1136
g70
I4
ssg71
g1130
sg64
(lp1137
S'no-cache'
p1138
asbasbasbag57
(g73
g59
NtRp1139
(dp1140
g62
(dp1141
sg71
g847
sg64
(lp1142
g57
(g78
g59
NtRp1143
(dp1144
g62
(dp1145
g82
g83
ssg71
g1139
sg64
(lp1146
S'http_connection'
p1147
asbag57
(g78
g59
NtRp1148
(dp1149
g62
(dp1150
g89
g90
ssg71
g1139
sg64
(lp1151
S':'
asbag57
(g78
g59
NtRp1152
(dp1153
g62
(dp1154
sg71
g1139
sg64
(lp1155
g57
(g58
g59
NtRp1156
(dp1157
g62
(dp1158
g70
I4
ssg71
g1152
sg64
(lp1159
S'Keep-Alive'
p1160
asbasbasbag57
(g73
g59
NtRp1161
(dp1162
g62
(dp1163
sg71
g847
sg64
(lp1164
g57
(g78
g59
NtRp1165
(dp1166
g62
(dp1167
g82
g83
ssg71
g1161
sg64
(lp1168
S'http_content_length'
p1169
asbag57
(g78
g59
NtRp1170
(dp1171
g62
(dp1172
g89
g90
ssg71
g1161
sg64
(lp1173
S':'
asbag57
(g78
g59
NtRp1174
(dp1175
g62
(dp1176
sg71
g1161
sg64
(lp1177
g57
(g58
g59
NtRp1178
(dp1179
g62
(dp1180
g70
I4
ssg71
g1174
sg64
(lp1181
g963
asbasbasbag57
(g73
g59
NtRp1182
(dp1183
g62
(dp1184
sg71
g847
sg64
(lp1185
g57
(g78
g59
NtRp1186
(dp1187
g62
(dp1188
g82
g83
ssg71
g1182
sg64
(lp1189
S'http_content_type'
p1190
asbag57
(g78
g59
NtRp1191
(dp1192
g62
(dp1193
g89
g90
ssg71
g1182
sg64
(lp1194
S':'
asbag57
(g78
g59
NtRp1195
(dp1196
g62
(dp1197
sg71
g1182
sg64
(lp1198
g57
(g58
g59
NtRp1199
(dp1200
g62
(dp1201
g70
I4
ssg71
g1195
sg64
(lp1202
g985
asbasbasbag57
(g73
g59
NtRp1203
(dp1204
g62
(dp1205
sg71
g847
sg64
(lp1206
g57
(g78
g59
NtRp1207
(dp1208
g62
(dp1209
g82
g83
ssg71
g1203
sg64
(lp1210
S'http_cookie'
p1211
asbag57
(g78
g59
NtRp1212
(dp1213
g62
(dp1214
g89
g90
ssg71
g1203
sg64
(lp1215
S':'
asbag57
(g78
g59
NtRp1216
(dp1217
g62
(dp1218
sg71
g1203
sg64
(lp1219
g57
(g58
g59
NtRp1220
(dp1221
g62
(dp1222
g70
I4
ssg71
g1216
sg64
(lp1223
S'session_id_welcome=127.0.0.1-85cf6716-f458-4c20-b470-30e58294b230; session_id_admin=127.0.0.1-304ee069-1576-4fbf-bd8b-3f7ad31c7229; session_id_qsuntastebudsv2=127.0.0.1-03c509ec-2cef-426f-a88b-6eb0c079c2a6'
p1224
asbasbasbag57
(g73
g59
NtRp1225
(dp1226
g62
(dp1227
sg71
g847
sg64
(lp1228
g57
(g78
g59
NtRp1229
(dp1230
g62
(dp1231
g82
g83
ssg71
g1225
sg64
(lp1232
S'http_host'
p1233
asbag57
(g78
g59
NtRp1234
(dp1235
g62
(dp1236
g89
g90
ssg71
g1225
sg64
(lp1237
S':'
asbag57
(g78
g59
NtRp1238
(dp1239
g62
(dp1240
sg71
g1225
sg64
(lp1241
g57
(g58
g59
NtRp1242
(dp1243
g62
(dp1244
g70
I4
ssg71
g1238
sg64
(lp1245
S'127.0.0.1:8000'
p1246
asbasbasbag57
(g73
g59
NtRp1247
(dp1248
g62
(dp1249
sg71
g847
sg64
(lp1250
g57
(g78
g59
NtRp1251
(dp1252
g62
(dp1253
g82
g83
ssg71
g1247
sg64
(lp1254
S'http_referer'
p1255
asbag57
(g78
g59
NtRp1256
(dp1257
g62
(dp1258
g89
g90
ssg71
g1247
sg64
(lp1259
S':'
asbag57
(g78
g59
NtRp1260
(dp1261
g62
(dp1262
sg71
g1247
sg64
(lp1263
g57
(g58
g59
NtRp1264
(dp1265
g62
(dp1266
g70
I4
ssg71
g1260
sg64
(lp1267
S'http://127.0.0.1:8000/QSunTasteBudsV2/default/rateRecipe'
p1268
asbasbasbag57
(g73
g59
NtRp1269
(dp1270
g62
(dp1271
sg71
g847
sg64
(lp1272
g57
(g78
g59
NtRp1273
(dp1274
g62
(dp1275
g82
g83
ssg71
g1269
sg64
(lp1276
S'http_user_agent'
p1277
asbag57
(g78
g59
NtRp1278
(dp1279
g62
(dp1280
g89
g90
ssg71
g1269
sg64
(lp1281
S':'
asbag57
(g78
g59
NtRp1282
(dp1283
g62
(dp1284
sg71
g1269
sg64
(lp1285
g57
(g58
g59
NtRp1286
(dp1287
g62
(dp1288
g70
I4
ssg71
g1282
sg64
(lp1289
S'Mozilla/4.0 (compatible; MSIE 8.0; Windows NT 5.1; Trident/4.0; .NET4.0C; .NET4.0E; InfoPath.2; .NET CLR 2.0.50727; .NET CLR 3.0.04506.30)'
p1290
asbasbasbag57
(g73
g59
NtRp1291
(dp1292
g62
(dp1293
sg71
g847
sg64
(lp1294
g57
(g78
g59
NtRp1295
(dp1296
g62
(dp1297
g82
g83
ssg71
g1291
sg64
(lp1298
S'is_jython'
p1299
asbag57
(g78
g59
NtRp1300
(dp1301
g62
(dp1302
g89
g90
ssg71
g1291
sg64
(lp1303
S':'
asbag57
(g78
g59
NtRp1304
(dp1305
g62
(dp1306
sg71
g1291
sg64
(lp1307
g57
(g58
g59
NtRp1308
(dp1309
g62
(dp1310
g70
I4
ssg71
g1304
sg64
(lp1311
g100
asbasbasbag57
(g73
g59
NtRp1312
(dp1313
g62
(dp1314
sg71
g847
sg64
(lp1315
g57
(g78
g59
NtRp1316
(dp1317
g62
(dp1318
g82
g83
ssg71
g1312
sg64
(lp1319
S'is_pypy'
p1320
asbag57
(g78
g59
NtRp1321
(dp1322
g62
(dp1323
g89
g90
ssg71
g1312
sg64
(lp1324
S':'
asbag57
(g78
g59
NtRp1325
(dp1326
g62
(dp1327
sg71
g1312
sg64
(lp1328
g57
(g58
g59
NtRp1329
(dp1330
g62
(dp1331
g70
I4
ssg71
g1325
sg64
(lp1332
g100
asbasbasbag57
(g73
g59
NtRp1333
(dp1334
g62
(dp1335
sg71
g847
sg64
(lp1336
g57
(g78
g59
NtRp1337
(dp1338
g62
(dp1339
g82
g83
ssg71
g1333
sg64
(lp1340
S'path_info'
p1341
asbag57
(g78
g59
NtRp1342
(dp1343
g62
(dp1344
g89
g90
ssg71
g1333
sg64
(lp1345
S':'
asbag57
(g78
g59
NtRp1346
(dp1347
g62
(dp1348
sg71
g1333
sg64
(lp1349
g57
(g58
g59
NtRp1350
(dp1351
g62
(dp1352
g70
I4
ssg71
g1346
sg64
(lp1353
S'/QSunTasteBudsV2/default/rateRecipe'
p1354
asbasbasbag57
(g73
g59
NtRp1355
(dp1356
g62
(dp1357
sg71
g847
sg64
(lp1358
g57
(g78
g59
NtRp1359
(dp1360
g62
(dp1361
g82
g83
ssg71
g1355
sg64
(lp1362
S'query_string'
p1363
asbag57
(g78
g59
NtRp1364
(dp1365
g62
(dp1366
g89
g90
ssg71
g1355
sg64
(lp1367
S':'
asbag57
(g78
g59
NtRp1368
(dp1369
g62
(dp1370
sg71
g1355
sg64
(lp1371
g57
(g58
g59
NtRp1372
(dp1373
g62
(dp1374
g70
I4
ssg71
g1368
sg64
(lp1375
S''
asbasbasbag57
(g73
g59
NtRp1376
(dp1377
g62
(dp1378
sg71
g847
sg64
(lp1379
g57
(g78
g59
NtRp1380
(dp1381
g62
(dp1382
g82
g83
ssg71
g1376
sg64
(lp1383
S'remote_addr'
p1384
asbag57
(g78
g59
NtRp1385
(dp1386
g62
(dp1387
g89
g90
ssg71
g1376
sg64
(lp1388
S':'
asbag57
(g78
g59
NtRp1389
(dp1390
g62
(dp1391
sg71
g1376
sg64
(lp1392
g57
(g58
g59
NtRp1393
(dp1394
g62
(dp1395
g70
I4
ssg71
g1389
sg64
(lp1396
g212
asbasbasbag57
(g73
g59
NtRp1397
(dp1398
g62
(dp1399
sg71
g847
sg64
(lp1400
g57
(g78
g59
NtRp1401
(dp1402
g62
(dp1403
g82
g83
ssg71
g1397
sg64
(lp1404
S'remote_port'
p1405
asbag57
(g78
g59
NtRp1406
(dp1407
g62
(dp1408
g89
g90
ssg71
g1397
sg64
(lp1409
S':'
asbag57
(g78
g59
NtRp1410
(dp1411
g62
(dp1412
sg71
g1397
sg64
(lp1413
g57
(g58
g59
NtRp1414
(dp1415
g62
(dp1416
g70
I4
ssg71
g1410
sg64
(lp1417
S'3832'
p1418
asbasbasbag57
(g73
g59
NtRp1419
(dp1420
g62
(dp1421
sg71
g847
sg64
(lp1422
g57
(g78
g59
NtRp1423
(dp1424
g62
(dp1425
g82
g83
ssg71
g1419
sg64
(lp1426
S'request_method'
p1427
asbag57
(g78
g59
NtRp1428
(dp1429
g62
(dp1430
g89
g90
ssg71
g1419
sg64
(lp1431
S':'
asbag57
(g78
g59
NtRp1432
(dp1433
g62
(dp1434
sg71
g1419
sg64
(lp1435
g57
(g58
g59
NtRp1436
(dp1437
g62
(dp1438
g70
I4
ssg71
g1432
sg64
(lp1439
S'POST'
p1440
asbasbasbag57
(g73
g59
NtRp1441
(dp1442
g62
(dp1443
sg71
g847
sg64
(lp1444
g57
(g78
g59
NtRp1445
(dp1446
g62
(dp1447
g82
g83
ssg71
g1441
sg64
(lp1448
S'request_uri'
p1449
asbag57
(g78
g59
NtRp1450
(dp1451
g62
(dp1452
g89
g90
ssg71
g1441
sg64
(lp1453
S':'
asbag57
(g78
g59
NtRp1454
(dp1455
g62
(dp1456
sg71
g1441
sg64
(lp1457
g57
(g58
g59
NtRp1458
(dp1459
g62
(dp1460
g70
I4
ssg71
g1454
sg64
(lp1461
g1354
asbasbasbag57
(g73
g59
NtRp1462
(dp1463
g62
(dp1464
sg71
g847
sg64
(lp1465
g57
(g78
g59
NtRp1466
(dp1467
g62
(dp1468
g82
g83
ssg71
g1462
sg64
(lp1469
S'script_name'
p1470
asbag57
(g78
g59
NtRp1471
(dp1472
g62
(dp1473
g89
g90
ssg71
g1462
sg64
(lp1474
S':'
asbag57
(g78
g59
NtRp1475
(dp1476
g62
(dp1477
sg71
g1462
sg64
(lp1478
g57
(g58
g59
NtRp1479
(dp1480
g62
(dp1481
g70
I4
ssg71
g1475
sg64
(lp1482
S''
asbasbasbag57
(g73
g59
NtRp1483
(dp1484
g62
(dp1485
sg71
g847
sg64
(lp1486
g57
(g78
g59
NtRp1487
(dp1488
g62
(dp1489
g82
g83
ssg71
g1483
sg64
(lp1490
S'server_name'
p1491
asbag57
(g78
g59
NtRp1492
(dp1493
g62
(dp1494
g89
g90
ssg71
g1483
sg64
(lp1495
S':'
asbag57
(g78
g59
NtRp1496
(dp1497
g62
(dp1498
sg71
g1483
sg64
(lp1499
g57
(g58
g59
NtRp1500
(dp1501
g62
(dp1502
g70
I4
ssg71
g1496
sg64
(lp1503
S'MICROSOF-F36848'
p1504
asbasbasbag57
(g73
g59
NtRp1505
(dp1506
g62
(dp1507
sg71
g847
sg64
(lp1508
g57
(g78
g59
NtRp1509
(dp1510
g62
(dp1511
g82
g83
ssg71
g1505
sg64
(lp1512
S'server_port'
p1513
asbag57
(g78
g59
NtRp1514
(dp1515
g62
(dp1516
g89
g90
ssg71
g1505
sg64
(lp1517
S':'
asbag57
(g78
g59
NtRp1518
(dp1519
g62
(dp1520
sg71
g1505
sg64
(lp1521
g57
(g58
g59
NtRp1522
(dp1523
g62
(dp1524
g70
I4
ssg71
g1518
sg64
(lp1525
S'8000'
p1526
asbasbasbag57
(g73
g59
NtRp1527
(dp1528
g62
(dp1529
sg71
g847
sg64
(lp1530
g57
(g78
g59
NtRp1531
(dp1532
g62
(dp1533
g82
g83
ssg71
g1527
sg64
(lp1534
S'server_protocol'
p1535
asbag57
(g78
g59
NtRp1536
(dp1537
g62
(dp1538
g89
g90
ssg71
g1527
sg64
(lp1539
S':'
asbag57
(g78
g59
NtRp1540
(dp1541
g62
(dp1542
sg71
g1527
sg64
(lp1543
g57
(g58
g59
NtRp1544
(dp1545
g62
(dp1546
g70
I4
ssg71
g1540
sg64
(lp1547
S'HTTP/1.1'
p1548
asbasbasbag57
(g73
g59
NtRp1549
(dp1550
g62
(dp1551
sg71
g847
sg64
(lp1552
g57
(g78
g59
NtRp1553
(dp1554
g62
(dp1555
g82
g83
ssg71
g1549
sg64
(lp1556
S'server_software'
p1557
asbag57
(g78
g59
NtRp1558
(dp1559
g62
(dp1560
g89
g90
ssg71
g1549
sg64
(lp1561
S':'
asbag57
(g78
g59
NtRp1562
(dp1563
g62
(dp1564
sg71
g1549
sg64
(lp1565
g57
(g58
g59
NtRp1566
(dp1567
g62
(dp1568
g70
I4
ssg71
g1562
sg64
(lp1569
S'Rocket 1.2.4'
p1570
asbasbasbag57
(g73
g59
NtRp1571
(dp1572
g62
(dp1573
sg71
g847
sg64
(lp1574
g57
(g78
g59
NtRp1575
(dp1576
g62
(dp1577
g82
g83
ssg71
g1571
sg64
(lp1578
S'web2py_crontype'
p1579
asbag57
(g78
g59
NtRp1580
(dp1581
g62
(dp1582
g89
g90
ssg71
g1571
sg64
(lp1583
S':'
asbag57
(g78
g59
NtRp1584
(dp1585
g62
(dp1586
sg71
g1571
sg64
(lp1587
g57
(g58
g59
NtRp1588
(dp1589
g62
(dp1590
g70
I4
ssg71
g1584
sg64
(lp1591
S'hard'
p1592
asbasbasbag57
(g73
g59
NtRp1593
(dp1594
g62
(dp1595
sg71
g847
sg64
(lp1596
g57
(g78
g59
NtRp1597
(dp1598
g62
(dp1599
g82
g83
ssg71
g1593
sg64
(lp1600
S'web2py_path'
p1601
asbag57
(g78
g59
NtRp1602
(dp1603
g62
(dp1604
g89
g90
ssg71
g1593
sg64
(lp1605
S':'
asbag57
(g78
g59
NtRp1606
(dp1607
g62
(dp1608
sg71
g1593
sg64
(lp1609
g57
(g58
g59
NtRp1610
(dp1611
g62
(dp1612
g70
I4
ssg71
g1606
sg64
(lp1613
g894
asbasbasbag57
(g73
g59
NtRp1614
(dp1615
g62
(dp1616
sg71
g847
sg64
(lp1617
g57
(g78
g59
NtRp1618
(dp1619
g62
(dp1620
g82
g83
ssg71
g1614
sg64
(lp1621
S'web2py_version'
p1622
asbag57
(g78
g59
NtRp1623
(dp1624
g62
(dp1625
g89
g90
ssg71
g1614
sg64
(lp1626
S':'
asbag57
(g78
g59
NtRp1627
(dp1628
g62
(dp1629
sg71
g1614
sg64
(lp1630
g57
(g58
g59
NtRp1631
(dp1632
g62
(dp1633
g70
I4
ssg71
g1627
sg64
(lp1634
g57
(g66
g59
NtRp1635
(dp1636
g62
(dp1637
g70
I3
ssg71
Nsg64
(lp1638
g57
(g73
g59
NtRp1639
(dp1640
g62
(dp1641
sg71
g1635
sg64
(lp1642
g57
(g78
g59
NtRp1643
(dp1644
g62
(dp1645
sg71
g1639
sg64
(lp1646
g57
(g58
g59
NtRp1647
(dp1648
g62
(dp1649
g70
I3
ssg71
g1643
sg64
(lp1650
S'2'
asbasbasbag57
(g73
g59
NtRp1651
(dp1652
g62
(dp1653
sg71
g1635
sg64
(lp1654
g57
(g78
g59
NtRp1655
(dp1656
g62
(dp1657
sg71
g1651
sg64
(lp1658
g57
(g58
g59
NtRp1659
(dp1660
g62
(dp1661
g70
I3
ssg71
g1655
sg64
(lp1662
S'0'
asbasbasbag57
(g73
g59
NtRp1663
(dp1664
g62
(dp1665
sg71
g1635
sg64
(lp1666
g57
(g78
g59
NtRp1667
(dp1668
g62
(dp1669
sg71
g1663
sg64
(lp1670
g57
(g58
g59
NtRp1671
(dp1672
g62
(dp1673
g70
I3
ssg71
g1667
sg64
(lp1674
S'9'
asbasbasbag57
(g73
g59
NtRp1675
(dp1676
g62
(dp1677
sg71
g1635
sg64
(lp1678
g57
(g78
g59
NtRp1679
(dp1680
g62
(dp1681
sg71
g1675
sg64
(lp1682
g57
(g58
g59
NtRp1683
(dp1684
g62
(dp1685
g70
I3
ssg71
g1679
sg64
(lp1686
S'datetime.datetime(2012, 9, 13, 23, 51, 30)'
p1687
asbasbasbag57
(g73
g59
NtRp1688
(dp1689
g62
(dp1690
sg71
g1635
sg64
(lp1691
g57
(g78
g59
NtRp1692
(dp1693
g62
(dp1694
sg71
g1688
sg64
(lp1695
g57
(g58
g59
NtRp1696
(dp1697
g62
(dp1698
g70
I3
ssg71
g1692
sg64
(lp1699
S'stable'
p1700
asbasbasbasbasbasbasbag57
(g73
g59
NtRp1701
(dp1702
g62
(dp1703
sg71
g847
sg64
(lp1704
g57
(g78
g59
NtRp1705
(dp1706
g62
(dp1707
g82
g83
ssg71
g1701
sg64
(lp1708
S'wsgi_errors'
p1709
asbag57
(g78
g59
NtRp1710
(dp1711
g62
(dp1712
g89
g90
ssg71
g1701
sg64
(lp1713
S':'
asbag57
(g78
g59
NtRp1714
(dp1715
g62
(dp1716
sg71
g1701
sg64
(lp1717
g57
(g58
g59
NtRp1718
(dp1719
g62
(dp1720
g70
I4
ssg71
g1714
sg64
(lp1721
S"<open file '<stderr>', mode 'w' at 0x009350D0>"
p1722
asbasbasbag57
(g73
g59
NtRp1723
(dp1724
g62
(dp1725
sg71
g847
sg64
(lp1726
g57
(g78
g59
NtRp1727
(dp1728
g62
(dp1729
g82
g83
ssg71
g1723
sg64
(lp1730
S'wsgi_file_wrapper'
p1731
asbag57
(g78
g59
NtRp1732
(dp1733
g62
(dp1734
g89
g90
ssg71
g1723
sg64
(lp1735
S':'
asbag57
(g78
g59
NtRp1736
(dp1737
g62
(dp1738
sg71
g1723
sg64
(lp1739
g57
(g58
g59
NtRp1740
(dp1741
g62
(dp1742
g70
I4
ssg71
g1736
sg64
(lp1743
S'<class wsgiref.util.FileWrapper at 0x016DAF10>'
p1744
asbasbasbag57
(g73
g59
NtRp1745
(dp1746
g62
(dp1747
sg71
g847
sg64
(lp1748
g57
(g78
g59
NtRp1749
(dp1750
g62
(dp1751
g82
g83
ssg71
g1745
sg64
(lp1752
S'wsgi_input'
p1753
asbag57
(g78
g59
NtRp1754
(dp1755
g62
(dp1756
g89
g90
ssg71
g1745
sg64
(lp1757
S':'
asbag57
(g78
g59
NtRp1758
(dp1759
g62
(dp1760
sg71
g1745
sg64
(lp1761
g57
(g58
g59
NtRp1762
(dp1763
g62
(dp1764
g70
I4
ssg71
g1758
sg64
(lp1765
S'<socket._fileobject object at 0x044D84F0>'
p1766
asbasbasbag57
(g73
g59
NtRp1767
(dp1768
g62
(dp1769
sg71
g847
sg64
(lp1770
g57
(g78
g59
NtRp1771
(dp1772
g62
(dp1773
g82
g83
ssg71
g1767
sg64
(lp1774
S'wsgi_multiprocess'
p1775
asbag57
(g78
g59
NtRp1776
(dp1777
g62
(dp1778
g89
g90
ssg71
g1767
sg64
(lp1779
S':'
asbag57
(g78
g59
NtRp1780
(dp1781
g62
(dp1782
sg71
g1767
sg64
(lp1783
g57
(g58
g59
NtRp1784
(dp1785
g62
(dp1786
g70
I4
ssg71
g1780
sg64
(lp1787
g100
asbasbasbag57
(g73
g59
NtRp1788
(dp1789
g62
(dp1790
sg71
g847
sg64
(lp1791
g57
(g78
g59
NtRp1792
(dp1793
g62
(dp1794
g82
g83
ssg71
g1788
sg64
(lp1795
S'wsgi_multithread'
p1796
asbag57
(g78
g59
NtRp1797
(dp1798
g62
(dp1799
g89
g90
ssg71
g1788
sg64
(lp1800
S':'
asbag57
(g78
g59
NtRp1801
(dp1802
g62
(dp1803
sg71
g1788
sg64
(lp1804
g57
(g58
g59
NtRp1805
(dp1806
g62
(dp1807
g70
I4
ssg71
g1801
sg64
(lp1808
S'True'
p1809
asbasbasbag57
(g73
g59
NtRp1810
(dp1811
g62
(dp1812
sg71
g847
sg64
(lp1813
g57
(g78
g59
NtRp1814
(dp1815
g62
(dp1816
g82
g83
ssg71
g1810
sg64
(lp1817
S'wsgi_run_once'
p1818
asbag57
(g78
g59
NtRp1819
(dp1820
g62
(dp1821
g89
g90
ssg71
g1810
sg64
(lp1822
S':'
asbag57
(g78
g59
NtRp1823
(dp1824
g62
(dp1825
sg71
g1810
sg64
(lp1826
g57
(g58
g59
NtRp1827
(dp1828
g62
(dp1829
g70
I4
ssg71
g1823
sg64
(lp1830
g100
asbasbasbag57
(g73
g59
NtRp1831
(dp1832
g62
(dp1833
sg71
g847
sg64
(lp1834
g57
(g78
g59
NtRp1835
(dp1836
g62
(dp1837
g82
g83
ssg71
g1831
sg64
(lp1838
S'wsgi_url_scheme'
p1839
asbag57
(g78
g59
NtRp1840
(dp1841
g62
(dp1842
g89
g90
ssg71
g1831
sg64
(lp1843
S':'
asbag57
(g78
g59
NtRp1844
(dp1845
g62
(dp1846
sg71
g1831
sg64
(lp1847
g57
(g58
g59
NtRp1848
(dp1849
g62
(dp1850
g70
I4
ssg71
g1844
sg64
(lp1851
S'http'
p1852
asbasbasbag57
(g73
g59
NtRp1853
(dp1854
g62
(dp1855
sg71
g847
sg64
(lp1856
g57
(g78
g59
NtRp1857
(dp1858
g62
(dp1859
g82
g83
ssg71
g1853
sg64
(lp1860
S'wsgi_version'
p1861
asbag57
(g78
g59
NtRp1862
(dp1863
g62
(dp1864
g89
g90
ssg71
g1853
sg64
(lp1865
S':'
asbag57
(g78
g59
NtRp1866
(dp1867
g62
(dp1868
sg71
g1853
sg64
(lp1869
g57
(g58
g59
NtRp1870
(dp1871
g62
(dp1872
g70
I4
ssg71
g1866
sg64
(lp1873
g57
(g66
g59
NtRp1874
(dp1875
g62
(dp1876
g70
I3
ssg71
Nsg64
(lp1877
g57
(g73
g59
NtRp1878
(dp1879
g62
(dp1880
sg71
g1874
sg64
(lp1881
g57
(g78
g59
NtRp1882
(dp1883
g62
(dp1884
sg71
g1878
sg64
(lp1885
g57
(g58
g59
NtRp1886
(dp1887
g62
(dp1888
g70
I3
ssg71
g1882
sg64
(lp1889
S'1'
asbasbasbag57
(g73
g59
NtRp1890
(dp1891
g62
(dp1892
sg71
g1874
sg64
(lp1893
g57
(g78
g59
NtRp1894
(dp1895
g62
(dp1896
sg71
g1890
sg64
(lp1897
g57
(g58
g59
NtRp1898
(dp1899
g62
(dp1900
g70
I3
ssg71
g1894
sg64
(lp1901
S'0'
asbasbasbasbasbasbasbasbasbasbasbag57
(g73
g59
NtRp1902
(dp1903
g62
(dp1904
sg71
g67
sg64
(lp1905
g57
(g78
g59
NtRp1906
(dp1907
g62
(dp1908
g82
g83
ssg71
g1902
sg64
(lp1909
S'extension'
p1910
asbag57
(g78
g59
NtRp1911
(dp1912
g62
(dp1913
g89
g90
ssg71
g1902
sg64
(lp1914
S':'
asbag57
(g78
g59
NtRp1915
(dp1916
g62
(dp1917
sg71
g1902
sg64
(lp1918
g57
(g58
g59
NtRp1919
(dp1920
g62
(dp1921
g70
I5
ssg71
g1915
sg64
(lp1922
S'html'
p1923
asbasbasbag57
(g73
g59
NtRp1924
(dp1925
g62
(dp1926
sg71
g67
sg64
(lp1927
g57
(g78
g59
NtRp1928
(dp1929
g62
(dp1930
g82
g83
ssg71
g1924
sg64
(lp1931
S'folder'
p1932
asbag57
(g78
g59
NtRp1933
(dp1934
g62
(dp1935
g89
g90
ssg71
g1924
sg64
(lp1936
S':'
asbag57
(g78
g59
NtRp1937
(dp1938
g62
(dp1939
sg71
g1924
sg64
(lp1940
g57
(g58
g59
NtRp1941
(dp1942
g62
(dp1943
g70
I5
ssg71
g1937
sg64
(lp1944
S'D:\\web2py_win\\web2py\\applications\\QSunTasteBudsV2\\'
p1945
asbasbasbag57
(g73
g59
NtRp1946
(dp1947
g62
(dp1948
sg71
g67
sg64
(lp1949
g57
(g78
g59
NtRp1950
(dp1951
g62
(dp1952
g82
g83
ssg71
g1946
sg64
(lp1953
S'function'
p1954
asbag57
(g78
g59
NtRp1955
(dp1956
g62
(dp1957
g89
g90
ssg71
g1946
sg64
(lp1958
S':'
asbag57
(g78
g59
NtRp1959
(dp1960
g62
(dp1961
sg71
g1946
sg64
(lp1962
g57
(g58
g59
NtRp1963
(dp1964
g62
(dp1965
g70
I5
ssg71
g1959
sg64
(lp1966
S'rateRecipe'
p1967
asbasbasbag57
(g73
g59
NtRp1968
(dp1969
g62
(dp1970
sg71
g67
sg64
(lp1971
g57
(g78
g59
NtRp1972
(dp1973
g62
(dp1974
g82
g83
ssg71
g1968
sg64
(lp1975
S'get_vars'
p1976
asbag57
(g78
g59
NtRp1977
(dp1978
g62
(dp1979
g89
g90
ssg71
g1968
sg64
(lp1980
S':'
asbag57
(g78
g59
NtRp1981
(dp1982
g62
(dp1983
sg71
g1968
sg64
(lp1984
g57
(g58
g59
NtRp1985
(dp1986
g62
(dp1987
g70
I5
ssg71
g1981
sg64
(lp1988
g57
(g66
g59
NtRp1989
(dp1990
g62
(dp1991
g70
I4
ssg71
Nsg64
(lp1992
sbasbasbasbag57
(g73
g59
NtRp1993
(dp1994
g62
(dp1995
sg71
g67
sg64
(lp1996
g57
(g78
g59
NtRp1997
(dp1998
g62
(dp1999
g82
g83
ssg71
g1993
sg64
(lp2000
S'global_settings'
p2001
asbag57
(g78
g59
NtRp2002
(dp2003
g62
(dp2004
g89
g90
ssg71
g1993
sg64
(lp2005
S':'
asbag57
(g78
g59
NtRp2006
(dp2007
g62
(dp2008
sg71
g1993
sg64
(lp2009
g57
(g58
g59
NtRp2010
(dp2011
g62
(dp2012
g70
I5
ssg71
g2006
sg64
(lp2013
g57
(g66
g59
NtRp2014
(dp2015
g62
(dp2016
g70
I4
ssg71
Nsg64
(lp2017
g57
(g73
g59
NtRp2018
(dp2019
g62
(dp2020
sg71
g2014
sg64
(lp2021
g57
(g78
g59
NtRp2022
(dp2023
g62
(dp2024
g82
g83
ssg71
g2018
sg64
(lp2025
g859
asbag57
(g78
g59
NtRp2026
(dp2027
g62
(dp2028
g89
g90
ssg71
g2018
sg64
(lp2029
S':'
asbag57
(g78
g59
NtRp2030
(dp2031
g62
(dp2032
sg71
g2018
sg64
(lp2033
g57
(g58
g59
NtRp2034
(dp2035
g62
(dp2036
g70
I4
ssg71
g2030
sg64
(lp2037
S"set(['D:\\\\web2py_win\\\\web2py\\\\applications\\\\welcome\\\\', 'D:\\\\web2py_win\\\\web2py\\\\applications\\\\admin\\\\', 'D:\\\\web2py_win\\\\web2py\\\\applications\\\\QSunTasteBudsV2\\\\'])"
p2038
asbasbasbag57
(g73
g59
NtRp2039
(dp2040
g62
(dp2041
sg71
g2014
sg64
(lp2042
g57
(g78
g59
NtRp2043
(dp2044
g62
(dp2045
g82
g83
ssg71
g2039
sg64
(lp2046
g881
asbag57
(g78
g59
NtRp2047
(dp2048
g62
(dp2049
g89
g90
ssg71
g2039
sg64
(lp2050
S':'
asbag57
(g78
g59
NtRp2051
(dp2052
g62
(dp2053
sg71
g2039
sg64
(lp2054
g57
(g58
g59
NtRp2055
(dp2056
g62
(dp2057
g70
I4
ssg71
g2051
sg64
(lp2058
g894
asbasbasbag57
(g73
g59
NtRp2059
(dp2060
g62
(dp2061
sg71
g2014
sg64
(lp2062
g57
(g78
g59
NtRp2063
(dp2064
g62
(dp2065
g82
g83
ssg71
g2059
sg64
(lp2066
g903
asbag57
(g78
g59
NtRp2067
(dp2068
g62
(dp2069
g89
g90
ssg71
g2059
sg64
(lp2070
S':'
asbag57
(g78
g59
NtRp2071
(dp2072
g62
(dp2073
sg71
g2059
sg64
(lp2074
g57
(g58
g59
NtRp2075
(dp2076
g62
(dp2077
g70
I4
ssg71
g2071
sg64
(lp2078
g57
(g66
g59
NtRp2079
(dp2080
g62
(dp2081
g70
I3
ssg71
Nsg64
(lp2082
sbasbasbasbag57
(g73
g59
NtRp2083
(dp2084
g62
(dp2085
sg71
g2014
sg64
(lp2086
g57
(g78
g59
NtRp2087
(dp2088
g62
(dp2089
g82
g83
ssg71
g2083
sg64
(lp2090
g928
asbag57
(g78
g59
NtRp2091
(dp2092
g62
(dp2093
g89
g90
ssg71
g2083
sg64
(lp2094
S':'
asbag57
(g78
g59
NtRp2095
(dp2096
g62
(dp2097
sg71
g2083
sg64
(lp2098
g57
(g58
g59
NtRp2099
(dp2100
g62
(dp2101
g70
I4
ssg71
g2095
sg64
(lp2102
S"<Values at 0x17494b8: {'verbose': False, 'ip': '127.0.0.1', 'with_scheduler': False, 'ips': [], 'shutdown_timeout': 5, 'taskbar': False, 'port': 8000, 'maxthreads': None, 'softcron': False, 'server_name': 'MICROSOF-F36848', 'bpython': False, 'nogui': False, 'nocron': False, 'extcron': False, 'run_system_tests': False, 'test': None, 'folder': 'D:\\\\web2py_win\\\\web2py', 'config': '', 'import_models': False, 'winservice': '', 'shell': None, 'run': '', 'log_filename': 'httpserver.log', 'debuglevel': 30, 'args': [''], 'socket_timeout': 5, 'ssl_ca_certificate': None, 'scheduler': None, 'profiler_filename': None, 'ssl_private_key': '', 'scheduler_groups': None, 'password': '<ask>', 'request_queue_size': 5, 'ssl_certificate': '', 'cronjob': False, 'numthreads': None, 'quiet': False, 'interfaces': None, 'minthreads': None, 'timeout': 10, 'plain': False, 'nobanner': False, 'pid_filename': 'httpserver.pid'}>"
p2103
asbasbasbag57
(g73
g59
NtRp2104
(dp2105
g62
(dp2106
sg71
g2014
sg64
(lp2107
g57
(g78
g59
NtRp2108
(dp2109
g62
(dp2110
g82
g83
ssg71
g2104
sg64
(lp2111
g994
asbag57
(g78
g59
NtRp2112
(dp2113
g62
(dp2114
g89
g90
ssg71
g2104
sg64
(lp2115
S':'
asbag57
(g78
g59
NtRp2116
(dp2117
g62
(dp2118
sg71
g2104
sg64
(lp2119
g57
(g58
g59
NtRp2120
(dp2121
g62
(dp2122
g70
I4
ssg71
g2116
sg64
(lp2123
S'set([])'
p2124
asbasbasbag57
(g73
g59
NtRp2125
(dp2126
g62
(dp2127
sg71
g2014
sg64
(lp2128
g57
(g78
g59
NtRp2129
(dp2130
g62
(dp2131
g82
g83
ssg71
g2125
sg64
(lp2132
g1016
asbag57
(g78
g59
NtRp2133
(dp2134
g62
(dp2135
g89
g90
ssg71
g2125
sg64
(lp2136
S':'
asbag57
(g78
g59
NtRp2137
(dp2138
g62
(dp2139
sg71
g2125
sg64
(lp2140
g57
(g58
g59
NtRp2141
(dp2142
g62
(dp2143
g70
I4
ssg71
g2137
sg64
(lp2144
g100
asbasbasbag57
(g73
g59
NtRp2145
(dp2146
g62
(dp2147
sg71
g2014
sg64
(lp2148
g57
(g78
g59
NtRp2149
(dp2150
g62
(dp2151
g82
g83
ssg71
g2145
sg64
(lp2152
g1037
asbag57
(g78
g59
NtRp2153
(dp2154
g62
(dp2155
g89
g90
ssg71
g2145
sg64
(lp2156
S':'
asbag57
(g78
g59
NtRp2157
(dp2158
g62
(dp2159
sg71
g2145
sg64
(lp2160
g57
(g58
g59
NtRp2161
(dp2162
g62
(dp2163
g70
I4
ssg71
g2157
sg64
(lp2164
g1050
asbasbasbag57
(g73
g59
NtRp2165
(dp2166
g62
(dp2167
sg71
g2014
sg64
(lp2168
g57
(g78
g59
NtRp2169
(dp2170
g62
(dp2171
g82
g83
ssg71
g2165
sg64
(lp2172
g1299
asbag57
(g78
g59
NtRp2173
(dp2174
g62
(dp2175
g89
g90
ssg71
g2165
sg64
(lp2176
S':'
asbag57
(g78
g59
NtRp2177
(dp2178
g62
(dp2179
sg71
g2165
sg64
(lp2180
g57
(g58
g59
NtRp2181
(dp2182
g62
(dp2183
g70
I4
ssg71
g2177
sg64
(lp2184
g100
asbasbasbag57
(g73
g59
NtRp2185
(dp2186
g62
(dp2187
sg71
g2014
sg64
(lp2188
g57
(g78
g59
NtRp2189
(dp2190
g62
(dp2191
g82
g83
ssg71
g2185
sg64
(lp2192
g1320
asbag57
(g78
g59
NtRp2193
(dp2194
g62
(dp2195
g89
g90
ssg71
g2185
sg64
(lp2196
S':'
asbag57
(g78
g59
NtRp2197
(dp2198
g62
(dp2199
sg71
g2185
sg64
(lp2200
g57
(g58
g59
NtRp2201
(dp2202
g62
(dp2203
g70
I4
ssg71
g2197
sg64
(lp2204
g100
asbasbasbag57
(g73
g59
NtRp2205
(dp2206
g62
(dp2207
sg71
g2014
sg64
(lp2208
g57
(g78
g59
NtRp2209
(dp2210
g62
(dp2211
g82
g83
ssg71
g2205
sg64
(lp2212
g1579
asbag57
(g78
g59
NtRp2213
(dp2214
g62
(dp2215
g89
g90
ssg71
g2205
sg64
(lp2216
S':'
asbag57
(g78
g59
NtRp2217
(dp2218
g62
(dp2219
sg71
g2205
sg64
(lp2220
g57
(g58
g59
NtRp2221
(dp2222
g62
(dp2223
g70
I4
ssg71
g2217
sg64
(lp2224
g1592
asbasbasbag57
(g73
g59
NtRp2225
(dp2226
g62
(dp2227
sg71
g2014
sg64
(lp2228
g57
(g78
g59
NtRp2229
(dp2230
g62
(dp2231
g82
g83
ssg71
g2225
sg64
(lp2232
g1622
asbag57
(g78
g59
NtRp2233
(dp2234
g62
(dp2235
g89
g90
ssg71
g2225
sg64
(lp2236
S':'
asbag57
(g78
g59
NtRp2237
(dp2238
g62
(dp2239
sg71
g2225
sg64
(lp2240
g57
(g58
g59
NtRp2241
(dp2242
g62
(dp2243
g70
I4
ssg71
g2237
sg64
(lp2244
g57
(g66
g59
NtRp2245
(dp2246
g62
(dp2247
g70
I3
ssg71
Nsg64
(lp2248
g57
(g73
g59
NtRp2249
(dp2250
g62
(dp2251
sg71
g2245
sg64
(lp2252
g57
(g78
g59
NtRp2253
(dp2254
g62
(dp2255
sg71
g2249
sg64
(lp2256
g57
(g58
g59
NtRp2257
(dp2258
g62
(dp2259
g70
I3
ssg71
g2253
sg64
(lp2260
S'2'
asbasbasbag57
(g73
g59
NtRp2261
(dp2262
g62
(dp2263
sg71
g2245
sg64
(lp2264
g57
(g78
g59
NtRp2265
(dp2266
g62
(dp2267
sg71
g2261
sg64
(lp2268
g57
(g58
g59
NtRp2269
(dp2270
g62
(dp2271
g70
I3
ssg71
g2265
sg64
(lp2272
S'0'
asbasbasbag57
(g73
g59
NtRp2273
(dp2274
g62
(dp2275
sg71
g2245
sg64
(lp2276
g57
(g78
g59
NtRp2277
(dp2278
g62
(dp2279
sg71
g2273
sg64
(lp2280
g57
(g58
g59
NtRp2281
(dp2282
g62
(dp2283
g70
I3
ssg71
g2277
sg64
(lp2284
S'9'
asbasbasbag57
(g73
g59
NtRp2285
(dp2286
g62
(dp2287
sg71
g2245
sg64
(lp2288
g57
(g78
g59
NtRp2289
(dp2290
g62
(dp2291
sg71
g2285
sg64
(lp2292
g57
(g58
g59
NtRp2293
(dp2294
g62
(dp2295
g70
I3
ssg71
g2289
sg64
(lp2296
S'datetime.datetime(2012, 9, 13, 23, 51, 30)'
p2297
asbasbasbag57
(g73
g59
NtRp2298
(dp2299
g62
(dp2300
sg71
g2245
sg64
(lp2301
g57
(g78
g59
NtRp2302
(dp2303
g62
(dp2304
sg71
g2298
sg64
(lp2305
g57
(g58
g59
NtRp2306
(dp2307
g62
(dp2308
g70
I3
ssg71
g2302
sg64
(lp2309
g1700
asbasbasbasbasbasbasbasbasbasbasbag57
(g73
g59
NtRp2310
(dp2311
g62
(dp2312
sg71
g67
sg64
(lp2313
g57
(g78
g59
NtRp2314
(dp2315
g62
(dp2316
g82
g83
ssg71
g2310
sg64
(lp2317
S'is_https'
p2318
asbag57
(g78
g59
NtRp2319
(dp2320
g62
(dp2321
g89
g90
ssg71
g2310
sg64
(lp2322
S':'
asbag57
(g78
g59
NtRp2323
(dp2324
g62
(dp2325
sg71
g2310
sg64
(lp2326
g57
(g58
g59
NtRp2327
(dp2328
g62
(dp2329
g70
I5
ssg71
g2323
sg64
(lp2330
g100
asbasbasbag57
(g73
g59
NtRp2331
(dp2332
g62
(dp2333
sg71
g67
sg64
(lp2334
g57
(g78
g59
NtRp2335
(dp2336
g62
(dp2337
g82
g83
ssg71
g2331
sg64
(lp2338
S'is_local'
p2339
asbag57
(g78
g59
NtRp2340
(dp2341
g62
(dp2342
g89
g90
ssg71
g2331
sg64
(lp2343
S':'
asbag57
(g78
g59
NtRp2344
(dp2345
g62
(dp2346
sg71
g2331
sg64
(lp2347
g57
(g58
g59
NtRp2348
(dp2349
g62
(dp2350
g70
I5
ssg71
g2344
sg64
(lp2351
g1809
asbasbasbag57
(g73
g59
NtRp2352
(dp2353
g62
(dp2354
sg71
g67
sg64
(lp2355
g57
(g78
g59
NtRp2356
(dp2357
g62
(dp2358
g82
g83
ssg71
g2352
sg64
(lp2359
S'is_restful'
p2360
asbag57
(g78
g59
NtRp2361
(dp2362
g62
(dp2363
g89
g90
ssg71
g2352
sg64
(lp2364
S':'
asbag57
(g78
g59
NtRp2365
(dp2366
g62
(dp2367
sg71
g2352
sg64
(lp2368
g57
(g58
g59
NtRp2369
(dp2370
g62
(dp2371
g70
I5
ssg71
g2365
sg64
(lp2372
g100
asbasbasbag57
(g73
g59
NtRp2373
(dp2374
g62
(dp2375
sg71
g67
sg64
(lp2376
g57
(g78
g59
NtRp2377
(dp2378
g62
(dp2379
g82
g83
ssg71
g2373
sg64
(lp2380
S'now'
p2381
asbag57
(g78
g59
NtRp2382
(dp2383
g62
(dp2384
g89
g90
ssg71
g2373
sg64
(lp2385
S':'
asbag57
(g78
g59
NtRp2386
(dp2387
g62
(dp2388
sg71
g2373
sg64
(lp2389
g57
(g58
g59
NtRp2390
(dp2391
g62
(dp2392
g70
I5
ssg71
g2386
sg64
(lp2393
S'datetime.datetime(2012, 11, 27, 20, 15, 26, 484000)'
p2394
asbasbasbag57
(g73
g59
NtRp2395
(dp2396
g62
(dp2397
sg71
g67
sg64
(lp2398
g57
(g78
g59
NtRp2399
(dp2400
g62
(dp2401
g82
g83
ssg71
g2395
sg64
(lp2402
S'post_vars'
p2403
asbag57
(g78
g59
NtRp2404
(dp2405
g62
(dp2406
g89
g90
ssg71
g2395
sg64
(lp2407
S':'
asbag57
(g78
g59
NtRp2408
(dp2409
g62
(dp2410
sg71
g2395
sg64
(lp2411
g57
(g58
g59
NtRp2412
(dp2413
g62
(dp2414
g70
I5
ssg71
g2408
sg64
(lp2415
g57
(g66
g59
NtRp2416
(dp2417
g62
(dp2418
g70
I4
ssg71
Nsg64
(lp2419
g57
(g73
g59
NtRp2420
(dp2421
g62
(dp2422
sg71
g2416
sg64
(lp2423
g57
(g78
g59
NtRp2424
(dp2425
g62
(dp2426
g82
g83
ssg71
g2420
sg64
(lp2427
S'rating'
p2428
asbag57
(g78
g59
NtRp2429
(dp2430
g62
(dp2431
g89
g90
ssg71
g2420
sg64
(lp2432
S':'
asbag57
(g78
g59
NtRp2433
(dp2434
g62
(dp2435
sg71
g2420
sg64
(lp2436
g57
(g58
g59
NtRp2437
(dp2438
g62
(dp2439
g70
I4
ssg71
g2433
sg64
(lp2440
S'bad'
p2441
asbasbasbasbasbasbasbag57
(g73
g59
NtRp2442
(dp2443
g62
(dp2444
sg71
g67
sg64
(lp2445
g57
(g78
g59
NtRp2446
(dp2447
g62
(dp2448
g82
g83
ssg71
g2442
sg64
(lp2449
S'raw_args'
p2450
asbag57
(g78
g59
NtRp2451
(dp2452
g62
(dp2453
g89
g90
ssg71
g2442
sg64
(lp2454
S':'
asbag57
(g78
g59
NtRp2455
(dp2456
g62
(dp2457
sg71
g2442
sg64
(lp2458
g57
(g58
g59
NtRp2459
(dp2460
g62
(dp2461
g70
I5
ssg71
g2455
sg64
(lp2462
S'None'
p2463
asbasbasbag57
(g73
g59
NtRp2464
(dp2465
g62
(dp2466
sg71
g67
sg64
(lp2467
g57
(g78
g59
NtRp2468
(dp2469
g62
(dp2470
g82
g83
ssg71
g2464
sg64
(lp2471
S'raw_extension'
p2472
asbag57
(g78
g59
NtRp2473
(dp2474
g62
(dp2475
g89
g90
ssg71
g2464
sg64
(lp2476
S':'
asbag57
(g78
g59
NtRp2477
(dp2478
g62
(dp2479
sg71
g2464
sg64
(lp2480
g57
(g58
g59
NtRp2481
(dp2482
g62
(dp2483
g70
I5
ssg71
g2477
sg64
(lp2484
S'None'
p2485
asbasbasbag57
(g73
g59
NtRp2486
(dp2487
g62
(dp2488
sg71
g67
sg64
(lp2489
g57
(g78
g59
NtRp2490
(dp2491
g62
(dp2492
g82
g83
ssg71
g2486
sg64
(lp2493
S'url'
p2494
asbag57
(g78
g59
NtRp2495
(dp2496
g62
(dp2497
g89
g90
ssg71
g2486
sg64
(lp2498
S':'
asbag57
(g78
g59
NtRp2499
(dp2500
g62
(dp2501
sg71
g2486
sg64
(lp2502
g57
(g58
g59
NtRp2503
(dp2504
g62
(dp2505
g70
I5
ssg71
g2499
sg64
(lp2506
g1354
asbasbasbag57
(g73
g59
NtRp2507
(dp2508
g62
(dp2509
sg71
g67
sg64
(lp2510
g57
(g78
g59
NtRp2511
(dp2512
g62
(dp2513
g82
g83
ssg71
g2507
sg64
(lp2514
S'utcnow'
p2515
asbag57
(g78
g59
NtRp2516
(dp2517
g62
(dp2518
g89
g90
ssg71
g2507
sg64
(lp2519
S':'
asbag57
(g78
g59
NtRp2520
(dp2521
g62
(dp2522
sg71
g2507
sg64
(lp2523
g57
(g58
g59
NtRp2524
(dp2525
g62
(dp2526
g70
I5
ssg71
g2520
sg64
(lp2527
S'datetime.datetime(2012, 11, 27, 12, 15, 26, 484000)'
p2528
asbasbasbag57
(g73
g59
NtRp2529
(dp2530
g62
(dp2531
sg71
g67
sg64
(lp2532
g57
(g78
g59
NtRp2533
(dp2534
g62
(dp2535
g82
g83
ssg71
g2529
sg64
(lp2536
S'uuid'
p2537
asbag57
(g78
g59
NtRp2538
(dp2539
g62
(dp2540
g89
g90
ssg71
g2529
sg64
(lp2541
S':'
asbag57
(g78
g59
NtRp2542
(dp2543
g62
(dp2544
sg71
g2529
sg64
(lp2545
g57
(g58
g59
NtRp2546
(dp2547
g62
(dp2548
g70
I5
ssg71
g2542
sg64
(lp2549
S'QSunTasteBudsV2/127.0.0.1.2012-11-27.20-15-26.7801c415-1448-4791-bc2c-9f098d56d954'
p2550
asbasbasbag57
(g73
g59
NtRp2551
(dp2552
g62
(dp2553
sg71
g67
sg64
(lp2554
g57
(g78
g59
NtRp2555
(dp2556
g62
(dp2557
g82
g83
ssg71
g2551
sg64
(lp2558
S'vars'
p2559
asbag57
(g78
g59
NtRp2560
(dp2561
g62
(dp2562
g89
g90
ssg71
g2551
sg64
(lp2563
S':'
asbag57
(g78
g59
NtRp2564
(dp2565
g62
(dp2566
sg71
g2551
sg64
(lp2567
g57
(g58
g59
NtRp2568
(dp2569
g62
(dp2570
g70
I5
ssg71
g2564
sg64
(lp2571
g57
(g66
g59
NtRp2572
(dp2573
g62
(dp2574
g70
I4
ssg71
Nsg64
(lp2575
g57
(g73
g59
NtRp2576
(dp2577
g62
(dp2578
sg71
g2572
sg64
(lp2579
g57
(g78
g59
NtRp2580
(dp2581
g62
(dp2582
g82
g83
ssg71
g2576
sg64
(lp2583
g2428
asbag57
(g78
g59
NtRp2584
(dp2585
g62
(dp2586
g89
g90
ssg71
g2576
sg64
(lp2587
S':'
asbag57
(g78
g59
NtRp2588
(dp2589
g62
(dp2590
sg71
g2576
sg64
(lp2591
g57
(g58
g59
NtRp2592
(dp2593
g62
(dp2594
g70
I4
ssg71
g2588
sg64
(lp2595
g2441
asbasbasbasbasbasbasbag57
(g73
g59
NtRp2596
(dp2597
g62
(dp2598
sg71
g67
sg64
(lp2599
g57
(g78
g59
NtRp2600
(dp2601
g62
(dp2602
g82
g83
ssg71
g2596
sg64
(lp2603
S'wsgi'
p2604
asbag57
(g78
g59
NtRp2605
(dp2606
g62
(dp2607
g89
g90
ssg71
g2596
sg64
(lp2608
S':'
asbag57
(g78
g59
NtRp2609
(dp2610
g62
(dp2611
sg71
g2596
sg64
(lp2612
g57
(g58
g59
NtRp2613
(dp2614
g62
(dp2615
g70
I5
ssg71
g2609
sg64
(lp2616
g57
(g66
g59
NtRp2617
(dp2618
g62
(dp2619
g70
I4
ssg71
Nsg64
(lp2620
g57
(g73
g59
NtRp2621
(dp2622
g62
(dp2623
sg71
g2617
sg64
(lp2624
g57
(g78
g59
NtRp2625
(dp2626
g62
(dp2627
g82
g83
ssg71
g2621
sg64
(lp2628
S'environ'
p2629
asbag57
(g78
g59
NtRp2630
(dp2631
g62
(dp2632
g89
g90
ssg71
g2621
sg64
(lp2633
S':'
asbag57
(g78
g59
NtRp2634
(dp2635
g62
(dp2636
sg71
g2621
sg64
(lp2637
g57
(g58
g59
NtRp2638
(dp2639
g62
(dp2640
g70
I4
ssg71
g2634
sg64
(lp2641
g57
(g66
g59
NtRp2642
(dp2643
g62
(dp2644
g70
I3
ssg71
Nsg64
(lp2645
g57
(g73
g59
NtRp2646
(dp2647
g62
(dp2648
sg71
g2642
sg64
(lp2649
g57
(g78
g59
NtRp2650
(dp2651
g62
(dp2652
g82
g83
ssg71
g2646
sg64
(lp2653
S'CONTENT_LENGTH'
p2654
asbag57
(g78
g59
NtRp2655
(dp2656
g62
(dp2657
g89
g90
ssg71
g2646
sg64
(lp2658
S':'
asbag57
(g78
g59
NtRp2659
(dp2660
g62
(dp2661
sg71
g2646
sg64
(lp2662
g57
(g58
g59
NtRp2663
(dp2664
g62
(dp2665
g70
I3
ssg71
g2659
sg64
(lp2666
g963
asbasbasbag57
(g73
g59
NtRp2667
(dp2668
g62
(dp2669
sg71
g2642
sg64
(lp2670
g57
(g78
g59
NtRp2671
(dp2672
g62
(dp2673
g82
g83
ssg71
g2667
sg64
(lp2674
S'CONTENT_TYPE'
p2675
asbag57
(g78
g59
NtRp2676
(dp2677
g62
(dp2678
g89
g90
ssg71
g2667
sg64
(lp2679
S':'
asbag57
(g78
g59
NtRp2680
(dp2681
g62
(dp2682
sg71
g2667
sg64
(lp2683
g57
(g58
g59
NtRp2684
(dp2685
g62
(dp2686
g70
I3
ssg71
g2680
sg64
(lp2687
g985
asbasbasbag57
(g73
g59
NtRp2688
(dp2689
g62
(dp2690
sg71
g2642
sg64
(lp2691
g57
(g78
g59
NtRp2692
(dp2693
g62
(dp2694
g82
g83
ssg71
g2688
sg64
(lp2695
S'HTTP_ACCEPT'
p2696
asbag57
(g78
g59
NtRp2697
(dp2698
g62
(dp2699
g89
g90
ssg71
g2688
sg64
(lp2700
S':'
asbag57
(g78
g59
NtRp2701
(dp2702
g62
(dp2703
sg71
g2688
sg64
(lp2704
g57
(g58
g59
NtRp2705
(dp2706
g62
(dp2707
g70
I3
ssg71
g2701
sg64
(lp2708
g1072
asbasbasbag57
(g73
g59
NtRp2709
(dp2710
g62
(dp2711
sg71
g2642
sg64
(lp2712
g57
(g78
g59
NtRp2713
(dp2714
g62
(dp2715
g82
g83
ssg71
g2709
sg64
(lp2716
S'HTTP_ACCEPT_ENCODING'
p2717
asbag57
(g78
g59
NtRp2718
(dp2719
g62
(dp2720
g89
g90
ssg71
g2709
sg64
(lp2721
S':'
asbag57
(g78
g59
NtRp2722
(dp2723
g62
(dp2724
sg71
g2709
sg64
(lp2725
g57
(g58
g59
NtRp2726
(dp2727
g62
(dp2728
g70
I3
ssg71
g2722
sg64
(lp2729
g1094
asbasbasbag57
(g73
g59
NtRp2730
(dp2731
g62
(dp2732
sg71
g2642
sg64
(lp2733
g57
(g78
g59
NtRp2734
(dp2735
g62
(dp2736
g82
g83
ssg71
g2730
sg64
(lp2737
S'HTTP_ACCEPT_LANGUAGE'
p2738
asbag57
(g78
g59
NtRp2739
(dp2740
g62
(dp2741
g89
g90
ssg71
g2730
sg64
(lp2742
S':'
asbag57
(g78
g59
NtRp2743
(dp2744
g62
(dp2745
sg71
g2730
sg64
(lp2746
g57
(g58
g59
NtRp2747
(dp2748
g62
(dp2749
g70
I3
ssg71
g2743
sg64
(lp2750
g1116
asbasbasbag57
(g73
g59
NtRp2751
(dp2752
g62
(dp2753
sg71
g2642
sg64
(lp2754
g57
(g78
g59
NtRp2755
(dp2756
g62
(dp2757
g82
g83
ssg71
g2751
sg64
(lp2758
S'HTTP_CACHE_CONTROL'
p2759
asbag57
(g78
g59
NtRp2760
(dp2761
g62
(dp2762
g89
g90
ssg71
g2751
sg64
(lp2763
S':'
asbag57
(g78
g59
NtRp2764
(dp2765
g62
(dp2766
sg71
g2751
sg64
(lp2767
g57
(g58
g59
NtRp2768
(dp2769
g62
(dp2770
g70
I3
ssg71
g2764
sg64
(lp2771
g1138
asbasbasbag57
(g73
g59
NtRp2772
(dp2773
g62
(dp2774
sg71
g2642
sg64
(lp2775
g57
(g78
g59
NtRp2776
(dp2777
g62
(dp2778
g82
g83
ssg71
g2772
sg64
(lp2779
S'HTTP_CONNECTION'
p2780
asbag57
(g78
g59
NtRp2781
(dp2782
g62
(dp2783
g89
g90
ssg71
g2772
sg64
(lp2784
S':'
asbag57
(g78
g59
NtRp2785
(dp2786
g62
(dp2787
sg71
g2772
sg64
(lp2788
g57
(g58
g59
NtRp2789
(dp2790
g62
(dp2791
g70
I3
ssg71
g2785
sg64
(lp2792
g1160
asbasbasbag57
(g73
g59
NtRp2793
(dp2794
g62
(dp2795
sg71
g2642
sg64
(lp2796
g57
(g78
g59
NtRp2797
(dp2798
g62
(dp2799
g82
g83
ssg71
g2793
sg64
(lp2800
S'HTTP_CONTENT_LENGTH'
p2801
asbag57
(g78
g59
NtRp2802
(dp2803
g62
(dp2804
g89
g90
ssg71
g2793
sg64
(lp2805
S':'
asbag57
(g78
g59
NtRp2806
(dp2807
g62
(dp2808
sg71
g2793
sg64
(lp2809
g57
(g58
g59
NtRp2810
(dp2811
g62
(dp2812
g70
I3
ssg71
g2806
sg64
(lp2813
g963
asbasbasbag57
(g73
g59
NtRp2814
(dp2815
g62
(dp2816
sg71
g2642
sg64
(lp2817
g57
(g78
g59
NtRp2818
(dp2819
g62
(dp2820
g82
g83
ssg71
g2814
sg64
(lp2821
S'HTTP_CONTENT_TYPE'
p2822
asbag57
(g78
g59
NtRp2823
(dp2824
g62
(dp2825
g89
g90
ssg71
g2814
sg64
(lp2826
S':'
asbag57
(g78
g59
NtRp2827
(dp2828
g62
(dp2829
sg71
g2814
sg64
(lp2830
g57
(g58
g59
NtRp2831
(dp2832
g62
(dp2833
g70
I3
ssg71
g2827
sg64
(lp2834
g985
asbasbasbag57
(g73
g59
NtRp2835
(dp2836
g62
(dp2837
sg71
g2642
sg64
(lp2838
g57
(g78
g59
NtRp2839
(dp2840
g62
(dp2841
g82
g83
ssg71
g2835
sg64
(lp2842
S'HTTP_COOKIE'
p2843
asbag57
(g78
g59
NtRp2844
(dp2845
g62
(dp2846
g89
g90
ssg71
g2835
sg64
(lp2847
S':'
asbag57
(g78
g59
NtRp2848
(dp2849
g62
(dp2850
sg71
g2835
sg64
(lp2851
g57
(g58
g59
NtRp2852
(dp2853
g62
(dp2854
g70
I3
ssg71
g2848
sg64
(lp2855
g1224
asbasbasbag57
(g73
g59
NtRp2856
(dp2857
g62
(dp2858
sg71
g2642
sg64
(lp2859
g57
(g78
g59
NtRp2860
(dp2861
g62
(dp2862
g82
g83
ssg71
g2856
sg64
(lp2863
S'HTTP_HOST'
p2864
asbag57
(g78
g59
NtRp2865
(dp2866
g62
(dp2867
g89
g90
ssg71
g2856
sg64
(lp2868
S':'
asbag57
(g78
g59
NtRp2869
(dp2870
g62
(dp2871
sg71
g2856
sg64
(lp2872
g57
(g58
g59
NtRp2873
(dp2874
g62
(dp2875
g70
I3
ssg71
g2869
sg64
(lp2876
g1246
asbasbasbag57
(g73
g59
NtRp2877
(dp2878
g62
(dp2879
sg71
g2642
sg64
(lp2880
g57
(g78
g59
NtRp2881
(dp2882
g62
(dp2883
g82
g83
ssg71
g2877
sg64
(lp2884
S'HTTP_REFERER'
p2885
asbag57
(g78
g59
NtRp2886
(dp2887
g62
(dp2888
g89
g90
ssg71
g2877
sg64
(lp2889
S':'
asbag57
(g78
g59
NtRp2890
(dp2891
g62
(dp2892
sg71
g2877
sg64
(lp2893
g57
(g58
g59
NtRp2894
(dp2895
g62
(dp2896
g70
I3
ssg71
g2890
sg64
(lp2897
g1268
asbasbasbag57
(g73
g59
NtRp2898
(dp2899
g62
(dp2900
sg71
g2642
sg64
(lp2901
g57
(g78
g59
NtRp2902
(dp2903
g62
(dp2904
g82
g83
ssg71
g2898
sg64
(lp2905
S'HTTP_USER_AGENT'
p2906
asbag57
(g78
g59
NtRp2907
(dp2908
g62
(dp2909
g89
g90
ssg71
g2898
sg64
(lp2910
S':'
asbag57
(g78
g59
NtRp2911
(dp2912
g62
(dp2913
sg71
g2898
sg64
(lp2914
g57
(g58
g59
NtRp2915
(dp2916
g62
(dp2917
g70
I3
ssg71
g2911
sg64
(lp2918
g1290
asbasbasbag57
(g73
g59
NtRp2919
(dp2920
g62
(dp2921
sg71
g2642
sg64
(lp2922
g57
(g78
g59
NtRp2923
(dp2924
g62
(dp2925
g82
g83
ssg71
g2919
sg64
(lp2926
S'PATH_INFO'
p2927
asbag57
(g78
g59
NtRp2928
(dp2929
g62
(dp2930
g89
g90
ssg71
g2919
sg64
(lp2931
S':'
asbag57
(g78
g59
NtRp2932
(dp2933
g62
(dp2934
sg71
g2919
sg64
(lp2935
g57
(g58
g59
NtRp2936
(dp2937
g62
(dp2938
g70
I3
ssg71
g2932
sg64
(lp2939
g1354
asbasbasbag57
(g73
g59
NtRp2940
(dp2941
g62
(dp2942
sg71
g2642
sg64
(lp2943
g57
(g78
g59
NtRp2944
(dp2945
g62
(dp2946
g82
g83
ssg71
g2940
sg64
(lp2947
S'QUERY_STRING'
p2948
asbag57
(g78
g59
NtRp2949
(dp2950
g62
(dp2951
g89
g90
ssg71
g2940
sg64
(lp2952
S':'
asbag57
(g78
g59
NtRp2953
(dp2954
g62
(dp2955
sg71
g2940
sg64
(lp2956
g57
(g58
g59
NtRp2957
(dp2958
g62
(dp2959
g70
I3
ssg71
g2953
sg64
(lp2960
S''
asbasbasbag57
(g73
g59
NtRp2961
(dp2962
g62
(dp2963
sg71
g2642
sg64
(lp2964
g57
(g78
g59
NtRp2965
(dp2966
g62
(dp2967
g82
g83
ssg71
g2961
sg64
(lp2968
S'REMOTE_ADDR'
p2969
asbag57
(g78
g59
NtRp2970
(dp2971
g62
(dp2972
g89
g90
ssg71
g2961
sg64
(lp2973
S':'
asbag57
(g78
g59
NtRp2974
(dp2975
g62
(dp2976
sg71
g2961
sg64
(lp2977
g57
(g58
g59
NtRp2978
(dp2979
g62
(dp2980
g70
I3
ssg71
g2974
sg64
(lp2981
g212
asbasbasbag57
(g73
g59
NtRp2982
(dp2983
g62
(dp2984
sg71
g2642
sg64
(lp2985
g57
(g78
g59
NtRp2986
(dp2987
g62
(dp2988
g82
g83
ssg71
g2982
sg64
(lp2989
S'REMOTE_PORT'
p2990
asbag57
(g78
g59
NtRp2991
(dp2992
g62
(dp2993
g89
g90
ssg71
g2982
sg64
(lp2994
S':'
asbag57
(g78
g59
NtRp2995
(dp2996
g62
(dp2997
sg71
g2982
sg64
(lp2998
g57
(g58
g59
NtRp2999
(dp3000
g62
(dp3001
g70
I3
ssg71
g2995
sg64
(lp3002
g1418
asbasbasbag57
(g73
g59
NtRp3003
(dp3004
g62
(dp3005
sg71
g2642
sg64
(lp3006
g57
(g78
g59
NtRp3007
(dp3008
g62
(dp3009
g82
g83
ssg71
g3003
sg64
(lp3010
S'REQUEST_METHOD'
p3011
asbag57
(g78
g59
NtRp3012
(dp3013
g62
(dp3014
g89
g90
ssg71
g3003
sg64
(lp3015
S':'
asbag57
(g78
g59
NtRp3016
(dp3017
g62
(dp3018
sg71
g3003
sg64
(lp3019
g57
(g58
g59
NtRp3020
(dp3021
g62
(dp3022
g70
I3
ssg71
g3016
sg64
(lp3023
g1440
asbasbasbag57
(g73
g59
NtRp3024
(dp3025
g62
(dp3026
sg71
g2642
sg64
(lp3027
g57
(g78
g59
NtRp3028
(dp3029
g62
(dp3030
g82
g83
ssg71
g3024
sg64
(lp3031
S'REQUEST_URI'
p3032
asbag57
(g78
g59
NtRp3033
(dp3034
g62
(dp3035
g89
g90
ssg71
g3024
sg64
(lp3036
S':'
asbag57
(g78
g59
NtRp3037
(dp3038
g62
(dp3039
sg71
g3024
sg64
(lp3040
g57
(g58
g59
NtRp3041
(dp3042
g62
(dp3043
g70
I3
ssg71
g3037
sg64
(lp3044
g1354
asbasbasbag57
(g73
g59
NtRp3045
(dp3046
g62
(dp3047
sg71
g2642
sg64
(lp3048
g57
(g78
g59
NtRp3049
(dp3050
g62
(dp3051
g82
g83
ssg71
g3045
sg64
(lp3052
S'SCRIPT_NAME'
p3053
asbag57
(g78
g59
NtRp3054
(dp3055
g62
(dp3056
g89
g90
ssg71
g3045
sg64
(lp3057
S':'
asbag57
(g78
g59
NtRp3058
(dp3059
g62
(dp3060
sg71
g3045
sg64
(lp3061
g57
(g58
g59
NtRp3062
(dp3063
g62
(dp3064
g70
I3
ssg71
g3058
sg64
(lp3065
S''
asbasbasbag57
(g73
g59
NtRp3066
(dp3067
g62
(dp3068
sg71
g2642
sg64
(lp3069
g57
(g78
g59
NtRp3070
(dp3071
g62
(dp3072
g82
g83
ssg71
g3066
sg64
(lp3073
S'SERVER_NAME'
p3074
asbag57
(g78
g59
NtRp3075
(dp3076
g62
(dp3077
g89
g90
ssg71
g3066
sg64
(lp3078
S':'
asbag57
(g78
g59
NtRp3079
(dp3080
g62
(dp3081
sg71
g3066
sg64
(lp3082
g57
(g58
g59
NtRp3083
(dp3084
g62
(dp3085
g70
I3
ssg71
g3079
sg64
(lp3086
g1504
asbasbasbag57
(g73
g59
NtRp3087
(dp3088
g62
(dp3089
sg71
g2642
sg64
(lp3090
g57
(g78
g59
NtRp3091
(dp3092
g62
(dp3093
g82
g83
ssg71
g3087
sg64
(lp3094
S'SERVER_PORT'
p3095
asbag57
(g78
g59
NtRp3096
(dp3097
g62
(dp3098
g89
g90
ssg71
g3087
sg64
(lp3099
S':'
asbag57
(g78
g59
NtRp3100
(dp3101
g62
(dp3102
sg71
g3087
sg64
(lp3103
g57
(g58
g59
NtRp3104
(dp3105
g62
(dp3106
g70
I3
ssg71
g3100
sg64
(lp3107
g1526
asbasbasbag57
(g73
g59
NtRp3108
(dp3109
g62
(dp3110
sg71
g2642
sg64
(lp3111
g57
(g78
g59
NtRp3112
(dp3113
g62
(dp3114
g82
g83
ssg71
g3108
sg64
(lp3115
S'SERVER_PROTOCOL'
p3116
asbag57
(g78
g59
NtRp3117
(dp3118
g62
(dp3119
g89
g90
ssg71
g3108
sg64
(lp3120
S':'
asbag57
(g78
g59
NtRp3121
(dp3122
g62
(dp3123
sg71
g3108
sg64
(lp3124
g57
(g58
g59
NtRp3125
(dp3126
g62
(dp3127
g70
I3
ssg71
g3121
sg64
(lp3128
g1548
asbasbasbag57
(g73
g59
NtRp3129
(dp3130
g62
(dp3131
sg71
g2642
sg64
(lp3132
g57
(g78
g59
NtRp3133
(dp3134
g62
(dp3135
g82
g83
ssg71
g3129
sg64
(lp3136
S'SERVER_SOFTWARE'
p3137
asbag57
(g78
g59
NtRp3138
(dp3139
g62
(dp3140
g89
g90
ssg71
g3129
sg64
(lp3141
S':'
asbag57
(g78
g59
NtRp3142
(dp3143
g62
(dp3144
sg71
g3129
sg64
(lp3145
g57
(g58
g59
NtRp3146
(dp3147
g62
(dp3148
g70
I3
ssg71
g3142
sg64
(lp3149
g1570
asbasbasbag57
(g73
g59
NtRp3150
(dp3151
g62
(dp3152
sg71
g2642
sg64
(lp3153
g57
(g78
g59
NtRp3154
(dp3155
g62
(dp3156
g82
g83
ssg71
g3150
sg64
(lp3157
S'wsgi.errors'
p3158
asbag57
(g78
g59
NtRp3159
(dp3160
g62
(dp3161
g89
g90
ssg71
g3150
sg64
(lp3162
S':'
asbag57
(g78
g59
NtRp3163
(dp3164
g62
(dp3165
sg71
g3150
sg64
(lp3166
g57
(g58
g59
NtRp3167
(dp3168
g62
(dp3169
g70
I3
ssg71
g3163
sg64
(lp3170
S"<open file '<stderr>', mode 'w' at 0x009350D0>"
p3171
asbasbasbag57
(g73
g59
NtRp3172
(dp3173
g62
(dp3174
sg71
g2642
sg64
(lp3175
g57
(g78
g59
NtRp3176
(dp3177
g62
(dp3178
g82
g83
ssg71
g3172
sg64
(lp3179
S'wsgi.file_wrapper'
p3180
asbag57
(g78
g59
NtRp3181
(dp3182
g62
(dp3183
g89
g90
ssg71
g3172
sg64
(lp3184
S':'
asbag57
(g78
g59
NtRp3185
(dp3186
g62
(dp3187
sg71
g3172
sg64
(lp3188
g57
(g58
g59
NtRp3189
(dp3190
g62
(dp3191
g70
I3
ssg71
g3185
sg64
(lp3192
S'<class wsgiref.util.FileWrapper at 0x016DAF10>'
p3193
asbasbasbag57
(g73
g59
NtRp3194
(dp3195
g62
(dp3196
sg71
g2642
sg64
(lp3197
g57
(g78
g59
NtRp3198
(dp3199
g62
(dp3200
g82
g83
ssg71
g3194
sg64
(lp3201
S'wsgi.input'
p3202
asbag57
(g78
g59
NtRp3203
(dp3204
g62
(dp3205
g89
g90
ssg71
g3194
sg64
(lp3206
S':'
asbag57
(g78
g59
NtRp3207
(dp3208
g62
(dp3209
sg71
g3194
sg64
(lp3210
g57
(g58
g59
NtRp3211
(dp3212
g62
(dp3213
g70
I3
ssg71
g3207
sg64
(lp3214
S"<open file '<fdopen>', mode 'w+b' at 0x01A1D3E8>"
p3215
asbasbasbag57
(g73
g59
NtRp3216
(dp3217
g62
(dp3218
sg71
g2642
sg64
(lp3219
g57
(g78
g59
NtRp3220
(dp3221
g62
(dp3222
g82
g83
ssg71
g3216
sg64
(lp3223
S'wsgi.multiprocess'
p3224
asbag57
(g78
g59
NtRp3225
(dp3226
g62
(dp3227
g89
g90
ssg71
g3216
sg64
(lp3228
S':'
asbag57
(g78
g59
NtRp3229
(dp3230
g62
(dp3231
sg71
g3216
sg64
(lp3232
g57
(g58
g59
NtRp3233
(dp3234
g62
(dp3235
g70
I3
ssg71
g3229
sg64
(lp3236
g100
asbasbasbag57
(g73
g59
NtRp3237
(dp3238
g62
(dp3239
sg71
g2642
sg64
(lp3240
g57
(g78
g59
NtRp3241
(dp3242
g62
(dp3243
g82
g83
ssg71
g3237
sg64
(lp3244
S'wsgi.multithread'
p3245
asbag57
(g78
g59
NtRp3246
(dp3247
g62
(dp3248
g89
g90
ssg71
g3237
sg64
(lp3249
S':'
asbag57
(g78
g59
NtRp3250
(dp3251
g62
(dp3252
sg71
g3237
sg64
(lp3253
g57
(g58
g59
NtRp3254
(dp3255
g62
(dp3256
g70
I3
ssg71
g3250
sg64
(lp3257
g1809
asbasbasbag57
(g73
g59
NtRp3258
(dp3259
g62
(dp3260
sg71
g2642
sg64
(lp3261
g57
(g78
g59
NtRp3262
(dp3263
g62
(dp3264
g82
g83
ssg71
g3258
sg64
(lp3265
S'wsgi.run_once'
p3266
asbag57
(g78
g59
NtRp3267
(dp3268
g62
(dp3269
g89
g90
ssg71
g3258
sg64
(lp3270
S':'
asbag57
(g78
g59
NtRp3271
(dp3272
g62
(dp3273
sg71
g3258
sg64
(lp3274
g57
(g58
g59
NtRp3275
(dp3276
g62
(dp3277
g70
I3
ssg71
g3271
sg64
(lp3278
g100
asbasbasbag57
(g73
g59
NtRp3279
(dp3280
g62
(dp3281
sg71
g2642
sg64
(lp3282
g57
(g78
g59
NtRp3283
(dp3284
g62
(dp3285
g82
g83
ssg71
g3279
sg64
(lp3286
S'wsgi.url_scheme'
p3287
asbag57
(g78
g59
NtRp3288
(dp3289
g62
(dp3290
g89
g90
ssg71
g3279
sg64
(lp3291
S':'
asbag57
(g78
g59
NtRp3292
(dp3293
g62
(dp3294
sg71
g3279
sg64
(lp3295
g57
(g58
g59
NtRp3296
(dp3297
g62
(dp3298
g70
I3
ssg71
g3292
sg64
(lp3299
g1852
asbasbasbag57
(g73
g59
NtRp3300
(dp3301
g62
(dp3302
sg71
g2642
sg64
(lp3303
g57
(g78
g59
NtRp3304
(dp3305
g62
(dp3306
g82
g83
ssg71
g3300
sg64
(lp3307
S'wsgi.version'
p3308
asbag57
(g78
g59
NtRp3309
(dp3310
g62
(dp3311
g89
g90
ssg71
g3300
sg64
(lp3312
S':'
asbag57
(g78
g59
NtRp3313
(dp3314
g62
(dp3315
sg71
g3300
sg64
(lp3316
g57
(g58
g59
NtRp3317
(dp3318
g62
(dp3319
g70
I3
ssg71
g3313
sg64
(lp3320
S'1'
asbasbasbasbasbasbasbasbasbasbasbasbasbsS'frames'
p3321
(lp3322
(dp3323
S'file'
p3324
S'D:\\web2py_win\\web2py\\gluon\\restricted.py'
p3325
sS'dump'
p3326
(dp3327
sS'lnum'
p3328
I209
sS'lines'
p3329
(dp3330
sS'call'
p3331
S"(code='# -*- coding: utf-8 -*-\\n# this file is released ...())\\n\\nresponse._vars=response._caller(rateRecipe)\\n', environment={'A': <class 'gluon.html.A'>, 'Auth': <class 'gluon.tools.Auth'>, 'B': <class 'gluon.html.B'>, 'BEAUTIFY': <class 'gluon.html.BEAUTIFY'>, 'BODY': <class 'gluon.html.BODY'>, 'BR': <class 'gluon.html.BR'>, 'BUTTON': <class 'gluon.html.BUTTON'>, 'CAT': <class 'gluon.html.CAT'>, 'CENTER': <class 'gluon.html.CENTER'>, 'CLEANUP': <class 'gluon.validators.CLEANUP'>, ...}, layer=r'D:\\web2py_win\\web2py\\applications\\QSunTasteBudsV2\\controllers/default.py')"
p3332
sS'func'
p3333
S'restricted'
p3334
sa(dp3335
g3324
S'D:\\web2py_win\\web2py\\applications\\QSunTasteBudsV2\\controllers\\default.py'
p3336
sg3326
(dp3337
sg3328
I164
sg3329
(dp3338
I160
S"      LOAD('default','data.load',args='tables',ajax=True,user_signature=True)"
p3339
sI161
S'    """'
p3340
sI162
S'    return dict(form=crud())'
p3341
sI153
S'    http://..../[app]/default/data/update/[table]/[id]'
p3342
sI154
S'    http://..../[app]/default/data/delete/[table]/[id]'
p3343
sI155
S'    http://..../[app]/default/data/select/[table]'
p3344
sI156
S'    http://..../[app]/default/data/search/[table]'
p3345
sI157
S'    but URLs must be signed, i.e. linked with'
p3346
sI158
S"      A('table',_href=URL('data/tables',user_signature=True))"
p3347
sI159
S'    or with the signed load operator'
p3348
ssg3331
S'()'
p3349
sg3333
S'<module>'
p3350
sa(dp3351
g3324
S'D:\\web2py_win\\web2py\\gluon\\globals.py'
p3352
sg3326
(dp3353
sg3328
I186
sg3329
(dp3354
sg3331
S'(f=<function rateRecipe>)'
p3355
sg3333
S'<lambda>'
p3356
sa(dp3357
g3324
S'D:\\web2py_win\\web2py\\gluon\\tools.py'
p3358
sg3326
(dp3359
sg3328
I2809
sg3329
(dp3360
sg3331
S'(*a=(), **b={})'
p3361
sg3333
S'f'
sa(dp3362
g3324
S'D:\\web2py_win\\web2py\\applications\\QSunTasteBudsV2\\controllers\\default.py'
p3363
sg3326
(dp3364
sg3328
I97
sg3329
(dp3365
I96
S"        if form.vars.rating == 'bad':"
p3366
sI97
S'            db(db.Recipes.id == session.currentRecipe).update(--rating)'
p3367
sI98
S'            db.commit()'
p3368
sI99
S''
sI100
S"            redirect(URL('readRecipe', args = [session.currentRecipe]))"
p3369
sI101
S''
sI92
S"                 INPUT(_type = 'submit', _value = 'Go submit')"
p3370
sI93
S'                )'
p3371
sI94
S''
sI95
S'    if form.process().accepted:'
p3372
ssg3331
S'()'
p3373
sg3333
S'rateRecipe'
p3374
sasS'pyver'
p3375
S'Python 2.7: D:\\web2py_win\\web2py\\web2py.exe'
p3376
sS'session'
p3377
g57
(g58
g59
NtRp3378
(dp3379
g62
(dp3380
sg64
(lp3381
g57
(g66
g59
NtRp3382
(dp3383
g62
(dp3384
g70
I5
ssg71
Nsg64
(lp3385
g57
(g73
g59
NtRp3386
(dp3387
g62
(dp3388
sg71
g3382
sg64
(lp3389
g57
(g78
g59
NtRp3390
(dp3391
g62
(dp3392
g82
g83
ssg71
g3386
sg64
(lp3393
S'auth'
p3394
asbag57
(g78
g59
NtRp3395
(dp3396
g62
(dp3397
g89
g90
ssg71
g3386
sg64
(lp3398
S':'
asbag57
(g78
g59
NtRp3399
(dp3400
g62
(dp3401
sg71
g3386
sg64
(lp3402
g57
(g58
g59
NtRp3403
(dp3404
g62
(dp3405
g70
I5
ssg71
g3399
sg64
(lp3406
g57
(g66
g59
NtRp3407
(dp3408
g62
(dp3409
g70
I4
ssg71
Nsg64
(lp3410
g57
(g73
g59
NtRp3411
(dp3412
g62
(dp3413
sg71
g3407
sg64
(lp3414
g57
(g78
g59
NtRp3415
(dp3416
g62
(dp3417
g82
g83
ssg71
g3411
sg64
(lp3418
S'expiration'
p3419
asbag57
(g78
g59
NtRp3420
(dp3421
g62
(dp3422
g89
g90
ssg71
g3411
sg64
(lp3423
S':'
asbag57
(g78
g59
NtRp3424
(dp3425
g62
(dp3426
sg71
g3411
sg64
(lp3427
g57
(g58
g59
NtRp3428
(dp3429
g62
(dp3430
g70
I4
ssg71
g3424
sg64
(lp3431
S'3600'
p3432
asbasbasbag57
(g73
g59
NtRp3433
(dp3434
g62
(dp3435
sg71
g3407
sg64
(lp3436
g57
(g78
g59
NtRp3437
(dp3438
g62
(dp3439
g82
g83
ssg71
g3433
sg64
(lp3440
S'hmac_key'
p3441
asbag57
(g78
g59
NtRp3442
(dp3443
g62
(dp3444
g89
g90
ssg71
g3433
sg64
(lp3445
S':'
asbag57
(g78
g59
NtRp3446
(dp3447
g62
(dp3448
sg71
g3433
sg64
(lp3449
g57
(g58
g59
NtRp3450
(dp3451
g62
(dp3452
g70
I4
ssg71
g3446
sg64
(lp3453
S'598a2e6b-1656-41ee-8471-f750b11c6ebd'
p3454
asbasbasbag57
(g73
g59
NtRp3455
(dp3456
g62
(dp3457
sg71
g3407
sg64
(lp3458
g57
(g78
g59
NtRp3459
(dp3460
g62
(dp3461
g82
g83
ssg71
g3455
sg64
(lp3462
S'last_visit'
p3463
asbag57
(g78
g59
NtRp3464
(dp3465
g62
(dp3466
g89
g90
ssg71
g3455
sg64
(lp3467
S':'
asbag57
(g78
g59
NtRp3468
(dp3469
g62
(dp3470
sg71
g3455
sg64
(lp3471
g57
(g58
g59
NtRp3472
(dp3473
g62
(dp3474
g70
I4
ssg71
g3468
sg64
(lp3475
S'datetime.datetime(2012, 11, 27, 20, 15, 26, 484000)'
p3476
asbasbasbag57
(g73
g59
NtRp3477
(dp3478
g62
(dp3479
sg71
g3407
sg64
(lp3480
g57
(g78
g59
NtRp3481
(dp3482
g62
(dp3483
g82
g83
ssg71
g3477
sg64
(lp3484
S'remember'
p3485
asbag57
(g78
g59
NtRp3486
(dp3487
g62
(dp3488
g89
g90
ssg71
g3477
sg64
(lp3489
S':'
asbag57
(g78
g59
NtRp3490
(dp3491
g62
(dp3492
sg71
g3477
sg64
(lp3493
g57
(g58
g59
NtRp3494
(dp3495
g62
(dp3496
g70
I4
ssg71
g3490
sg64
(lp3497
g100
asbasbasbag57
(g73
g59
NtRp3498
(dp3499
g62
(dp3500
sg71
g3407
sg64
(lp3501
g57
(g78
g59
NtRp3502
(dp3503
g62
(dp3504
g82
g83
ssg71
g3498
sg64
(lp3505
S'user'
p3506
asbag57
(g78
g59
NtRp3507
(dp3508
g62
(dp3509
g89
g90
ssg71
g3498
sg64
(lp3510
S':'
asbag57
(g78
g59
NtRp3511
(dp3512
g62
(dp3513
sg71
g3498
sg64
(lp3514
g57
(g58
g59
NtRp3515
(dp3516
g62
(dp3517
g70
I4
ssg71
g3511
sg64
(lp3518
g57
(g66
g59
NtRp3519
(dp3520
g62
(dp3521
g70
I3
ssg71
Nsg64
(lp3522
g57
(g73
g59
NtRp3523
(dp3524
g62
(dp3525
sg71
g3519
sg64
(lp3526
g57
(g78
g59
NtRp3527
(dp3528
g62
(dp3529
g82
g83
ssg71
g3523
sg64
(lp3530
S'email'
p3531
asbag57
(g78
g59
NtRp3532
(dp3533
g62
(dp3534
g89
g90
ssg71
g3523
sg64
(lp3535
S':'
asbag57
(g78
g59
NtRp3536
(dp3537
g62
(dp3538
sg71
g3523
sg64
(lp3539
g57
(g58
g59
NtRp3540
(dp3541
g62
(dp3542
g70
I3
ssg71
g3536
sg64
(lp3543
S'qsun@ucsc.edu'
p3544
asbasbasbag57
(g73
g59
NtRp3545
(dp3546
g62
(dp3547
sg71
g3519
sg64
(lp3548
g57
(g78
g59
NtRp3549
(dp3550
g62
(dp3551
g82
g83
ssg71
g3545
sg64
(lp3552
S'first_name'
p3553
asbag57
(g78
g59
NtRp3554
(dp3555
g62
(dp3556
g89
g90
ssg71
g3545
sg64
(lp3557
S':'
asbag57
(g78
g59
NtRp3558
(dp3559
g62
(dp3560
sg71
g3545
sg64
(lp3561
g57
(g58
g59
NtRp3562
(dp3563
g62
(dp3564
g70
I3
ssg71
g3558
sg64
(lp3565
S'You'
p3566
asbasbasbag57
(g73
g59
NtRp3567
(dp3568
g62
(dp3569
sg71
g3519
sg64
(lp3570
g57
(g78
g59
NtRp3571
(dp3572
g62
(dp3573
g82
g83
ssg71
g3567
sg64
(lp3574
S'id'
p3575
asbag57
(g78
g59
NtRp3576
(dp3577
g62
(dp3578
g89
g90
ssg71
g3567
sg64
(lp3579
S':'
asbag57
(g78
g59
NtRp3580
(dp3581
g62
(dp3582
sg71
g3567
sg64
(lp3583
g57
(g58
g59
NtRp3584
(dp3585
g62
(dp3586
g70
I3
ssg71
g3580
sg64
(lp3587
S'2'
asbasbasbag57
(g73
g59
NtRp3588
(dp3589
g62
(dp3590
sg71
g3519
sg64
(lp3591
g57
(g78
g59
NtRp3592
(dp3593
g62
(dp3594
g82
g83
ssg71
g3588
sg64
(lp3595
S'last_name'
p3596
asbag57
(g78
g59
NtRp3597
(dp3598
g62
(dp3599
g89
g90
ssg71
g3588
sg64
(lp3600
S':'
asbag57
(g78
g59
NtRp3601
(dp3602
g62
(dp3603
sg71
g3588
sg64
(lp3604
g57
(g58
g59
NtRp3605
(dp3606
g62
(dp3607
g70
I3
ssg71
g3601
sg64
(lp3608
S'Folks'
p3609
asbasbasbag57
(g73
g59
NtRp3610
(dp3611
g62
(dp3612
sg71
g3519
sg64
(lp3613
g57
(g78
g59
NtRp3614
(dp3615
g62
(dp3616
g82
g83
ssg71
g3610
sg64
(lp3617
S'password'
p3618
asbag57
(g78
g59
NtRp3619
(dp3620
g62
(dp3621
g89
g90
ssg71
g3610
sg64
(lp3622
S':'
asbag57
(g78
g59
NtRp3623
(dp3624
g62
(dp3625
sg71
g3610
sg64
(lp3626
g57
(g58
g59
NtRp3627
(dp3628
g62
(dp3629
g70
I3
ssg71
g3623
sg64
(lp3630
S'pbkdf2(1000,20,sha512)$be2ae34bd8ab6f89$1becf62efcea01de9b58832835686ca56a464d32'
p3631
asbasbasbag57
(g73
g59
NtRp3632
(dp3633
g62
(dp3634
sg71
g3519
sg64
(lp3635
g57
(g78
g59
NtRp3636
(dp3637
g62
(dp3638
g82
g83
ssg71
g3632
sg64
(lp3639
S'registration_id'
p3640
asbag57
(g78
g59
NtRp3641
(dp3642
g62
(dp3643
g89
g90
ssg71
g3632
sg64
(lp3644
S':'
asbag57
(g78
g59
NtRp3645
(dp3646
g62
(dp3647
sg71
g3632
sg64
(lp3648
g57
(g58
g59
NtRp3649
(dp3650
g62
(dp3651
g70
I3
ssg71
g3645
sg64
(lp3652
S''
asbasbasbag57
(g73
g59
NtRp3653
(dp3654
g62
(dp3655
sg71
g3519
sg64
(lp3656
g57
(g78
g59
NtRp3657
(dp3658
g62
(dp3659
g82
g83
ssg71
g3653
sg64
(lp3660
S'registration_key'
p3661
asbag57
(g78
g59
NtRp3662
(dp3663
g62
(dp3664
g89
g90
ssg71
g3653
sg64
(lp3665
S':'
asbag57
(g78
g59
NtRp3666
(dp3667
g62
(dp3668
sg71
g3653
sg64
(lp3669
g57
(g58
g59
NtRp3670
(dp3671
g62
(dp3672
g70
I3
ssg71
g3666
sg64
(lp3673
S''
asbasbasbag57
(g73
g59
NtRp3674
(dp3675
g62
(dp3676
sg71
g3519
sg64
(lp3677
g57
(g78
g59
NtRp3678
(dp3679
g62
(dp3680
g82
g83
ssg71
g3674
sg64
(lp3681
S'reset_password_key'
p3682
asbag57
(g78
g59
NtRp3683
(dp3684
g62
(dp3685
g89
g90
ssg71
g3674
sg64
(lp3686
S':'
asbag57
(g78
g59
NtRp3687
(dp3688
g62
(dp3689
sg71
g3674
sg64
(lp3690
g57
(g58
g59
NtRp3691
(dp3692
g62
(dp3693
g70
I3
ssg71
g3687
sg64
(lp3694
S''
asbasbasbasbasbasbasbag57
(g73
g59
NtRp3695
(dp3696
g62
(dp3697
sg71
g3407
sg64
(lp3698
g57
(g78
g59
NtRp3699
(dp3700
g62
(dp3701
g82
g83
ssg71
g3695
sg64
(lp3702
S'user_groups'
p3703
asbag57
(g78
g59
NtRp3704
(dp3705
g62
(dp3706
g89
g90
ssg71
g3695
sg64
(lp3707
S':'
asbag57
(g78
g59
NtRp3708
(dp3709
g62
(dp3710
sg71
g3695
sg64
(lp3711
g57
(g58
g59
NtRp3712
(dp3713
g62
(dp3714
g70
I4
ssg71
g3708
sg64
(lp3715
g57
(g66
g59
NtRp3716
(dp3717
g62
(dp3718
g70
I3
ssg71
Nsg64
(lp3719
g57
(g73
g59
NtRp3720
(dp3721
g62
(dp3722
sg71
g3716
sg64
(lp3723
g57
(g78
g59
NtRp3724
(dp3725
g62
(dp3726
g82
g83
ssg71
g3720
sg64
(lp3727
S'2'
asbag57
(g78
g59
NtRp3728
(dp3729
g62
(dp3730
g89
g90
ssg71
g3720
sg64
(lp3731
S':'
asbag57
(g78
g59
NtRp3732
(dp3733
g62
(dp3734
sg71
g3720
sg64
(lp3735
g57
(g58
g59
NtRp3736
(dp3737
g62
(dp3738
g70
I3
ssg71
g3732
sg64
(lp3739
S'user_2'
p3740
asbasbasbasbasbasbasbasbasbasbasbag57
(g73
g59
NtRp3741
(dp3742
g62
(dp3743
sg71
g3382
sg64
(lp3744
g57
(g78
g59
NtRp3745
(dp3746
g62
(dp3747
g82
g83
ssg71
g3741
sg64
(lp3748
S'currentRecipe'
p3749
asbag57
(g78
g59
NtRp3750
(dp3751
g62
(dp3752
g89
g90
ssg71
g3741
sg64
(lp3753
S':'
asbag57
(g78
g59
NtRp3754
(dp3755
g62
(dp3756
sg71
g3741
sg64
(lp3757
g57
(g58
g59
NtRp3758
(dp3759
g62
(dp3760
g70
I5
ssg71
g3754
sg64
(lp3761
S'2'
asbasbasbag57
(g73
g59
NtRp3762
(dp3763
g62
(dp3764
sg71
g3382
sg64
(lp3765
g57
(g78
g59
NtRp3766
(dp3767
g62
(dp3768
g82
g83
ssg71
g3762
sg64
(lp3769
S'flash'
p3770
asbag57
(g78
g59
NtRp3771
(dp3772
g62
(dp3773
g89
g90
ssg71
g3762
sg64
(lp3774
S':'
asbag57
(g78
g59
NtRp3775
(dp3776
g62
(dp3777
sg71
g3762
sg64
(lp3778
g57
(g58
g59
NtRp3779
(dp3780
g62
(dp3781
g70
I5
ssg71
g3775
sg64
(lp3782
S'None'
p3783
asbasbasbag57
(g73
g59
NtRp3784
(dp3785
g62
(dp3786
sg71
g3382
sg64
(lp3787
g57
(g78
g59
NtRp3788
(dp3789
g62
(dp3790
g82
g83
ssg71
g3784
sg64
(lp3791
S'last_orderby'
p3792
asbag57
(g78
g59
NtRp3793
(dp3794
g62
(dp3795
g89
g90
ssg71
g3784
sg64
(lp3796
S':'
asbag57
(g78
g59
NtRp3797
(dp3798
g62
(dp3799
sg71
g3784
sg64
(lp3800
g57
(g58
g59
NtRp3801
(dp3802
g62
(dp3803
g70
I5
ssg71
g3797
sg64
(lp3804
S'None'
p3805
asbasbasbag57
(g73
g59
NtRp3806
(dp3807
g62
(dp3808
sg71
g3382
sg64
(lp3809
g57
(g78
g59
NtRp3810
(dp3811
g62
(dp3812
g82
g83
ssg71
g3806
sg64
(lp3813
S'last_query'
p3814
asbag57
(g78
g59
NtRp3815
(dp3816
g62
(dp3817
g89
g90
ssg71
g3806
sg64
(lp3818
S':'
asbag57
(g78
g59
NtRp3819
(dp3820
g62
(dp3821
sg71
g3806
sg64
(lp3822
g57
(g58
g59
NtRp3823
(dp3824
g62
(dp3825
g70
I5
ssg71
g3819
sg64
(lp3826
S'db.Recipes.id>0'
p3827
asbasbasbag57
(g73
g59
NtRp3828
(dp3829
g62
(dp3830
sg71
g3382
sg64
(lp3831
g57
(g78
g59
NtRp3832
(dp3833
g62
(dp3834
g82
g83
ssg71
g3828
sg64
(lp3835
S'owner'
p3836
asbag57
(g78
g59
NtRp3837
(dp3838
g62
(dp3839
g89
g90
ssg71
g3828
sg64
(lp3840
S':'
asbag57
(g78
g59
NtRp3841
(dp3842
g62
(dp3843
sg71
g3828
sg64
(lp3844
g57
(g58
g59
NtRp3845
(dp3846
g62
(dp3847
g70
I5
ssg71
g3841
sg64
(lp3848
S'Qian Sun'
p3849
asbasbasbag57
(g73
g59
NtRp3850
(dp3851
g62
(dp3852
sg71
g3382
sg64
(lp3853
g57
(g78
g59
NtRp3854
(dp3855
g62
(dp3856
g82
g83
ssg71
g3850
sg64
(lp3857
S'title'
p3858
asbag57
(g78
g59
NtRp3859
(dp3860
g62
(dp3861
g89
g90
ssg71
g3850
sg64
(lp3862
S':'
asbag57
(g78
g59
NtRp3863
(dp3864
g62
(dp3865
sg71
g3850
sg64
(lp3866
g57
(g58
g59
NtRp3867
(dp3868
g62
(dp3869
g70
I5
ssg71
g3863
sg64
(lp3870
S'dumpling'
p3871
asbasbasbasbasbsS'etype'
p3872
S"<type 'exceptions.NameError'>"
p3873
sS'date'
p3874
S'Tue Nov 27 20:15:26 2012'
p3875
sS'response'
p3876
g57
(g58
g59
NtRp3877
(dp3878
g62
(dp3879
sg64
(lp3880
g57
(g66
g59
NtRp3881
(dp3882
g62
(dp3883
g70
I5
ssg71
Nsg64
(lp3884
g57
(g73
g59
NtRp3885
(dp3886
g62
(dp3887
sg71
g3881
sg64
(lp3888
g57
(g78
g59
NtRp3889
(dp3890
g62
(dp3891
g82
g83
ssg71
g3885
sg64
(lp3892
g155
asbag57
(g78
g59
NtRp3893
(dp3894
g62
(dp3895
g89
g90
ssg71
g3885
sg64
(lp3896
S':'
asbag57
(g78
g59
NtRp3897
(dp3898
g62
(dp3899
sg71
g3885
sg64
(lp3900
g57
(g58
g59
NtRp3901
(dp3902
g62
(dp3903
g70
I5
ssg71
g3897
sg64
(lp3904
S'<cStringIO.StringO object at 0x052EC300>'
p3905
asbasbasbag57
(g73
g59
NtRp3906
(dp3907
g62
(dp3908
sg71
g3881
sg64
(lp3909
g57
(g78
g59
NtRp3910
(dp3911
g62
(dp3912
g82
g83
ssg71
g3906
sg64
(lp3913
g243
asbag57
(g78
g59
NtRp3914
(dp3915
g62
(dp3916
g89
g90
ssg71
g3906
sg64
(lp3917
S':'
asbag57
(g78
g59
NtRp3918
(dp3919
g62
(dp3920
sg71
g3906
sg64
(lp3921
g57
(g58
g59
NtRp3922
(dp3923
g62
(dp3924
g70
I5
ssg71
g3918
sg64
(lp3925
g57
(g66
g59
NtRp3926
(dp3927
g62
(dp3928
g70
I4
ssg71
Nsg64
(lp3929
g57
(g73
g59
NtRp3930
(dp3931
g62
(dp3932
sg71
g3926
sg64
(lp3933
g57
(g78
g59
NtRp3934
(dp3935
g62
(dp3936
g82
g83
ssg71
g3930
sg64
(lp3937
S'session_id_qsuntastebudsv2'
p3938
asbag57
(g78
g59
NtRp3939
(dp3940
g62
(dp3941
g89
g90
ssg71
g3930
sg64
(lp3942
S':'
asbag57
(g78
g59
NtRp3943
(dp3944
g62
(dp3945
sg71
g3930
sg64
(lp3946
g57
(g58
g59
NtRp3947
(dp3948
g62
(dp3949
g70
I4
ssg71
g3943
sg64
(lp3950
g475
ag57
(g66
g59
NtRp3951
(dp3952
g62
(dp3953
g70
I3
ssg71
Nsg64
(lp3954
g57
(g73
g59
NtRp3955
(dp3956
g62
(dp3957
sg71
g3951
sg64
(lp3958
g57
(g78
g59
NtRp3959
(dp3960
g62
(dp3961
g82
g83
ssg71
g3955
sg64
(lp3962
g294
asbag57
(g78
g59
NtRp3963
(dp3964
g62
(dp3965
g89
g90
ssg71
g3955
sg64
(lp3966
S':'
asbag57
(g78
g59
NtRp3967
(dp3968
g62
(dp3969
sg71
g3955
sg64
(lp3970
g57
(g58
g59
NtRp3971
(dp3972
g62
(dp3973
g70
I3
ssg71
g3967
sg64
(lp3974
S''
asbasbasbag57
(g73
g59
NtRp3975
(dp3976
g62
(dp3977
sg71
g3951
sg64
(lp3978
g57
(g78
g59
NtRp3979
(dp3980
g62
(dp3981
g82
g83
ssg71
g3975
sg64
(lp3982
g315
asbag57
(g78
g59
NtRp3983
(dp3984
g62
(dp3985
g89
g90
ssg71
g3975
sg64
(lp3986
S':'
asbag57
(g78
g59
NtRp3987
(dp3988
g62
(dp3989
sg71
g3975
sg64
(lp3990
g57
(g58
g59
NtRp3991
(dp3992
g62
(dp3993
g70
I3
ssg71
g3987
sg64
(lp3994
S''
asbasbasbag57
(g73
g59
NtRp3995
(dp3996
g62
(dp3997
sg71
g3951
sg64
(lp3998
g57
(g78
g59
NtRp3999
(dp4000
g62
(dp4001
g82
g83
ssg71
g3995
sg64
(lp4002
g336
asbag57
(g78
g59
NtRp4003
(dp4004
g62
(dp4005
g89
g90
ssg71
g3995
sg64
(lp4006
S':'
asbag57
(g78
g59
NtRp4007
(dp4008
g62
(dp4009
sg71
g3995
sg64
(lp4010
g57
(g58
g59
NtRp4011
(dp4012
g62
(dp4013
g70
I3
ssg71
g4007
sg64
(lp4014
S''
asbasbasbag57
(g73
g59
NtRp4015
(dp4016
g62
(dp4017
sg71
g3951
sg64
(lp4018
g57
(g78
g59
NtRp4019
(dp4020
g62
(dp4021
g82
g83
ssg71
g4015
sg64
(lp4022
g357
asbag57
(g78
g59
NtRp4023
(dp4024
g62
(dp4025
g89
g90
ssg71
g4015
sg64
(lp4026
S':'
asbag57
(g78
g59
NtRp4027
(dp4028
g62
(dp4029
sg71
g4015
sg64
(lp4030
g57
(g58
g59
NtRp4031
(dp4032
g62
(dp4033
g70
I3
ssg71
g4027
sg64
(lp4034
S''
asbasbasbag57
(g73
g59
NtRp4035
(dp4036
g62
(dp4037
sg71
g3951
sg64
(lp4038
g57
(g78
g59
NtRp4039
(dp4040
g62
(dp4041
g82
g83
ssg71
g4035
sg64
(lp4042
g378
asbag57
(g78
g59
NtRp4043
(dp4044
g62
(dp4045
g89
g90
ssg71
g4035
sg64
(lp4046
S':'
asbag57
(g78
g59
NtRp4047
(dp4048
g62
(dp4049
sg71
g4035
sg64
(lp4050
g57
(g58
g59
NtRp4051
(dp4052
g62
(dp4053
g70
I3
ssg71
g4047
sg64
(lp4054
S''
asbasbasbag57
(g73
g59
NtRp4055
(dp4056
g62
(dp4057
sg71
g3951
sg64
(lp4058
g57
(g78
g59
NtRp4059
(dp4060
g62
(dp4061
g82
g83
ssg71
g4055
sg64
(lp4062
g399
asbag57
(g78
g59
NtRp4063
(dp4064
g62
(dp4065
g89
g90
ssg71
g4055
sg64
(lp4066
S':'
asbag57
(g78
g59
NtRp4067
(dp4068
g62
(dp4069
sg71
g4055
sg64
(lp4070
g57
(g58
g59
NtRp4071
(dp4072
g62
(dp4073
g70
I3
ssg71
g4067
sg64
(lp4074
S'/'
asbasbasbag57
(g73
g59
NtRp4075
(dp4076
g62
(dp4077
sg71
g3951
sg64
(lp4078
g57
(g78
g59
NtRp4079
(dp4080
g62
(dp4081
g82
g83
ssg71
g4075
sg64
(lp4082
g420
asbag57
(g78
g59
NtRp4083
(dp4084
g62
(dp4085
g89
g90
ssg71
g4075
sg64
(lp4086
S':'
asbag57
(g78
g59
NtRp4087
(dp4088
g62
(dp4089
sg71
g4075
sg64
(lp4090
g57
(g58
g59
NtRp4091
(dp4092
g62
(dp4093
g70
I3
ssg71
g4087
sg64
(lp4094
S''
asbasbasbag57
(g73
g59
NtRp4095
(dp4096
g62
(dp4097
sg71
g3951
sg64
(lp4098
g57
(g78
g59
NtRp4099
(dp4100
g62
(dp4101
g82
g83
ssg71
g4095
sg64
(lp4102
g441
asbag57
(g78
g59
NtRp4103
(dp4104
g62
(dp4105
g89
g90
ssg71
g4095
sg64
(lp4106
S':'
asbag57
(g78
g59
NtRp4107
(dp4108
g62
(dp4109
sg71
g4095
sg64
(lp4110
g57
(g58
g59
NtRp4111
(dp4112
g62
(dp4113
g70
I3
ssg71
g4107
sg64
(lp4114
S''
asbasbasbasbasbasbasbasbasbasbasbag57
(g73
g59
NtRp4115
(dp4116
g62
(dp4117
sg71
g3881
sg64
(lp4118
g57
(g78
g59
NtRp4119
(dp4120
g62
(dp4121
g82
g83
ssg71
g4115
sg64
(lp4122
S'delimiters'
p4123
asbag57
(g78
g59
NtRp4124
(dp4125
g62
(dp4126
g89
g90
ssg71
g4115
sg64
(lp4127
S':'
asbag57
(g78
g59
NtRp4128
(dp4129
g62
(dp4130
sg71
g4115
sg64
(lp4131
g57
(g58
g59
NtRp4132
(dp4133
g62
(dp4134
g70
I5
ssg71
g4128
sg64
(lp4135
g57
(g66
g59
NtRp4136
(dp4137
g62
(dp4138
g70
I4
ssg71
Nsg64
(lp4139
g57
(g73
g59
NtRp4140
(dp4141
g62
(dp4142
sg71
g4136
sg64
(lp4143
g57
(g78
g59
NtRp4144
(dp4145
g62
(dp4146
sg71
g4140
sg64
(lp4147
g57
(g58
g59
NtRp4148
(dp4149
g62
(dp4150
g70
I4
ssg71
g4144
sg64
(lp4151
S'{{'
p4152
asbasbasbag57
(g73
g59
NtRp4153
(dp4154
g62
(dp4155
sg71
g4136
sg64
(lp4156
g57
(g78
g59
NtRp4157
(dp4158
g62
(dp4159
sg71
g4153
sg64
(lp4160
g57
(g58
g59
NtRp4161
(dp4162
g62
(dp4163
g70
I4
ssg71
g4157
sg64
(lp4164
S'}}'
p4165
asbasbasbasbasbasbasbag57
(g73
g59
NtRp4166
(dp4167
g62
(dp4168
sg71
g3881
sg64
(lp4169
g57
(g78
g59
NtRp4170
(dp4171
g62
(dp4172
g82
g83
ssg71
g4166
sg64
(lp4173
S'files'
p4174
asbag57
(g78
g59
NtRp4175
(dp4176
g62
(dp4177
g89
g90
ssg71
g4166
sg64
(lp4178
S':'
asbag57
(g78
g59
NtRp4179
(dp4180
g62
(dp4181
sg71
g4166
sg64
(lp4182
g57
(g58
g59
NtRp4183
(dp4184
g62
(dp4185
g70
I5
ssg71
g4179
sg64
(lp4186
g57
(g66
g59
NtRp4187
(dp4188
g62
(dp4189
g70
I4
ssg71
Nsg64
(lp4190
sbasbasbasbag57
(g73
g59
NtRp4191
(dp4192
g62
(dp4193
sg71
g3881
sg64
(lp4194
g57
(g78
g59
NtRp4195
(dp4196
g62
(dp4197
g82
g83
ssg71
g4191
sg64
(lp4198
S'flash'
p4199
asbag57
(g78
g59
NtRp4200
(dp4201
g62
(dp4202
g89
g90
ssg71
g4191
sg64
(lp4203
S':'
asbag57
(g78
g59
NtRp4204
(dp4205
g62
(dp4206
sg71
g4191
sg64
(lp4207
g57
(g58
g59
NtRp4208
(dp4209
g62
(dp4210
g70
I5
ssg71
g4204
sg64
(lp4211
cgluon.languages
lazyT_unpickle
p4212
(S's\x08\x00\x00\x00Success!'
tRp4213
asbasbasbag57
(g73
g59
NtRp4214
(dp4215
g62
(dp4216
sg71
g3881
sg64
(lp4217
g57
(g78
g59
NtRp4218
(dp4219
g62
(dp4220
g82
g83
ssg71
g4214
sg64
(lp4221
S'generic_patterns'
p4222
asbag57
(g78
g59
NtRp4223
(dp4224
g62
(dp4225
g89
g90
ssg71
g4214
sg64
(lp4226
S':'
asbag57
(g78
g59
NtRp4227
(dp4228
g62
(dp4229
sg71
g4214
sg64
(lp4230
g57
(g58
g59
NtRp4231
(dp4232
g62
(dp4233
g70
I5
ssg71
g4227
sg64
(lp4234
g57
(g66
g59
NtRp4235
(dp4236
g62
(dp4237
g70
I4
ssg71
Nsg64
(lp4238
g57
(g73
g59
NtRp4239
(dp4240
g62
(dp4241
sg71
g4235
sg64
(lp4242
g57
(g78
g59
NtRp4243
(dp4244
g62
(dp4245
sg71
g4239
sg64
(lp4246
g57
(g58
g59
NtRp4247
(dp4248
g62
(dp4249
g70
I4
ssg71
g4243
sg64
(lp4250
S'*'
asbasbasbasbasbasbasbag57
(g73
g59
NtRp4251
(dp4252
g62
(dp4253
sg71
g3881
sg64
(lp4254
g57
(g78
g59
NtRp4255
(dp4256
g62
(dp4257
g82
g83
ssg71
g4251
sg64
(lp4258
S'google_analytics_id'
p4259
asbag57
(g78
g59
NtRp4260
(dp4261
g62
(dp4262
g89
g90
ssg71
g4251
sg64
(lp4263
S':'
asbag57
(g78
g59
NtRp4264
(dp4265
g62
(dp4266
sg71
g4251
sg64
(lp4267
g57
(g58
g59
NtRp4268
(dp4269
g62
(dp4270
g70
I5
ssg71
g4264
sg64
(lp4271
S'None'
p4272
asbasbasbag57
(g73
g59
NtRp4273
(dp4274
g62
(dp4275
sg71
g3881
sg64
(lp4276
g57
(g78
g59
NtRp4277
(dp4278
g62
(dp4279
g82
g83
ssg71
g4273
sg64
(lp4280
S'headers'
p4281
asbag57
(g78
g59
NtRp4282
(dp4283
g62
(dp4284
g89
g90
ssg71
g4273
sg64
(lp4285
S':'
asbag57
(g78
g59
NtRp4286
(dp4287
g62
(dp4288
sg71
g4273
sg64
(lp4289
g57
(g58
g59
NtRp4290
(dp4291
g62
(dp4292
g70
I5
ssg71
g4286
sg64
(lp4293
g57
(g66
g59
NtRp4294
(dp4295
g62
(dp4296
g70
I4
ssg71
Nsg64
(lp4297
g57
(g73
g59
NtRp4298
(dp4299
g62
(dp4300
sg71
g4294
sg64
(lp4301
g57
(g78
g59
NtRp4302
(dp4303
g62
(dp4304
g82
g83
ssg71
g4298
sg64
(lp4305
S'X-Powered-By'
p4306
asbag57
(g78
g59
NtRp4307
(dp4308
g62
(dp4309
g89
g90
ssg71
g4298
sg64
(lp4310
S':'
asbag57
(g78
g59
NtRp4311
(dp4312
g62
(dp4313
sg71
g4298
sg64
(lp4314
g57
(g58
g59
NtRp4315
(dp4316
g62
(dp4317
g70
I4
ssg71
g4311
sg64
(lp4318
S'web2py'
p4319
asbasbasbasbasbasbasbag57
(g73
g59
NtRp4320
(dp4321
g62
(dp4322
sg71
g3881
sg64
(lp4323
g57
(g78
g59
NtRp4324
(dp4325
g62
(dp4326
g82
g83
ssg71
g4320
sg64
(lp4327
S'menu'
p4328
asbag57
(g78
g59
NtRp4329
(dp4330
g62
(dp4331
g89
g90
ssg71
g4320
sg64
(lp4332
S':'
asbag57
(g78
g59
NtRp4333
(dp4334
g62
(dp4335
sg71
g4320
sg64
(lp4336
g57
(g58
g59
NtRp4337
(dp4338
g62
(dp4339
g70
I5
ssg71
g4333
sg64
(lp4340
g57
(g66
g59
NtRp4341
(dp4342
g62
(dp4343
g70
I4
ssg71
Nsg64
(lp4344
g57
(g73
g59
NtRp4345
(dp4346
g62
(dp4347
sg71
g4341
sg64
(lp4348
g57
(g78
g59
NtRp4349
(dp4350
g62
(dp4351
sg71
g4345
sg64
(lp4352
g57
(g58
g59
NtRp4353
(dp4354
g62
(dp4355
g70
I4
ssg71
g4349
sg64
(lp4356
g57
(g66
g59
NtRp4357
(dp4358
g62
(dp4359
g70
I3
ssg71
Nsg64
(lp4360
g57
(g73
g59
NtRp4361
(dp4362
g62
(dp4363
sg71
g4357
sg64
(lp4364
g57
(g78
g59
NtRp4365
(dp4366
g62
(dp4367
sg71
g4361
sg64
(lp4368
g57
(g58
g59
NtRp4369
(dp4370
g62
(dp4371
g70
I3
ssg71
g4365
sg64
(lp4372
g4212
(S't\x04\x00\x00\x00Home'
tRp4373
asbasbasbag57
(g73
g59
NtRp4374
(dp4375
g62
(dp4376
sg71
g4357
sg64
(lp4377
g57
(g78
g59
NtRp4378
(dp4379
g62
(dp4380
sg71
g4374
sg64
(lp4381
g57
(g58
g59
NtRp4382
(dp4383
g62
(dp4384
g70
I3
ssg71
g4378
sg64
(lp4385
g100
asbasbasbag57
(g73
g59
NtRp4386
(dp4387
g62
(dp4388
sg71
g4357
sg64
(lp4389
g57
(g78
g59
NtRp4390
(dp4391
g62
(dp4392
sg71
g4386
sg64
(lp4393
g57
(g58
g59
NtRp4394
(dp4395
g62
(dp4396
g70
I3
ssg71
g4390
sg64
(lp4397
S'/QSunTasteBudsV2/default/index'
p4398
asbasbasbag57
(g73
g59
NtRp4399
(dp4400
g62
(dp4401
sg71
g4357
sg64
(lp4402
g57
(g78
g59
NtRp4403
(dp4404
g62
(dp4405
sg71
g4399
sg64
(lp4406
g57
(g58
g59
NtRp4407
(dp4408
g62
(dp4409
g70
I3
ssg71
g4403
sg64
(lp4410
g57
(g66
g59
NtRp4411
(dp4412
g62
(dp4413
g70
I2
ssg71
Nsg64
(lp4414
sbasbasbasbasbasbasbasbag57
(g73
g59
NtRp4415
(dp4416
g62
(dp4417
sg71
g4341
sg64
(lp4418
g57
(g78
g59
NtRp4419
(dp4420
g62
(dp4421
sg71
g4415
sg64
(lp4422
g57
(g58
g59
NtRp4423
(dp4424
g62
(dp4425
g70
I4
ssg71
g4419
sg64
(lp4426
g57
(g66
g59
NtRp4427
(dp4428
g62
(dp4429
g70
I3
ssg71
Nsg64
(lp4430
g57
(g73
g59
NtRp4431
(dp4432
g62
(dp4433
sg71
g4427
sg64
(lp4434
g57
(g78
g59
NtRp4435
(dp4436
g62
(dp4437
sg71
g4431
sg64
(lp4438
g57
(g58
g59
NtRp4439
(dp4440
g62
(dp4441
g70
I3
ssg71
g4435
sg64
(lp4442
g57
(cgluon.html
SPAN
p4443
g59
NtRp4444
(dp4445
g62
(dp4446
g82
S'color:yellow'
p4447
ssg71
Nsg64
(lp4448
g4319
asbasbasbasbag57
(g73
g59
NtRp4449
(dp4450
g62
(dp4451
sg71
g4427
sg64
(lp4452
g57
(g78
g59
NtRp4453
(dp4454
g62
(dp4455
sg71
g4449
sg64
(lp4456
g57
(g58
g59
NtRp4457
(dp4458
g62
(dp4459
g70
I3
ssg71
g4453
sg64
(lp4460
g100
asbasbasbag57
(g73
g59
NtRp4461
(dp4462
g62
(dp4463
sg71
g4427
sg64
(lp4464
g57
(g78
g59
NtRp4465
(dp4466
g62
(dp4467
sg71
g4461
sg64
(lp4468
g57
(g58
g59
NtRp4469
(dp4470
g62
(dp4471
g70
I3
ssg71
g4465
sg64
(lp4472
S'http://web2py.com'
p4473
asbasbasbag57
(g73
g59
NtRp4474
(dp4475
g62
(dp4476
sg71
g4427
sg64
(lp4477
g57
(g78
g59
NtRp4478
(dp4479
g62
(dp4480
sg71
g4474
sg64
(lp4481
g57
(g58
g59
NtRp4482
(dp4483
g62
(dp4484
g70
I3
ssg71
g4478
sg64
(lp4485
g57
(g66
g59
NtRp4486
(dp4487
g62
(dp4488
g70
I2
ssg71
Nsg64
(lp4489
g57
(g73
g59
NtRp4490
(dp4491
g62
(dp4492
sg71
g4486
sg64
(lp4493
g57
(g78
g59
NtRp4494
(dp4495
g62
(dp4496
sg71
g4490
sg64
(lp4497
g57
(g58
g59
NtRp4498
(dp4499
g62
(dp4500
g70
I2
ssg71
g4494
sg64
(lp4501
g57
(g66
g59
NtRp4502
(dp4503
g62
(dp4504
g70
I1
ssg71
Nsg64
(lp4505
g57
(g73
g59
NtRp4506
(dp4507
g62
(dp4508
sg71
g4502
sg64
(lp4509
g57
(g78
g59
NtRp4510
(dp4511
g62
(dp4512
sg71
g4506
sg64
(lp4513
g57
(g58
g59
NtRp4514
(dp4515
g62
(dp4516
g70
I1
ssg71
g4510
sg64
(lp4517
g4212
(S's\x08\x00\x00\x00My Sites'
tRp4518
asbasbasbag57
(g73
g59
NtRp4519
(dp4520
g62
(dp4521
sg71
g4502
sg64
(lp4522
g57
(g78
g59
NtRp4523
(dp4524
g62
(dp4525
sg71
g4519
sg64
(lp4526
g57
(g58
g59
NtRp4527
(dp4528
g62
(dp4529
g70
I1
ssg71
g4523
sg64
(lp4530
I00
asbasbasbag57
(g73
g59
NtRp4531
(dp4532
g62
(dp4533
sg71
g4502
sg64
(lp4534
g57
(g78
g59
NtRp4535
(dp4536
g62
(dp4537
sg71
g4531
sg64
(lp4538
g57
(g58
g59
NtRp4539
(dp4540
g62
(dp4541
g70
I1
ssg71
g4535
sg64
(lp4542
S'/admin/default/site'
p4543
asbasbasbasbasbasbasbag57
(g73
g59
NtRp4544
(dp4545
g62
(dp4546
sg71
g4486
sg64
(lp4547
g57
(g78
g59
NtRp4548
(dp4549
g62
(dp4550
sg71
g4544
sg64
(lp4551
g57
(g58
g59
NtRp4552
(dp4553
g62
(dp4554
g70
I2
ssg71
g4548
sg64
(lp4555
g57
(g66
g59
NtRp4556
(dp4557
g62
(dp4558
g70
I1
ssg71
Nsg64
(lp4559
g57
(g73
g59
NtRp4560
(dp4561
g62
(dp4562
sg71
g4556
sg64
(lp4563
g57
(g78
g59
NtRp4564
(dp4565
g62
(dp4566
sg71
g4560
sg64
(lp4567
g57
(g58
g59
NtRp4568
(dp4569
g62
(dp4570
g70
I1
ssg71
g4564
sg64
(lp4571
g4212
(S's\x08\x00\x00\x00This App'
tRp4572
asbasbasbag57
(g73
g59
NtRp4573
(dp4574
g62
(dp4575
sg71
g4556
sg64
(lp4576
g57
(g78
g59
NtRp4577
(dp4578
g62
(dp4579
sg71
g4573
sg64
(lp4580
g57
(g58
g59
NtRp4581
(dp4582
g62
(dp4583
g70
I1
ssg71
g4577
sg64
(lp4584
I00
asbasbasbag57
(g73
g59
NtRp4585
(dp4586
g62
(dp4587
sg71
g4556
sg64
(lp4588
g57
(g78
g59
NtRp4589
(dp4590
g62
(dp4591
sg71
g4585
sg64
(lp4592
g57
(g58
g59
NtRp4593
(dp4594
g62
(dp4595
g70
I1
ssg71
g4589
sg64
(lp4596
S'/admin/default/design/QSunTasteBudsV2'
p4597
asbasbasbag57
(g73
g59
NtRp4598
(dp4599
g62
(dp4600
sg71
g4556
sg64
(lp4601
g57
(g78
g59
NtRp4602
(dp4603
g62
(dp4604
sg71
g4598
sg64
(lp4605
g57
(g58
g59
NtRp4606
(dp4607
g62
(dp4608
g70
I1
ssg71
g4602
sg64
(lp4609
(lp4610
(g4212
(S't\n\x00\x00\x00Controller'
tRp4611
I00
S'/admin/default/edit/QSunTasteBudsV2/controllers/default.py'
tp4612
a(g4212
(S't\x04\x00\x00\x00View'
tRp4613
I00
S'/admin/default/edit/QSunTasteBudsV2/views/default/rateRecipe.html'
tp4614
a(g4212
(S't\x06\x00\x00\x00Layout'
tRp4615
I00
S'/admin/default/edit/QSunTasteBudsV2/views/layout.html'
tp4616
a(g4212
(S't\n\x00\x00\x00Stylesheet'
tRp4617
I00
S'/admin/default/edit/QSunTasteBudsV2/static/css/web2py.css'
tp4618
a(g4212
(S's\x08\x00\x00\x00DB Model'
tRp4619
I00
S'/admin/default/edit/QSunTasteBudsV2/models/db.py'
tp4620
a(g4212
(S's\n\x00\x00\x00Menu Model'
tRp4621
I00
S'/admin/default/edit/QSunTasteBudsV2/models/menu.py'
tp4622
a(g4212
(S't\x08\x00\x00\x00Database'
tRp4623
I00
S'/QSunTasteBudsV2/appadmin/index'
tp4624
a(g4212
(S't\x06\x00\x00\x00Errors'
tRp4625
I00
S'/admin/default/errors/QSunTasteBudsV2'
tp4626
a(g4212
(S't\x05\x00\x00\x00About'
tRp4627
I00
S'/admin/default/about/QSunTasteBudsV2'
tp4628
aasbasbasbasbasbasbasbag57
(g73
g59
NtRp4629
(dp4630
g62
(dp4631
sg71
g4486
sg64
(lp4632
g57
(g78
g59
NtRp4633
(dp4634
g62
(dp4635
sg71
g4629
sg64
(lp4636
g57
(g58
g59
NtRp4637
(dp4638
g62
(dp4639
g70
I2
ssg71
g4633
sg64
(lp4640
g57
(g66
g59
NtRp4641
(dp4642
g62
(dp4643
g70
I1
ssg71
Nsg64
(lp4644
g57
(g73
g59
NtRp4645
(dp4646
g62
(dp4647
sg71
g4641
sg64
(lp4648
g57
(g78
g59
NtRp4649
(dp4650
g62
(dp4651
sg71
g4645
sg64
(lp4652
g57
(g58
g59
NtRp4653
(dp4654
g62
(dp4655
g70
I1
ssg71
g4649
sg64
(lp4656
S'web2py.com'
p4657
asbasbasbag57
(g73
g59
NtRp4658
(dp4659
g62
(dp4660
sg71
g4641
sg64
(lp4661
g57
(g78
g59
NtRp4662
(dp4663
g62
(dp4664
sg71
g4658
sg64
(lp4665
g57
(g58
g59
NtRp4666
(dp4667
g62
(dp4668
g70
I1
ssg71
g4662
sg64
(lp4669
I00
asbasbasbag57
(g73
g59
NtRp4670
(dp4671
g62
(dp4672
sg71
g4641
sg64
(lp4673
g57
(g78
g59
NtRp4674
(dp4675
g62
(dp4676
sg71
g4670
sg64
(lp4677
g57
(g58
g59
NtRp4678
(dp4679
g62
(dp4680
g70
I1
ssg71
g4674
sg64
(lp4681
S'http://www.web2py.com'
p4682
asbasbasbag57
(g73
g59
NtRp4683
(dp4684
g62
(dp4685
sg71
g4641
sg64
(lp4686
g57
(g78
g59
NtRp4687
(dp4688
g62
(dp4689
sg71
g4683
sg64
(lp4690
g57
(g58
g59
NtRp4691
(dp4692
g62
(dp4693
g70
I1
ssg71
g4687
sg64
(lp4694
(lp4695
(g4212
(S't\x08\x00\x00\x00Download'
tRp4696
I00
S'http://www.web2py.com/examples/default/download'
p4697
tp4698
a(g4212
(S't\x07\x00\x00\x00Support'
tRp4699
I00
S'http://www.web2py.com/examples/default/support'
p4700
tp4701
a(g4212
(S't\x04\x00\x00\x00Demo'
tRp4702
I00
S'http://web2py.com/demo_admin'
p4703
tp4704
a(g4212
(S's\x0e\x00\x00\x00Quick Examples'
tRp4705
I00
S'http://web2py.com/examples/default/examples'
p4706
tp4707
a(g4212
(S't\x03\x00\x00\x00FAQ'
tRp4708
I00
S'http://web2py.com/AlterEgo'
p4709
tp4710
a(g4212
(S't\x06\x00\x00\x00Videos'
tRp4711
I00
S'http://www.web2py.com/examples/default/videos/'
p4712
tp4713
a(g4212
(S's\x11\x00\x00\x00Free Applications'
tRp4714
I00
S'http://web2py.com/appliances'
p4715
tp4716
a(g4212
(S't\x07\x00\x00\x00Plugins'
tRp4717
I00
S'http://web2py.com/plugins'
p4718
tp4719
a(g4212
(S't\x07\x00\x00\x00Layouts'
tRp4720
I00
S'http://web2py.com/layouts'
p4721
tp4722
a(g4212
(S't\x07\x00\x00\x00Recipes'
tRp4723
I00
S'http://web2pyslices.com/'
p4724
tp4725
a(g4212
(S't\x08\x00\x00\x00Semantic'
tRp4726
I00
S'http://web2py.com/semantic'
p4727
tp4728
aasbasbasbasbasbasbasbag57
(g73
g59
NtRp4729
(dp4730
g62
(dp4731
sg71
g4486
sg64
(lp4732
g57
(g78
g59
NtRp4733
(dp4734
g62
(dp4735
sg71
g4729
sg64
(lp4736
g57
(g58
g59
NtRp4737
(dp4738
g62
(dp4739
g70
I2
ssg71
g4733
sg64
(lp4740
g57
(g66
g59
NtRp4741
(dp4742
g62
(dp4743
g70
I1
ssg71
Nsg64
(lp4744
g57
(g73
g59
NtRp4745
(dp4746
g62
(dp4747
sg71
g4741
sg64
(lp4748
g57
(g78
g59
NtRp4749
(dp4750
g62
(dp4751
sg71
g4745
sg64
(lp4752
g57
(g58
g59
NtRp4753
(dp4754
g62
(dp4755
g70
I1
ssg71
g4749
sg64
(lp4756
g4212
(S't\r\x00\x00\x00Documentation'
tRp4757
asbasbasbag57
(g73
g59
NtRp4758
(dp4759
g62
(dp4760
sg71
g4741
sg64
(lp4761
g57
(g78
g59
NtRp4762
(dp4763
g62
(dp4764
sg71
g4758
sg64
(lp4765
g57
(g58
g59
NtRp4766
(dp4767
g62
(dp4768
g70
I1
ssg71
g4762
sg64
(lp4769
I00
asbasbasbag57
(g73
g59
NtRp4770
(dp4771
g62
(dp4772
sg71
g4741
sg64
(lp4773
g57
(g78
g59
NtRp4774
(dp4775
g62
(dp4776
sg71
g4770
sg64
(lp4777
g57
(g58
g59
NtRp4778
(dp4779
g62
(dp4780
g70
I1
ssg71
g4774
sg64
(lp4781
S'http://www.web2py.com/book'
p4782
asbasbasbag57
(g73
g59
NtRp4783
(dp4784
g62
(dp4785
sg71
g4741
sg64
(lp4786
g57
(g78
g59
NtRp4787
(dp4788
g62
(dp4789
sg71
g4783
sg64
(lp4790
g57
(g58
g59
NtRp4791
(dp4792
g62
(dp4793
g70
I1
ssg71
g4787
sg64
(lp4794
(lp4795
(g4212
(S't\x07\x00\x00\x00Preface'
tRp4796
I00
S'http://www.web2py.com/book/default/chapter/00'
p4797
tp4798
a(g4212
(S't\x0c\x00\x00\x00Introduction'
tRp4799
I00
S'http://www.web2py.com/book/default/chapter/01'
p4800
tp4801
a(g4212
(S't\x06\x00\x00\x00Python'
tRp4802
I00
S'http://www.web2py.com/book/default/chapter/02'
p4803
tp4804
a(g4212
(S't\x08\x00\x00\x00Overview'
tRp4805
I00
S'http://www.web2py.com/book/default/chapter/03'
p4806
tp4807
a(g4212
(S's\x08\x00\x00\x00The Core'
tRp4808
I00
S'http://www.web2py.com/book/default/chapter/04'
p4809
tp4810
a(g4212
(S's\t\x00\x00\x00The Views'
tRp4811
I00
S'http://www.web2py.com/book/default/chapter/05'
p4812
tp4813
a(g4212
(S't\x08\x00\x00\x00Database'
tRp4814
I00
S'http://www.web2py.com/book/default/chapter/06'
p4815
tp4816
a(g4212
(S's\x14\x00\x00\x00Forms and Validators'
tRp4817
I00
S'http://www.web2py.com/book/default/chapter/07'
p4818
tp4819
a(g4212
(S's\r\x00\x00\x00Email and SMS'
tRp4820
I00
S'http://www.web2py.com/book/default/chapter/08'
p4821
tp4822
a(g4212
(S's\x0e\x00\x00\x00Access Control'
tRp4823
I00
S'http://www.web2py.com/book/default/chapter/09'
p4824
tp4825
a(g4212
(S't\x08\x00\x00\x00Services'
tRp4826
I00
S'http://www.web2py.com/book/default/chapter/10'
p4827
tp4828
a(g4212
(S's\x0c\x00\x00\x00Ajax Recipes'
tRp4829
I00
S'http://www.web2py.com/book/default/chapter/11'
p4830
tp4831
a(g4212
(S's\x16\x00\x00\x00Components and Plugins'
tRp4832
I00
S'http://www.web2py.com/book/default/chapter/12'
p4833
tp4834
a(g4212
(S's\x12\x00\x00\x00Deployment Recipes'
tRp4835
I00
S'http://www.web2py.com/book/default/chapter/13'
p4836
tp4837
a(g4212
(S's\r\x00\x00\x00Other Recipes'
tRp4838
I00
S'http://www.web2py.com/book/default/chapter/14'
p4839
tp4840
a(g4212
(S's\r\x00\x00\x00Buy this book'
tRp4841
I00
S'http://stores.lulu.com/web2py'
p4842
tp4843
aasbasbasbasbasbasbasbag57
(g73
g59
NtRp4844
(dp4845
g62
(dp4846
sg71
g4486
sg64
(lp4847
g57
(g78
g59
NtRp4848
(dp4849
g62
(dp4850
sg71
g4844
sg64
(lp4851
g57
(g58
g59
NtRp4852
(dp4853
g62
(dp4854
g70
I2
ssg71
g4848
sg64
(lp4855
g57
(g66
g59
NtRp4856
(dp4857
g62
(dp4858
g70
I1
ssg71
Nsg64
(lp4859
g57
(g73
g59
NtRp4860
(dp4861
g62
(dp4862
sg71
g4856
sg64
(lp4863
g57
(g78
g59
NtRp4864
(dp4865
g62
(dp4866
sg71
g4860
sg64
(lp4867
g57
(g58
g59
NtRp4868
(dp4869
g62
(dp4870
g70
I1
ssg71
g4864
sg64
(lp4871
g4212
(S't\t\x00\x00\x00Community'
tRp4872
asbasbasbag57
(g73
g59
NtRp4873
(dp4874
g62
(dp4875
sg71
g4856
sg64
(lp4876
g57
(g78
g59
NtRp4877
(dp4878
g62
(dp4879
sg71
g4873
sg64
(lp4880
g57
(g58
g59
NtRp4881
(dp4882
g62
(dp4883
g70
I1
ssg71
g4877
sg64
(lp4884
I00
asbasbasbag57
(g73
g59
NtRp4885
(dp4886
g62
(dp4887
sg71
g4856
sg64
(lp4888
g57
(g78
g59
NtRp4889
(dp4890
g62
(dp4891
sg71
g4885
sg64
(lp4892
g57
(g58
g59
NtRp4893
(dp4894
g62
(dp4895
g70
I1
ssg71
g4889
sg64
(lp4896
Nasbasbasbag57
(g73
g59
NtRp4897
(dp4898
g62
(dp4899
sg71
g4856
sg64
(lp4900
g57
(g78
g59
NtRp4901
(dp4902
g62
(dp4903
sg71
g4897
sg64
(lp4904
g57
(g58
g59
NtRp4905
(dp4906
g62
(dp4907
g70
I1
ssg71
g4901
sg64
(lp4908
(lp4909
(g4212
(S't\x06\x00\x00\x00Groups'
tRp4910
I00
S'http://www.web2py.com/examples/default/usergroups'
p4911
tp4912
a(g4212
(S't\x07\x00\x00\x00Twitter'
tRp4913
I00
S'http://twitter.com/web2py'
p4914
tp4915
a(g4212
(S's\t\x00\x00\x00Live Chat'
tRp4916
I00
S'http://webchat.freenode.net/?channels=web2py'
p4917
tp4918
aasbasbasbasbasbasbasbag57
(g73
g59
NtRp4919
(dp4920
g62
(dp4921
sg71
g4486
sg64
(lp4922
g57
(g78
g59
NtRp4923
(dp4924
g62
(dp4925
sg71
g4919
sg64
(lp4926
g57
(g58
g59
NtRp4927
(dp4928
g62
(dp4929
g70
I2
ssg71
g4923
sg64
(lp4930
g57
(g66
g59
NtRp4931
(dp4932
g62
(dp4933
g70
I1
ssg71
Nsg64
(lp4934
g57
(g73
g59
NtRp4935
(dp4936
g62
(dp4937
sg71
g4931
sg64
(lp4938
g57
(g78
g59
NtRp4939
(dp4940
g62
(dp4941
sg71
g4935
sg64
(lp4942
g57
(g58
g59
NtRp4943
(dp4944
g62
(dp4945
g70
I1
ssg71
g4939
sg64
(lp4946
g4212
(S't\x07\x00\x00\x00Plugins'
tRp4947
asbasbasbag57
(g73
g59
NtRp4948
(dp4949
g62
(dp4950
sg71
g4931
sg64
(lp4951
g57
(g78
g59
NtRp4952
(dp4953
g62
(dp4954
sg71
g4948
sg64
(lp4955
g57
(g58
g59
NtRp4956
(dp4957
g62
(dp4958
g70
I1
ssg71
g4952
sg64
(lp4959
I00
asbasbasbag57
(g73
g59
NtRp4960
(dp4961
g62
(dp4962
sg71
g4931
sg64
(lp4963
g57
(g78
g59
NtRp4964
(dp4965
g62
(dp4966
sg71
g4960
sg64
(lp4967
g57
(g58
g59
NtRp4968
(dp4969
g62
(dp4970
g70
I1
ssg71
g4964
sg64
(lp4971
Nasbasbasbag57
(g73
g59
NtRp4972
(dp4973
g62
(dp4974
sg71
g4931
sg64
(lp4975
g57
(g78
g59
NtRp4976
(dp4977
g62
(dp4978
sg71
g4972
sg64
(lp4979
g57
(g58
g59
NtRp4980
(dp4981
g62
(dp4982
g70
I1
ssg71
g4976
sg64
(lp4983
(lp4984
(S'plugin_wiki'
p4985
I00
S'http://web2py.com/examples/default/download'
p4986
tp4987
a(g4212
(S's\r\x00\x00\x00Other Plugins'
tRp4988
I00
g4718
tp4989
a(g4212
(S's\x0e\x00\x00\x00Layout Plugins'
tRp4990
I00
g4721
tp4991
aasbasbasbasbasbasbasbasbasbasbasbasbasbasbasbasbasbasbasbag57
(g73
g59
NtRp4992
(dp4993
g62
(dp4994
sg71
g3881
sg64
(lp4995
g57
(g78
g59
NtRp4996
(dp4997
g62
(dp4998
g82
g83
ssg71
g4992
sg64
(lp4999
S'meta'
p5000
asbag57
(g78
g59
NtRp5001
(dp5002
g62
(dp5003
g89
g90
ssg71
g4992
sg64
(lp5004
S':'
asbag57
(g78
g59
NtRp5005
(dp5006
g62
(dp5007
sg71
g4992
sg64
(lp5008
g57
(g58
g59
NtRp5009
(dp5010
g62
(dp5011
g70
I5
ssg71
g5005
sg64
(lp5012
g57
(g66
g59
NtRp5013
(dp5014
g62
(dp5015
g70
I4
ssg71
Nsg64
(lp5016
g57
(g73
g59
NtRp5017
(dp5018
g62
(dp5019
sg71
g5013
sg64
(lp5020
g57
(g78
g59
NtRp5021
(dp5022
g62
(dp5023
g82
g83
ssg71
g5017
sg64
(lp5024
S'author'
p5025
asbag57
(g78
g59
NtRp5026
(dp5027
g62
(dp5028
g89
g90
ssg71
g5017
sg64
(lp5029
S':'
asbag57
(g78
g59
NtRp5030
(dp5031
g62
(dp5032
sg71
g5017
sg64
(lp5033
g57
(g58
g59
NtRp5034
(dp5035
g62
(dp5036
g70
I4
ssg71
g5030
sg64
(lp5037
S'Your Name <you@example.com>'
p5038
asbasbasbag57
(g73
g59
NtRp5039
(dp5040
g62
(dp5041
sg71
g5013
sg64
(lp5042
g57
(g78
g59
NtRp5043
(dp5044
g62
(dp5045
g82
g83
ssg71
g5039
sg64
(lp5046
S'description'
p5047
asbag57
(g78
g59
NtRp5048
(dp5049
g62
(dp5050
g89
g90
ssg71
g5039
sg64
(lp5051
S':'
asbag57
(g78
g59
NtRp5052
(dp5053
g62
(dp5054
sg71
g5039
sg64
(lp5055
g57
(g58
g59
NtRp5056
(dp5057
g62
(dp5058
g70
I4
ssg71
g5052
sg64
(lp5059
S'a cool new app'
p5060
asbasbasbag57
(g73
g59
NtRp5061
(dp5062
g62
(dp5063
sg71
g5013
sg64
(lp5064
g57
(g78
g59
NtRp5065
(dp5066
g62
(dp5067
g82
g83
ssg71
g5061
sg64
(lp5068
S'generator'
p5069
asbag57
(g78
g59
NtRp5070
(dp5071
g62
(dp5072
g89
g90
ssg71
g5061
sg64
(lp5073
S':'
asbag57
(g78
g59
NtRp5074
(dp5075
g62
(dp5076
sg71
g5061
sg64
(lp5077
g57
(g58
g59
NtRp5078
(dp5079
g62
(dp5080
g70
I4
ssg71
g5074
sg64
(lp5081
S'Web2py Web Framework'
p5082
asbasbasbag57
(g73
g59
NtRp5083
(dp5084
g62
(dp5085
sg71
g5013
sg64
(lp5086
g57
(g78
g59
NtRp5087
(dp5088
g62
(dp5089
g82
g83
ssg71
g5083
sg64
(lp5090
S'keywords'
p5091
asbag57
(g78
g59
NtRp5092
(dp5093
g62
(dp5094
g89
g90
ssg71
g5083
sg64
(lp5095
S':'
asbag57
(g78
g59
NtRp5096
(dp5097
g62
(dp5098
sg71
g5083
sg64
(lp5099
g57
(g58
g59
NtRp5100
(dp5101
g62
(dp5102
g70
I4
ssg71
g5096
sg64
(lp5103
S'web2py, python, framework'
p5104
asbasbasbasbasbasbasbag57
(g73
g59
NtRp5105
(dp5106
g62
(dp5107
sg71
g3881
sg64
(lp5108
g57
(g78
g59
NtRp5109
(dp5110
g62
(dp5111
g82
g83
ssg71
g5105
sg64
(lp5112
S'models_to_run'
p5113
asbag57
(g78
g59
NtRp5114
(dp5115
g62
(dp5116
g89
g90
ssg71
g5105
sg64
(lp5117
S':'
asbag57
(g78
g59
NtRp5118
(dp5119
g62
(dp5120
sg71
g5105
sg64
(lp5121
g57
(g58
g59
NtRp5122
(dp5123
g62
(dp5124
g70
I5
ssg71
g5118
sg64
(lp5125
g57
(g66
g59
NtRp5126
(dp5127
g62
(dp5128
g70
I4
ssg71
Nsg64
(lp5129
g57
(g73
g59
NtRp5130
(dp5131
g62
(dp5132
sg71
g5126
sg64
(lp5133
g57
(g78
g59
NtRp5134
(dp5135
g62
(dp5136
sg71
g5130
sg64
(lp5137
g57
(g58
g59
NtRp5138
(dp5139
g62
(dp5140
g70
I4
ssg71
g5134
sg64
(lp5141
S'^\\w+\\.py$'
p5142
asbasbasbag57
(g73
g59
NtRp5143
(dp5144
g62
(dp5145
sg71
g5126
sg64
(lp5146
g57
(g78
g59
NtRp5147
(dp5148
g62
(dp5149
sg71
g5143
sg64
(lp5150
g57
(g58
g59
NtRp5151
(dp5152
g62
(dp5153
g70
I4
ssg71
g5147
sg64
(lp5154
S'^default/\\w+\\.py$'
p5155
asbasbasbag57
(g73
g59
NtRp5156
(dp5157
g62
(dp5158
sg71
g5126
sg64
(lp5159
g57
(g78
g59
NtRp5160
(dp5161
g62
(dp5162
sg71
g5156
sg64
(lp5163
g57
(g58
g59
NtRp5164
(dp5165
g62
(dp5166
g70
I4
ssg71
g5160
sg64
(lp5167
S'^default/rateRecipe/\\w+\\.py$'
p5168
asbasbasbasbasbasbasbag57
(g73
g59
NtRp5169
(dp5170
g62
(dp5171
sg71
g3881
sg64
(lp5172
g57
(g78
g59
NtRp5173
(dp5174
g62
(dp5175
g82
g83
ssg71
g5169
sg64
(lp5176
S'postprocessing'
p5177
asbag57
(g78
g59
NtRp5178
(dp5179
g62
(dp5180
g89
g90
ssg71
g5169
sg64
(lp5181
S':'
asbag57
(g78
g59
NtRp5182
(dp5183
g62
(dp5184
sg71
g5169
sg64
(lp5185
g57
(g58
g59
NtRp5186
(dp5187
g62
(dp5188
g70
I5
ssg71
g5182
sg64
(lp5189
g57
(g66
g59
NtRp5190
(dp5191
g62
(dp5192
g70
I4
ssg71
Nsg64
(lp5193
sbasbasbasbag57
(g73
g59
NtRp5194
(dp5195
g62
(dp5196
sg71
g3881
sg64
(lp5197
g57
(g78
g59
NtRp5198
(dp5199
g62
(dp5200
g82
g83
ssg71
g5194
sg64
(lp5201
S'session_file'
p5202
asbag57
(g78
g59
NtRp5203
(dp5204
g62
(dp5205
g89
g90
ssg71
g5194
sg64
(lp5206
S':'
asbag57
(g78
g59
NtRp5207
(dp5208
g62
(dp5209
sg71
g5194
sg64
(lp5210
g57
(g58
g59
NtRp5211
(dp5212
g62
(dp5213
g70
I5
ssg71
g5207
sg64
(lp5214
S"<open file 'D:\\web2py_win\\web2py\\applications\\QSunTasteBudsV2\\sessions\\127.0.0.1-03c509ec-2cef-426f-a88b-6eb0c079c2a6', mode 'rb+' at 0x01A1DE90>"
p5215
asbasbasbag57
(g73
g59
NtRp5216
(dp5217
g62
(dp5218
sg71
g3881
sg64
(lp5219
g57
(g78
g59
NtRp5220
(dp5221
g62
(dp5222
g82
g83
ssg71
g5216
sg64
(lp5223
S'session_filename'
p5224
asbag57
(g78
g59
NtRp5225
(dp5226
g62
(dp5227
g89
g90
ssg71
g5216
sg64
(lp5228
S':'
asbag57
(g78
g59
NtRp5229
(dp5230
g62
(dp5231
sg71
g5216
sg64
(lp5232
g57
(g58
g59
NtRp5233
(dp5234
g62
(dp5235
g70
I5
ssg71
g5229
sg64
(lp5236
S'D:\\web2py_win\\web2py\\applications\\QSunTasteBudsV2\\sessions\\127.0.0.1-03c509ec-2cef-426f-a88b-6eb0c079c2a6'
p5237
asbasbasbag57
(g73
g59
NtRp5238
(dp5239
g62
(dp5240
sg71
g3881
sg64
(lp5241
g57
(g78
g59
NtRp5242
(dp5243
g62
(dp5244
g82
g83
ssg71
g5238
sg64
(lp5245
S'session_id'
p5246
asbag57
(g78
g59
NtRp5247
(dp5248
g62
(dp5249
g89
g90
ssg71
g5238
sg64
(lp5250
S':'
asbag57
(g78
g59
NtRp5251
(dp5252
g62
(dp5253
sg71
g5238
sg64
(lp5254
g57
(g58
g59
NtRp5255
(dp5256
g62
(dp5257
g70
I5
ssg71
g5251
sg64
(lp5258
g475
asbasbasbag57
(g73
g59
NtRp5259
(dp5260
g62
(dp5261
sg71
g3881
sg64
(lp5262
g57
(g78
g59
NtRp5263
(dp5264
g62
(dp5265
g82
g83
ssg71
g5259
sg64
(lp5266
S'session_id_name'
p5267
asbag57
(g78
g59
NtRp5268
(dp5269
g62
(dp5270
g89
g90
ssg71
g5259
sg64
(lp5271
S':'
asbag57
(g78
g59
NtRp5272
(dp5273
g62
(dp5274
sg71
g5259
sg64
(lp5275
g57
(g58
g59
NtRp5276
(dp5277
g62
(dp5278
g70
I5
ssg71
g5272
sg64
(lp5279
g3938
asbasbasbag57
(g73
g59
NtRp5280
(dp5281
g62
(dp5282
sg71
g3881
sg64
(lp5283
g57
(g78
g59
NtRp5284
(dp5285
g62
(dp5286
g82
g83
ssg71
g5280
sg64
(lp5287
S'session_locked'
p5288
asbag57
(g78
g59
NtRp5289
(dp5290
g62
(dp5291
g89
g90
ssg71
g5280
sg64
(lp5292
S':'
asbag57
(g78
g59
NtRp5293
(dp5294
g62
(dp5295
sg71
g5280
sg64
(lp5296
g57
(g58
g59
NtRp5297
(dp5298
g62
(dp5299
g70
I5
ssg71
g5293
sg64
(lp5300
g1809
asbasbasbag57
(g73
g59
NtRp5301
(dp5302
g62
(dp5303
sg71
g3881
sg64
(lp5304
g57
(g78
g59
NtRp5305
(dp5306
g62
(dp5307
g82
g83
ssg71
g5301
sg64
(lp5308
S'session_new'
p5309
asbag57
(g78
g59
NtRp5310
(dp5311
g62
(dp5312
g89
g90
ssg71
g5301
sg64
(lp5313
S':'
asbag57
(g78
g59
NtRp5314
(dp5315
g62
(dp5316
sg71
g5301
sg64
(lp5317
g57
(g58
g59
NtRp5318
(dp5319
g62
(dp5320
g70
I5
ssg71
g5314
sg64
(lp5321
g100
asbasbasbag57
(g73
g59
NtRp5322
(dp5323
g62
(dp5324
sg71
g3881
sg64
(lp5325
g57
(g78
g59
NtRp5326
(dp5327
g62
(dp5328
g82
g83
ssg71
g5322
sg64
(lp5329
S'status'
p5330
asbag57
(g78
g59
NtRp5331
(dp5332
g62
(dp5333
g89
g90
ssg71
g5322
sg64
(lp5334
S':'
asbag57
(g78
g59
NtRp5335
(dp5336
g62
(dp5337
sg71
g5322
sg64
(lp5338
g57
(g58
g59
NtRp5339
(dp5340
g62
(dp5341
g70
I5
ssg71
g5335
sg64
(lp5342
S'200'
p5343
asbasbasbag57
(g73
g59
NtRp5344
(dp5345
g62
(dp5346
sg71
g3881
sg64
(lp5347
g57
(g78
g59
NtRp5348
(dp5349
g62
(dp5350
g82
g83
ssg71
g5344
sg64
(lp5351
S'subtitle'
p5352
asbag57
(g78
g59
NtRp5353
(dp5354
g62
(dp5355
g89
g90
ssg71
g5344
sg64
(lp5356
S':'
asbag57
(g78
g59
NtRp5357
(dp5358
g62
(dp5359
sg71
g5344
sg64
(lp5360
g57
(g58
g59
NtRp5361
(dp5362
g62
(dp5363
g70
I5
ssg71
g5357
sg64
(lp5364
g4212
(S's\r\x00\x00\x00customize me!'
tRp5365
asbasbasbag57
(g73
g59
NtRp5366
(dp5367
g62
(dp5368
sg71
g3881
sg64
(lp5369
g57
(g78
g59
NtRp5370
(dp5371
g62
(dp5372
g82
g83
ssg71
g5366
sg64
(lp5373
S'title'
p5374
asbag57
(g78
g59
NtRp5375
(dp5376
g62
(dp5377
g89
g90
ssg71
g5366
sg64
(lp5378
S':'
asbag57
(g78
g59
NtRp5379
(dp5380
g62
(dp5381
sg71
g5366
sg64
(lp5382
g57
(g58
g59
NtRp5383
(dp5384
g62
(dp5385
g70
I5
ssg71
g5379
sg64
(lp5386
S'Qsuntastebudsv2'
p5387
asbasbasbag57
(g73
g59
NtRp5388
(dp5389
g62
(dp5390
sg71
g3881
sg64
(lp5391
g57
(g78
g59
NtRp5392
(dp5393
g62
(dp5394
g82
g83
ssg71
g5388
sg64
(lp5395
S'view'
p5396
asbag57
(g78
g59
NtRp5397
(dp5398
g62
(dp5399
g89
g90
ssg71
g5388
sg64
(lp5400
S':'
asbag57
(g78
g59
NtRp5401
(dp5402
g62
(dp5403
sg71
g5388
sg64
(lp5404
g57
(g58
g59
NtRp5405
(dp5406
g62
(dp5407
g70
I5
ssg71
g5401
sg64
(lp5408
S'default/rateRecipe.html'
p5409
asbasbasbasbasbsS'locals'
p5410
(dp5411
S'form'
p5412
S'<gluon.html.FORM object>'
p5413
sssS'traceback'
p5414
S'Traceback (most recent call last):\n  File "gluon/restricted.py", line 209, in restricted\n  File "D:\\web2py_win\\web2py\\applications\\QSunTasteBudsV2\\controllers/default.py", line 164, in <module>\n  File "gluon/globals.py", line 186, in <lambda>\n  File "gluon/tools.py", line 2809, in f\n  File "D:\\web2py_win\\web2py\\applications\\QSunTasteBudsV2\\controllers/default.py", line 97, in rateRecipe\nNameError: global name \'rating\' is not defined\n'
p5415
s.