(dp1
S'output'
p2
S"<type 'exceptions.AttributeError'> 'NoneType' object has no attribute 'title'"
p3
sS'layer'
p4
S'D:\\web2py_win\\web2py\\applications\\QSunTasteBudsV2\\views\\default/readRecipe.html'
p5
sS'code'
p6
S'response.write("<html>\\r\\n\\t<head>\\r\\n        <h2>Recipe\'s Name:  ", escape=False)\nresponse.write(recipe.title)\nresponse.write(\'</h2>\\r\\n    </head>\\r\\n\\r\\n\\t<body>\\r\\n        <h5>made by: \', escape=False)\nresponse.write(recipe.owner.first_name)\nresponse.write(\'  \', escape=False)\nresponse.write(recipe.owner.last_name)\nresponse.write(\'</h5>\\r\\n        <li>uploaded time: \', escape=False)\nresponse.write(recipe.uploadTime)\nresponse.write(\'</li>\\r\\n        <p>\', escape=False)\nresponse.write(IMG(_src = URL(\'download\', args = recipe.picture), _alt = recipe.title, _height = \'70\', _width = \'200\'))\nresponse.write(\'</p>\\r\\n        <li>current rating point:  \', escape=False)\nresponse.write(recipe.rating)\nresponse.write(\'</li>\\r\\n        <p>Description: \', escape=False)\nresponse.write(recipe.description)\nresponse.write(\' </p>\\r\\n        <div>\', escape=False)\nresponse.write(rateForm)\nresponse.write(\'</div>\\r\\n    </body>\\r\\n</html>\\r\\n\', escape=False)'
p7
sS'snapshot'
p8
(dp9
S'exception'
p10
(dp11
S'__hash__'
p12
S"<method-wrapper '__hash__' of exceptions.AttributeError object>"
p13
sS'__setattr__'
p14
S"<method-wrapper '__setattr__' of exceptions.AttributeError object>"
p15
sS'__reduce_ex__'
p16
S'<built-in method __reduce_ex__ of exceptions.AttributeError object>'
p17
sS'__getslice__'
p18
S"<method-wrapper '__getslice__' of exceptions.AttributeError object>"
p19
sS'__getitem__'
p20
S"<method-wrapper '__getitem__' of exceptions.AttributeError object>"
p21
sS'__setstate__'
p22
S'<built-in method __setstate__ of exceptions.AttributeError object>'
p23
sS'__reduce__'
p24
S'<built-in method __reduce__ of exceptions.AttributeError object>'
p25
sS'__str__'
p26
S"<method-wrapper '__str__' of exceptions.AttributeError object>"
p27
sS'__format__'
p28
S'<built-in method __format__ of exceptions.AttributeError object>'
p29
sS'__getattribute__'
p30
S"<method-wrapper '__getattribute__' of exceptions.AttributeError object>"
p31
sS'__class__'
p32
S"<type 'exceptions.AttributeError'>"
p33
sS'__unicode__'
p34
S'<built-in method __unicode__ of exceptions.AttributeError object>'
p35
sS'__delattr__'
p36
S"<method-wrapper '__delattr__' of exceptions.AttributeError object>"
p37
sS'__subclasshook__'
p38
S'<built-in method __subclasshook__ of type object>'
p39
sS'__repr__'
p40
S"<method-wrapper '__repr__' of exceptions.AttributeError object>"
p41
sS'args'
p42
S'("\'NoneType\' object has no attribute \'title\'",)'
p43
sS'__dict__'
p44
S'{}'
p45
sS'__sizeof__'
p46
S'<built-in method __sizeof__ of exceptions.AttributeError object>'
p47
sS'__doc__'
p48
S"'Attribute not found.'"
p49
sS'__init__'
p50
S"<method-wrapper '__init__' of exceptions.AttributeError object>"
p51
sS'__new__'
p52
S'<built-in method __new__ of type object>'
p53
ssS'evalue'
p54
S"'NoneType' object has no attribute 'title'"
p55
sS'request'
p56
ccopy_reg
_reconstructor
p57
(cgluon.html
BEAUTIFY
p58
c__builtin__
object
p59
NtRp60
(dp61
S'attributes'
p62
(dp63
sS'components'
p64
(lp65
g57
(cgluon.html
TABLE
p66
g59
NtRp67
(dp68
g62
(dp69
S'level'
p70
I5
ssS'parent'
p71
Nsg64
(lp72
g57
(cgluon.html
TR
p73
g59
NtRp74
(dp75
g62
(dp76
sg71
g67
sg64
(lp77
g57
(cgluon.html
TD
p78
g59
NtRp79
(dp80
g62
(dp81
S'_style'
p82
S'font-weight:bold;vertical-align:top'
p83
ssg71
g74
sg64
(lp84
S'ajax'
p85
asbag57
(g78
g59
NtRp86
(dp87
g62
(dp88
S'_valign'
p89
S'top'
p90
ssg71
g74
sg64
(lp91
S':'
asbag57
(g78
g59
NtRp92
(dp93
g62
(dp94
sg71
g74
sg64
(lp95
g57
(g58
g59
NtRp96
(dp97
g62
(dp98
g70
I5
ssg71
g92
sg64
(lp99
S'False'
p100
asbasbasbag57
(g73
g59
NtRp101
(dp102
g62
(dp103
sg71
g67
sg64
(lp104
g57
(g78
g59
NtRp105
(dp106
g62
(dp107
g82
g83
ssg71
g101
sg64
(lp108
S'application'
p109
asbag57
(g78
g59
NtRp110
(dp111
g62
(dp112
g89
g90
ssg71
g101
sg64
(lp113
S':'
asbag57
(g78
g59
NtRp114
(dp115
g62
(dp116
sg71
g101
sg64
(lp117
g57
(g58
g59
NtRp118
(dp119
g62
(dp120
g70
I5
ssg71
g114
sg64
(lp121
S'QSunTasteBudsV2'
p122
asbasbasbag57
(g73
g59
NtRp123
(dp124
g62
(dp125
sg71
g67
sg64
(lp126
g57
(g78
g59
NtRp127
(dp128
g62
(dp129
g82
g83
ssg71
g123
sg64
(lp130
g42
asbag57
(g78
g59
NtRp131
(dp132
g62
(dp133
g89
g90
ssg71
g123
sg64
(lp134
S':'
asbag57
(g78
g59
NtRp135
(dp136
g62
(dp137
sg71
g123
sg64
(lp138
g57
(g58
g59
NtRp139
(dp140
g62
(dp141
g70
I5
ssg71
g135
sg64
(lp142
g57
(g66
g59
NtRp143
(dp144
g62
(dp145
g70
I4
ssg71
Nsg64
(lp146
g57
(g73
g59
NtRp147
(dp148
g62
(dp149
sg71
g143
sg64
(lp150
g57
(g78
g59
NtRp151
(dp152
g62
(dp153
sg71
g147
sg64
(lp154
g57
(g58
g59
NtRp155
(dp156
g62
(dp157
g70
I4
ssg71
g151
sg64
(lp158
S'None'
p159
asbasbasbasbasbasbasbag57
(g73
g59
NtRp160
(dp161
g62
(dp162
sg71
g67
sg64
(lp163
g57
(g78
g59
NtRp164
(dp165
g62
(dp166
g82
g83
ssg71
g160
sg64
(lp167
S'body'
p168
asbag57
(g78
g59
NtRp169
(dp170
g62
(dp171
g89
g90
ssg71
g160
sg64
(lp172
S':'
asbag57
(g78
g59
NtRp173
(dp174
g62
(dp175
sg71
g160
sg64
(lp176
g57
(g58
g59
NtRp177
(dp178
g62
(dp179
g70
I5
ssg71
g173
sg64
(lp180
S'<cStringIO.StringO object at 0x03D6F7A0>'
p181
asbasbasbag57
(g73
g59
NtRp182
(dp183
g62
(dp184
sg71
g67
sg64
(lp185
g57
(g78
g59
NtRp186
(dp187
g62
(dp188
g82
g83
ssg71
g182
sg64
(lp189
S'cid'
p190
asbag57
(g78
g59
NtRp191
(dp192
g62
(dp193
g89
g90
ssg71
g182
sg64
(lp194
S':'
asbag57
(g78
g59
NtRp195
(dp196
g62
(dp197
sg71
g182
sg64
(lp198
g57
(g58
g59
NtRp199
(dp200
g62
(dp201
g70
I5
ssg71
g195
sg64
(lp202
S'None'
p203
asbasbasbag57
(g73
g59
NtRp204
(dp205
g62
(dp206
sg71
g67
sg64
(lp207
g57
(g78
g59
NtRp208
(dp209
g62
(dp210
g82
g83
ssg71
g204
sg64
(lp211
S'client'
p212
asbag57
(g78
g59
NtRp213
(dp214
g62
(dp215
g89
g90
ssg71
g204
sg64
(lp216
S':'
asbag57
(g78
g59
NtRp217
(dp218
g62
(dp219
sg71
g204
sg64
(lp220
g57
(g58
g59
NtRp221
(dp222
g62
(dp223
g70
I5
ssg71
g217
sg64
(lp224
S'127.0.0.1'
p225
asbasbasbag57
(g73
g59
NtRp226
(dp227
g62
(dp228
sg71
g67
sg64
(lp229
g57
(g78
g59
NtRp230
(dp231
g62
(dp232
g82
g83
ssg71
g226
sg64
(lp233
S'controller'
p234
asbag57
(g78
g59
NtRp235
(dp236
g62
(dp237
g89
g90
ssg71
g226
sg64
(lp238
S':'
asbag57
(g78
g59
NtRp239
(dp240
g62
(dp241
sg71
g226
sg64
(lp242
g57
(g58
g59
NtRp243
(dp244
g62
(dp245
g70
I5
ssg71
g239
sg64
(lp246
S'default'
p247
asbasbasbag57
(g73
g59
NtRp248
(dp249
g62
(dp250
sg71
g67
sg64
(lp251
g57
(g78
g59
NtRp252
(dp253
g62
(dp254
g82
g83
ssg71
g248
sg64
(lp255
S'cookies'
p256
asbag57
(g78
g59
NtRp257
(dp258
g62
(dp259
g89
g90
ssg71
g248
sg64
(lp260
S':'
asbag57
(g78
g59
NtRp261
(dp262
g62
(dp263
sg71
g248
sg64
(lp264
g57
(g58
g59
NtRp265
(dp266
g62
(dp267
g70
I5
ssg71
g261
sg64
(lp268
g57
(g66
g59
NtRp269
(dp270
g62
(dp271
g70
I4
ssg71
Nsg64
(lp272
g57
(g73
g59
NtRp273
(dp274
g62
(dp275
sg71
g269
sg64
(lp276
g57
(g78
g59
NtRp277
(dp278
g62
(dp279
g82
g83
ssg71
g273
sg64
(lp280
S'session_id_admin'
p281
asbag57
(g78
g59
NtRp282
(dp283
g62
(dp284
g89
g90
ssg71
g273
sg64
(lp285
S':'
asbag57
(g78
g59
NtRp286
(dp287
g62
(dp288
sg71
g273
sg64
(lp289
g57
(g58
g59
NtRp290
(dp291
g62
(dp292
g70
I4
ssg71
g286
sg64
(lp293
S'127.0.0.1-304ee069-1576-4fbf-bd8b-3f7ad31c7229'
p294
ag57
(g66
g59
NtRp295
(dp296
g62
(dp297
g70
I3
ssg71
Nsg64
(lp298
g57
(g73
g59
NtRp299
(dp300
g62
(dp301
sg71
g295
sg64
(lp302
g57
(g78
g59
NtRp303
(dp304
g62
(dp305
g82
g83
ssg71
g299
sg64
(lp306
S'comment'
p307
asbag57
(g78
g59
NtRp308
(dp309
g62
(dp310
g89
g90
ssg71
g299
sg64
(lp311
S':'
asbag57
(g78
g59
NtRp312
(dp313
g62
(dp314
sg71
g299
sg64
(lp315
g57
(g58
g59
NtRp316
(dp317
g62
(dp318
g70
I3
ssg71
g312
sg64
(lp319
S''
asbasbasbag57
(g73
g59
NtRp320
(dp321
g62
(dp322
sg71
g295
sg64
(lp323
g57
(g78
g59
NtRp324
(dp325
g62
(dp326
g82
g83
ssg71
g320
sg64
(lp327
S'domain'
p328
asbag57
(g78
g59
NtRp329
(dp330
g62
(dp331
g89
g90
ssg71
g320
sg64
(lp332
S':'
asbag57
(g78
g59
NtRp333
(dp334
g62
(dp335
sg71
g320
sg64
(lp336
g57
(g58
g59
NtRp337
(dp338
g62
(dp339
g70
I3
ssg71
g333
sg64
(lp340
S''
asbasbasbag57
(g73
g59
NtRp341
(dp342
g62
(dp343
sg71
g295
sg64
(lp344
g57
(g78
g59
NtRp345
(dp346
g62
(dp347
g82
g83
ssg71
g341
sg64
(lp348
S'expires'
p349
asbag57
(g78
g59
NtRp350
(dp351
g62
(dp352
g89
g90
ssg71
g341
sg64
(lp353
S':'
asbag57
(g78
g59
NtRp354
(dp355
g62
(dp356
sg71
g341
sg64
(lp357
g57
(g58
g59
NtRp358
(dp359
g62
(dp360
g70
I3
ssg71
g354
sg64
(lp361
S''
asbasbasbag57
(g73
g59
NtRp362
(dp363
g62
(dp364
sg71
g295
sg64
(lp365
g57
(g78
g59
NtRp366
(dp367
g62
(dp368
g82
g83
ssg71
g362
sg64
(lp369
S'httponly'
p370
asbag57
(g78
g59
NtRp371
(dp372
g62
(dp373
g89
g90
ssg71
g362
sg64
(lp374
S':'
asbag57
(g78
g59
NtRp375
(dp376
g62
(dp377
sg71
g362
sg64
(lp378
g57
(g58
g59
NtRp379
(dp380
g62
(dp381
g70
I3
ssg71
g375
sg64
(lp382
S''
asbasbasbag57
(g73
g59
NtRp383
(dp384
g62
(dp385
sg71
g295
sg64
(lp386
g57
(g78
g59
NtRp387
(dp388
g62
(dp389
g82
g83
ssg71
g383
sg64
(lp390
S'max-age'
p391
asbag57
(g78
g59
NtRp392
(dp393
g62
(dp394
g89
g90
ssg71
g383
sg64
(lp395
S':'
asbag57
(g78
g59
NtRp396
(dp397
g62
(dp398
sg71
g383
sg64
(lp399
g57
(g58
g59
NtRp400
(dp401
g62
(dp402
g70
I3
ssg71
g396
sg64
(lp403
S''
asbasbasbag57
(g73
g59
NtRp404
(dp405
g62
(dp406
sg71
g295
sg64
(lp407
g57
(g78
g59
NtRp408
(dp409
g62
(dp410
g82
g83
ssg71
g404
sg64
(lp411
S'path'
p412
asbag57
(g78
g59
NtRp413
(dp414
g62
(dp415
g89
g90
ssg71
g404
sg64
(lp416
S':'
asbag57
(g78
g59
NtRp417
(dp418
g62
(dp419
sg71
g404
sg64
(lp420
g57
(g58
g59
NtRp421
(dp422
g62
(dp423
g70
I3
ssg71
g417
sg64
(lp424
S''
asbasbasbag57
(g73
g59
NtRp425
(dp426
g62
(dp427
sg71
g295
sg64
(lp428
g57
(g78
g59
NtRp429
(dp430
g62
(dp431
g82
g83
ssg71
g425
sg64
(lp432
S'secure'
p433
asbag57
(g78
g59
NtRp434
(dp435
g62
(dp436
g89
g90
ssg71
g425
sg64
(lp437
S':'
asbag57
(g78
g59
NtRp438
(dp439
g62
(dp440
sg71
g425
sg64
(lp441
g57
(g58
g59
NtRp442
(dp443
g62
(dp444
g70
I3
ssg71
g438
sg64
(lp445
S''
asbasbasbag57
(g73
g59
NtRp446
(dp447
g62
(dp448
sg71
g295
sg64
(lp449
g57
(g78
g59
NtRp450
(dp451
g62
(dp452
g82
g83
ssg71
g446
sg64
(lp453
S'version'
p454
asbag57
(g78
g59
NtRp455
(dp456
g62
(dp457
g89
g90
ssg71
g446
sg64
(lp458
S':'
asbag57
(g78
g59
NtRp459
(dp460
g62
(dp461
sg71
g446
sg64
(lp462
g57
(g58
g59
NtRp463
(dp464
g62
(dp465
g70
I3
ssg71
g459
sg64
(lp466
S''
asbasbasbasbasbasbasbag57
(g73
g59
NtRp467
(dp468
g62
(dp469
sg71
g269
sg64
(lp470
g57
(g78
g59
NtRp471
(dp472
g62
(dp473
g82
g83
ssg71
g467
sg64
(lp474
S'session_id_qsuntastebudsv2'
p475
asbag57
(g78
g59
NtRp476
(dp477
g62
(dp478
g89
g90
ssg71
g467
sg64
(lp479
S':'
asbag57
(g78
g59
NtRp480
(dp481
g62
(dp482
sg71
g467
sg64
(lp483
g57
(g58
g59
NtRp484
(dp485
g62
(dp486
g70
I4
ssg71
g480
sg64
(lp487
S'127.0.0.1-03c509ec-2cef-426f-a88b-6eb0c079c2a6'
p488
ag57
(g66
g59
NtRp489
(dp490
g62
(dp491
g70
I3
ssg71
Nsg64
(lp492
g57
(g73
g59
NtRp493
(dp494
g62
(dp495
sg71
g489
sg64
(lp496
g57
(g78
g59
NtRp497
(dp498
g62
(dp499
g82
g83
ssg71
g493
sg64
(lp500
g307
asbag57
(g78
g59
NtRp501
(dp502
g62
(dp503
g89
g90
ssg71
g493
sg64
(lp504
S':'
asbag57
(g78
g59
NtRp505
(dp506
g62
(dp507
sg71
g493
sg64
(lp508
g57
(g58
g59
NtRp509
(dp510
g62
(dp511
g70
I3
ssg71
g505
sg64
(lp512
S''
asbasbasbag57
(g73
g59
NtRp513
(dp514
g62
(dp515
sg71
g489
sg64
(lp516
g57
(g78
g59
NtRp517
(dp518
g62
(dp519
g82
g83
ssg71
g513
sg64
(lp520
g328
asbag57
(g78
g59
NtRp521
(dp522
g62
(dp523
g89
g90
ssg71
g513
sg64
(lp524
S':'
asbag57
(g78
g59
NtRp525
(dp526
g62
(dp527
sg71
g513
sg64
(lp528
g57
(g58
g59
NtRp529
(dp530
g62
(dp531
g70
I3
ssg71
g525
sg64
(lp532
S''
asbasbasbag57
(g73
g59
NtRp533
(dp534
g62
(dp535
sg71
g489
sg64
(lp536
g57
(g78
g59
NtRp537
(dp538
g62
(dp539
g82
g83
ssg71
g533
sg64
(lp540
g349
asbag57
(g78
g59
NtRp541
(dp542
g62
(dp543
g89
g90
ssg71
g533
sg64
(lp544
S':'
asbag57
(g78
g59
NtRp545
(dp546
g62
(dp547
sg71
g533
sg64
(lp548
g57
(g58
g59
NtRp549
(dp550
g62
(dp551
g70
I3
ssg71
g545
sg64
(lp552
S''
asbasbasbag57
(g73
g59
NtRp553
(dp554
g62
(dp555
sg71
g489
sg64
(lp556
g57
(g78
g59
NtRp557
(dp558
g62
(dp559
g82
g83
ssg71
g553
sg64
(lp560
g370
asbag57
(g78
g59
NtRp561
(dp562
g62
(dp563
g89
g90
ssg71
g553
sg64
(lp564
S':'
asbag57
(g78
g59
NtRp565
(dp566
g62
(dp567
sg71
g553
sg64
(lp568
g57
(g58
g59
NtRp569
(dp570
g62
(dp571
g70
I3
ssg71
g565
sg64
(lp572
S''
asbasbasbag57
(g73
g59
NtRp573
(dp574
g62
(dp575
sg71
g489
sg64
(lp576
g57
(g78
g59
NtRp577
(dp578
g62
(dp579
g82
g83
ssg71
g573
sg64
(lp580
g391
asbag57
(g78
g59
NtRp581
(dp582
g62
(dp583
g89
g90
ssg71
g573
sg64
(lp584
S':'
asbag57
(g78
g59
NtRp585
(dp586
g62
(dp587
sg71
g573
sg64
(lp588
g57
(g58
g59
NtRp589
(dp590
g62
(dp591
g70
I3
ssg71
g585
sg64
(lp592
S''
asbasbasbag57
(g73
g59
NtRp593
(dp594
g62
(dp595
sg71
g489
sg64
(lp596
g57
(g78
g59
NtRp597
(dp598
g62
(dp599
g82
g83
ssg71
g593
sg64
(lp600
g412
asbag57
(g78
g59
NtRp601
(dp602
g62
(dp603
g89
g90
ssg71
g593
sg64
(lp604
S':'
asbag57
(g78
g59
NtRp605
(dp606
g62
(dp607
sg71
g593
sg64
(lp608
g57
(g58
g59
NtRp609
(dp610
g62
(dp611
g70
I3
ssg71
g605
sg64
(lp612
S''
asbasbasbag57
(g73
g59
NtRp613
(dp614
g62
(dp615
sg71
g489
sg64
(lp616
g57
(g78
g59
NtRp617
(dp618
g62
(dp619
g82
g83
ssg71
g613
sg64
(lp620
g433
asbag57
(g78
g59
NtRp621
(dp622
g62
(dp623
g89
g90
ssg71
g613
sg64
(lp624
S':'
asbag57
(g78
g59
NtRp625
(dp626
g62
(dp627
sg71
g613
sg64
(lp628
g57
(g58
g59
NtRp629
(dp630
g62
(dp631
g70
I3
ssg71
g625
sg64
(lp632
S''
asbasbasbag57
(g73
g59
NtRp633
(dp634
g62
(dp635
sg71
g489
sg64
(lp636
g57
(g78
g59
NtRp637
(dp638
g62
(dp639
g82
g83
ssg71
g633
sg64
(lp640
g454
asbag57
(g78
g59
NtRp641
(dp642
g62
(dp643
g89
g90
ssg71
g633
sg64
(lp644
S':'
asbag57
(g78
g59
NtRp645
(dp646
g62
(dp647
sg71
g633
sg64
(lp648
g57
(g58
g59
NtRp649
(dp650
g62
(dp651
g70
I3
ssg71
g645
sg64
(lp652
S''
asbasbasbasbasbasbasbag57
(g73
g59
NtRp653
(dp654
g62
(dp655
sg71
g269
sg64
(lp656
g57
(g78
g59
NtRp657
(dp658
g62
(dp659
g82
g83
ssg71
g653
sg64
(lp660
S'session_id_welcome'
p661
asbag57
(g78
g59
NtRp662
(dp663
g62
(dp664
g89
g90
ssg71
g653
sg64
(lp665
S':'
asbag57
(g78
g59
NtRp666
(dp667
g62
(dp668
sg71
g653
sg64
(lp669
g57
(g58
g59
NtRp670
(dp671
g62
(dp672
g70
I4
ssg71
g666
sg64
(lp673
S'127.0.0.1-85cf6716-f458-4c20-b470-30e58294b230'
p674
ag57
(g66
g59
NtRp675
(dp676
g62
(dp677
g70
I3
ssg71
Nsg64
(lp678
g57
(g73
g59
NtRp679
(dp680
g62
(dp681
sg71
g675
sg64
(lp682
g57
(g78
g59
NtRp683
(dp684
g62
(dp685
g82
g83
ssg71
g679
sg64
(lp686
g307
asbag57
(g78
g59
NtRp687
(dp688
g62
(dp689
g89
g90
ssg71
g679
sg64
(lp690
S':'
asbag57
(g78
g59
NtRp691
(dp692
g62
(dp693
sg71
g679
sg64
(lp694
g57
(g58
g59
NtRp695
(dp696
g62
(dp697
g70
I3
ssg71
g691
sg64
(lp698
S''
asbasbasbag57
(g73
g59
NtRp699
(dp700
g62
(dp701
sg71
g675
sg64
(lp702
g57
(g78
g59
NtRp703
(dp704
g62
(dp705
g82
g83
ssg71
g699
sg64
(lp706
g328
asbag57
(g78
g59
NtRp707
(dp708
g62
(dp709
g89
g90
ssg71
g699
sg64
(lp710
S':'
asbag57
(g78
g59
NtRp711
(dp712
g62
(dp713
sg71
g699
sg64
(lp714
g57
(g58
g59
NtRp715
(dp716
g62
(dp717
g70
I3
ssg71
g711
sg64
(lp718
S''
asbasbasbag57
(g73
g59
NtRp719
(dp720
g62
(dp721
sg71
g675
sg64
(lp722
g57
(g78
g59
NtRp723
(dp724
g62
(dp725
g82
g83
ssg71
g719
sg64
(lp726
g349
asbag57
(g78
g59
NtRp727
(dp728
g62
(dp729
g89
g90
ssg71
g719
sg64
(lp730
S':'
asbag57
(g78
g59
NtRp731
(dp732
g62
(dp733
sg71
g719
sg64
(lp734
g57
(g58
g59
NtRp735
(dp736
g62
(dp737
g70
I3
ssg71
g731
sg64
(lp738
S''
asbasbasbag57
(g73
g59
NtRp739
(dp740
g62
(dp741
sg71
g675
sg64
(lp742
g57
(g78
g59
NtRp743
(dp744
g62
(dp745
g82
g83
ssg71
g739
sg64
(lp746
g370
asbag57
(g78
g59
NtRp747
(dp748
g62
(dp749
g89
g90
ssg71
g739
sg64
(lp750
S':'
asbag57
(g78
g59
NtRp751
(dp752
g62
(dp753
sg71
g739
sg64
(lp754
g57
(g58
g59
NtRp755
(dp756
g62
(dp757
g70
I3
ssg71
g751
sg64
(lp758
S''
asbasbasbag57
(g73
g59
NtRp759
(dp760
g62
(dp761
sg71
g675
sg64
(lp762
g57
(g78
g59
NtRp763
(dp764
g62
(dp765
g82
g83
ssg71
g759
sg64
(lp766
g391
asbag57
(g78
g59
NtRp767
(dp768
g62
(dp769
g89
g90
ssg71
g759
sg64
(lp770
S':'
asbag57
(g78
g59
NtRp771
(dp772
g62
(dp773
sg71
g759
sg64
(lp774
g57
(g58
g59
NtRp775
(dp776
g62
(dp777
g70
I3
ssg71
g771
sg64
(lp778
S''
asbasbasbag57
(g73
g59
NtRp779
(dp780
g62
(dp781
sg71
g675
sg64
(lp782
g57
(g78
g59
NtRp783
(dp784
g62
(dp785
g82
g83
ssg71
g779
sg64
(lp786
g412
asbag57
(g78
g59
NtRp787
(dp788
g62
(dp789
g89
g90
ssg71
g779
sg64
(lp790
S':'
asbag57
(g78
g59
NtRp791
(dp792
g62
(dp793
sg71
g779
sg64
(lp794
g57
(g58
g59
NtRp795
(dp796
g62
(dp797
g70
I3
ssg71
g791
sg64
(lp798
S''
asbasbasbag57
(g73
g59
NtRp799
(dp800
g62
(dp801
sg71
g675
sg64
(lp802
g57
(g78
g59
NtRp803
(dp804
g62
(dp805
g82
g83
ssg71
g799
sg64
(lp806
g433
asbag57
(g78
g59
NtRp807
(dp808
g62
(dp809
g89
g90
ssg71
g799
sg64
(lp810
S':'
asbag57
(g78
g59
NtRp811
(dp812
g62
(dp813
sg71
g799
sg64
(lp814
g57
(g58
g59
NtRp815
(dp816
g62
(dp817
g70
I3
ssg71
g811
sg64
(lp818
S''
asbasbasbag57
(g73
g59
NtRp819
(dp820
g62
(dp821
sg71
g675
sg64
(lp822
g57
(g78
g59
NtRp823
(dp824
g62
(dp825
g82
g83
ssg71
g819
sg64
(lp826
g454
asbag57
(g78
g59
NtRp827
(dp828
g62
(dp829
g89
g90
ssg71
g819
sg64
(lp830
S':'
asbag57
(g78
g59
NtRp831
(dp832
g62
(dp833
sg71
g819
sg64
(lp834
g57
(g58
g59
NtRp835
(dp836
g62
(dp837
g70
I3
ssg71
g831
sg64
(lp838
S''
asbasbasbasbasbasbasbasbasbasbasbag57
(g73
g59
NtRp839
(dp840
g62
(dp841
sg71
g67
sg64
(lp842
g57
(g78
g59
NtRp843
(dp844
g62
(dp845
g82
g83
ssg71
g839
sg64
(lp846
S'env'
p847
asbag57
(g78
g59
NtRp848
(dp849
g62
(dp850
g89
g90
ssg71
g839
sg64
(lp851
S':'
asbag57
(g78
g59
NtRp852
(dp853
g62
(dp854
sg71
g839
sg64
(lp855
g57
(g58
g59
NtRp856
(dp857
g62
(dp858
g70
I5
ssg71
g852
sg64
(lp859
g57
(g66
g59
NtRp860
(dp861
g62
(dp862
g70
I4
ssg71
Nsg64
(lp863
g57
(g73
g59
NtRp864
(dp865
g62
(dp866
sg71
g860
sg64
(lp867
g57
(g78
g59
NtRp868
(dp869
g62
(dp870
g82
g83
ssg71
g864
sg64
(lp871
S'app_folders'
p872
asbag57
(g78
g59
NtRp873
(dp874
g62
(dp875
g89
g90
ssg71
g864
sg64
(lp876
S':'
asbag57
(g78
g59
NtRp877
(dp878
g62
(dp879
sg71
g864
sg64
(lp880
g57
(g58
g59
NtRp881
(dp882
g62
(dp883
g70
I4
ssg71
g877
sg64
(lp884
S"set(['D:\\\\web2py_win\\\\web2py\\\\applications\\\\welcome\\\\', 'D:\\\\web2py_win\\\\web2py\\\\applications\\\\admin\\\\', 'D:\\\\web2py_win\\\\web2py\\\\applications\\\\QSunTasteBudsV2\\\\'])"
p885
asbasbasbag57
(g73
g59
NtRp886
(dp887
g62
(dp888
sg71
g860
sg64
(lp889
g57
(g78
g59
NtRp890
(dp891
g62
(dp892
g82
g83
ssg71
g886
sg64
(lp893
S'applications_parent'
p894
asbag57
(g78
g59
NtRp895
(dp896
g62
(dp897
g89
g90
ssg71
g886
sg64
(lp898
S':'
asbag57
(g78
g59
NtRp899
(dp900
g62
(dp901
sg71
g886
sg64
(lp902
g57
(g58
g59
NtRp903
(dp904
g62
(dp905
g70
I4
ssg71
g899
sg64
(lp906
S'D:\\web2py_win\\web2py'
p907
asbasbasbag57
(g73
g59
NtRp908
(dp909
g62
(dp910
sg71
g860
sg64
(lp911
g57
(g78
g59
NtRp912
(dp913
g62
(dp914
g82
g83
ssg71
g908
sg64
(lp915
S'cmd_args'
p916
asbag57
(g78
g59
NtRp917
(dp918
g62
(dp919
g89
g90
ssg71
g908
sg64
(lp920
S':'
asbag57
(g78
g59
NtRp921
(dp922
g62
(dp923
sg71
g908
sg64
(lp924
g57
(g58
g59
NtRp925
(dp926
g62
(dp927
g70
I4
ssg71
g921
sg64
(lp928
g57
(g66
g59
NtRp929
(dp930
g62
(dp931
g70
I3
ssg71
Nsg64
(lp932
sbasbasbasbag57
(g73
g59
NtRp933
(dp934
g62
(dp935
sg71
g860
sg64
(lp936
g57
(g78
g59
NtRp937
(dp938
g62
(dp939
g82
g83
ssg71
g933
sg64
(lp940
S'cmd_options'
p941
asbag57
(g78
g59
NtRp942
(dp943
g62
(dp944
g89
g90
ssg71
g933
sg64
(lp945
S':'
asbag57
(g78
g59
NtRp946
(dp947
g62
(dp948
sg71
g933
sg64
(lp949
g57
(g58
g59
NtRp950
(dp951
g62
(dp952
g70
I4
ssg71
g946
sg64
(lp953
S"<Values at 0x17494b8: {'verbose': False, 'ip': '127.0.0.1', 'with_scheduler': False, 'ips': [], 'shutdown_timeout': 5, 'taskbar': False, 'port': 8000, 'maxthreads': None, 'softcron': False, 'server_name': 'MICROSOF-F36848', 'bpython': False, 'nogui': False, 'nocron': False, 'extcron': False, 'run_system_tests': False, 'test': None, 'folder': 'D:\\\\web2py_win\\\\web2py', 'config': '', 'import_models': False, 'winservice': '', 'shell': None, 'run': '', 'log_filename': 'httpserver.log', 'debuglevel': 30, 'args': [''], 'socket_timeout': 5, 'ssl_ca_certificate': None, 'scheduler': None, 'profiler_filename': None, 'ssl_private_key': '', 'scheduler_groups': None, 'password': '<ask>', 'request_queue_size': 5, 'ssl_certificate': '', 'cronjob': False, 'numthreads': None, 'quiet': False, 'interfaces': None, 'minthreads': None, 'timeout': 10, 'plain': False, 'nobanner': False, 'pid_filename': 'httpserver.pid'}>"
p954
asbasbasbag57
(g73
g59
NtRp955
(dp956
g62
(dp957
sg71
g860
sg64
(lp958
g57
(g78
g59
NtRp959
(dp960
g62
(dp961
g82
g83
ssg71
g955
sg64
(lp962
S'db_sessions'
p963
asbag57
(g78
g59
NtRp964
(dp965
g62
(dp966
g89
g90
ssg71
g955
sg64
(lp967
S':'
asbag57
(g78
g59
NtRp968
(dp969
g62
(dp970
sg71
g955
sg64
(lp971
g57
(g58
g59
NtRp972
(dp973
g62
(dp974
g70
I4
ssg71
g968
sg64
(lp975
S'set([])'
p976
asbasbasbag57
(g73
g59
NtRp977
(dp978
g62
(dp979
sg71
g860
sg64
(lp980
g57
(g78
g59
NtRp981
(dp982
g62
(dp983
g82
g83
ssg71
g977
sg64
(lp984
S'debugging'
p985
asbag57
(g78
g59
NtRp986
(dp987
g62
(dp988
g89
g90
ssg71
g977
sg64
(lp989
S':'
asbag57
(g78
g59
NtRp990
(dp991
g62
(dp992
sg71
g977
sg64
(lp993
g57
(g58
g59
NtRp994
(dp995
g62
(dp996
g70
I4
ssg71
g990
sg64
(lp997
g100
asbasbasbag57
(g73
g59
NtRp998
(dp999
g62
(dp1000
sg71
g860
sg64
(lp1001
g57
(g78
g59
NtRp1002
(dp1003
g62
(dp1004
g82
g83
ssg71
g998
sg64
(lp1005
S'gluon_parent'
p1006
asbag57
(g78
g59
NtRp1007
(dp1008
g62
(dp1009
g89
g90
ssg71
g998
sg64
(lp1010
S':'
asbag57
(g78
g59
NtRp1011
(dp1012
g62
(dp1013
sg71
g998
sg64
(lp1014
g57
(g58
g59
NtRp1015
(dp1016
g62
(dp1017
g70
I4
ssg71
g1011
sg64
(lp1018
S'D:\\web2py_win\\web2py'
p1019
asbasbasbag57
(g73
g59
NtRp1020
(dp1021
g62
(dp1022
sg71
g860
sg64
(lp1023
g57
(g78
g59
NtRp1024
(dp1025
g62
(dp1026
g82
g83
ssg71
g1020
sg64
(lp1027
S'http_accept'
p1028
asbag57
(g78
g59
NtRp1029
(dp1030
g62
(dp1031
g89
g90
ssg71
g1020
sg64
(lp1032
S':'
asbag57
(g78
g59
NtRp1033
(dp1034
g62
(dp1035
sg71
g1020
sg64
(lp1036
g57
(g58
g59
NtRp1037
(dp1038
g62
(dp1039
g70
I4
ssg71
g1033
sg64
(lp1040
S'image/gif, image/jpeg, image/pjpeg, image/pjpeg, application/x-shockwave-flash, application/xaml+xml, application/x-ms-xbap, application/x-ms-application, application/vnd.ms-excel, application/vnd.ms-powerpoint, application/msword, application/QVOD, application/QVOD, */*'
p1041
asbasbasbag57
(g73
g59
NtRp1042
(dp1043
g62
(dp1044
sg71
g860
sg64
(lp1045
g57
(g78
g59
NtRp1046
(dp1047
g62
(dp1048
g82
g83
ssg71
g1042
sg64
(lp1049
S'http_accept_encoding'
p1050
asbag57
(g78
g59
NtRp1051
(dp1052
g62
(dp1053
g89
g90
ssg71
g1042
sg64
(lp1054
S':'
asbag57
(g78
g59
NtRp1055
(dp1056
g62
(dp1057
sg71
g1042
sg64
(lp1058
g57
(g58
g59
NtRp1059
(dp1060
g62
(dp1061
g70
I4
ssg71
g1055
sg64
(lp1062
S'gzip, deflate'
p1063
asbasbasbag57
(g73
g59
NtRp1064
(dp1065
g62
(dp1066
sg71
g860
sg64
(lp1067
g57
(g78
g59
NtRp1068
(dp1069
g62
(dp1070
g82
g83
ssg71
g1064
sg64
(lp1071
S'http_accept_language'
p1072
asbag57
(g78
g59
NtRp1073
(dp1074
g62
(dp1075
g89
g90
ssg71
g1064
sg64
(lp1076
S':'
asbag57
(g78
g59
NtRp1077
(dp1078
g62
(dp1079
sg71
g1064
sg64
(lp1080
g57
(g58
g59
NtRp1081
(dp1082
g62
(dp1083
g70
I4
ssg71
g1077
sg64
(lp1084
S'en-US,zh-cn;q=0.5'
p1085
asbasbasbag57
(g73
g59
NtRp1086
(dp1087
g62
(dp1088
sg71
g860
sg64
(lp1089
g57
(g78
g59
NtRp1090
(dp1091
g62
(dp1092
g82
g83
ssg71
g1086
sg64
(lp1093
S'http_cache_control'
p1094
asbag57
(g78
g59
NtRp1095
(dp1096
g62
(dp1097
g89
g90
ssg71
g1086
sg64
(lp1098
S':'
asbag57
(g78
g59
NtRp1099
(dp1100
g62
(dp1101
sg71
g1086
sg64
(lp1102
g57
(g58
g59
NtRp1103
(dp1104
g62
(dp1105
g70
I4
ssg71
g1099
sg64
(lp1106
S'no-cache'
p1107
asbasbasbag57
(g73
g59
NtRp1108
(dp1109
g62
(dp1110
sg71
g860
sg64
(lp1111
g57
(g78
g59
NtRp1112
(dp1113
g62
(dp1114
g82
g83
ssg71
g1108
sg64
(lp1115
S'http_connection'
p1116
asbag57
(g78
g59
NtRp1117
(dp1118
g62
(dp1119
g89
g90
ssg71
g1108
sg64
(lp1120
S':'
asbag57
(g78
g59
NtRp1121
(dp1122
g62
(dp1123
sg71
g1108
sg64
(lp1124
g57
(g58
g59
NtRp1125
(dp1126
g62
(dp1127
g70
I4
ssg71
g1121
sg64
(lp1128
S'Keep-Alive'
p1129
asbasbasbag57
(g73
g59
NtRp1130
(dp1131
g62
(dp1132
sg71
g860
sg64
(lp1133
g57
(g78
g59
NtRp1134
(dp1135
g62
(dp1136
g82
g83
ssg71
g1130
sg64
(lp1137
S'http_cookie'
p1138
asbag57
(g78
g59
NtRp1139
(dp1140
g62
(dp1141
g89
g90
ssg71
g1130
sg64
(lp1142
S':'
asbag57
(g78
g59
NtRp1143
(dp1144
g62
(dp1145
sg71
g1130
sg64
(lp1146
g57
(g58
g59
NtRp1147
(dp1148
g62
(dp1149
g70
I4
ssg71
g1143
sg64
(lp1150
S'session_id_welcome=127.0.0.1-85cf6716-f458-4c20-b470-30e58294b230; session_id_admin=127.0.0.1-304ee069-1576-4fbf-bd8b-3f7ad31c7229; session_id_qsuntastebudsv2=127.0.0.1-03c509ec-2cef-426f-a88b-6eb0c079c2a6'
p1151
asbasbasbag57
(g73
g59
NtRp1152
(dp1153
g62
(dp1154
sg71
g860
sg64
(lp1155
g57
(g78
g59
NtRp1156
(dp1157
g62
(dp1158
g82
g83
ssg71
g1152
sg64
(lp1159
S'http_host'
p1160
asbag57
(g78
g59
NtRp1161
(dp1162
g62
(dp1163
g89
g90
ssg71
g1152
sg64
(lp1164
S':'
asbag57
(g78
g59
NtRp1165
(dp1166
g62
(dp1167
sg71
g1152
sg64
(lp1168
g57
(g58
g59
NtRp1169
(dp1170
g62
(dp1171
g70
I4
ssg71
g1165
sg64
(lp1172
S'127.0.0.1:8000'
p1173
asbasbasbag57
(g73
g59
NtRp1174
(dp1175
g62
(dp1176
sg71
g860
sg64
(lp1177
g57
(g78
g59
NtRp1178
(dp1179
g62
(dp1180
g82
g83
ssg71
g1174
sg64
(lp1181
S'http_referer'
p1182
asbag57
(g78
g59
NtRp1183
(dp1184
g62
(dp1185
g89
g90
ssg71
g1174
sg64
(lp1186
S':'
asbag57
(g78
g59
NtRp1187
(dp1188
g62
(dp1189
sg71
g1174
sg64
(lp1190
g57
(g58
g59
NtRp1191
(dp1192
g62
(dp1193
g70
I4
ssg71
g1187
sg64
(lp1194
S'http://127.0.0.1:8000/QSunTasteBudsV2/default/rateRecipe'
p1195
asbasbasbag57
(g73
g59
NtRp1196
(dp1197
g62
(dp1198
sg71
g860
sg64
(lp1199
g57
(g78
g59
NtRp1200
(dp1201
g62
(dp1202
g82
g83
ssg71
g1196
sg64
(lp1203
S'http_user_agent'
p1204
asbag57
(g78
g59
NtRp1205
(dp1206
g62
(dp1207
g89
g90
ssg71
g1196
sg64
(lp1208
S':'
asbag57
(g78
g59
NtRp1209
(dp1210
g62
(dp1211
sg71
g1196
sg64
(lp1212
g57
(g58
g59
NtRp1213
(dp1214
g62
(dp1215
g70
I4
ssg71
g1209
sg64
(lp1216
S'Mozilla/4.0 (compatible; MSIE 8.0; Windows NT 5.1; Trident/4.0; .NET4.0C; .NET4.0E; InfoPath.2; .NET CLR 2.0.50727; .NET CLR 3.0.04506.30)'
p1217
asbasbasbag57
(g73
g59
NtRp1218
(dp1219
g62
(dp1220
sg71
g860
sg64
(lp1221
g57
(g78
g59
NtRp1222
(dp1223
g62
(dp1224
g82
g83
ssg71
g1218
sg64
(lp1225
S'is_jython'
p1226
asbag57
(g78
g59
NtRp1227
(dp1228
g62
(dp1229
g89
g90
ssg71
g1218
sg64
(lp1230
S':'
asbag57
(g78
g59
NtRp1231
(dp1232
g62
(dp1233
sg71
g1218
sg64
(lp1234
g57
(g58
g59
NtRp1235
(dp1236
g62
(dp1237
g70
I4
ssg71
g1231
sg64
(lp1238
g100
asbasbasbag57
(g73
g59
NtRp1239
(dp1240
g62
(dp1241
sg71
g860
sg64
(lp1242
g57
(g78
g59
NtRp1243
(dp1244
g62
(dp1245
g82
g83
ssg71
g1239
sg64
(lp1246
S'is_pypy'
p1247
asbag57
(g78
g59
NtRp1248
(dp1249
g62
(dp1250
g89
g90
ssg71
g1239
sg64
(lp1251
S':'
asbag57
(g78
g59
NtRp1252
(dp1253
g62
(dp1254
sg71
g1239
sg64
(lp1255
g57
(g58
g59
NtRp1256
(dp1257
g62
(dp1258
g70
I4
ssg71
g1252
sg64
(lp1259
g100
asbasbasbag57
(g73
g59
NtRp1260
(dp1261
g62
(dp1262
sg71
g860
sg64
(lp1263
g57
(g78
g59
NtRp1264
(dp1265
g62
(dp1266
g82
g83
ssg71
g1260
sg64
(lp1267
S'path_info'
p1268
asbag57
(g78
g59
NtRp1269
(dp1270
g62
(dp1271
g89
g90
ssg71
g1260
sg64
(lp1272
S':'
asbag57
(g78
g59
NtRp1273
(dp1274
g62
(dp1275
sg71
g1260
sg64
(lp1276
g57
(g58
g59
NtRp1277
(dp1278
g62
(dp1279
g70
I4
ssg71
g1273
sg64
(lp1280
S'/QSunTasteBudsV2/default/readRecipe/None'
p1281
asbasbasbag57
(g73
g59
NtRp1282
(dp1283
g62
(dp1284
sg71
g860
sg64
(lp1285
g57
(g78
g59
NtRp1286
(dp1287
g62
(dp1288
g82
g83
ssg71
g1282
sg64
(lp1289
S'query_string'
p1290
asbag57
(g78
g59
NtRp1291
(dp1292
g62
(dp1293
g89
g90
ssg71
g1282
sg64
(lp1294
S':'
asbag57
(g78
g59
NtRp1295
(dp1296
g62
(dp1297
sg71
g1282
sg64
(lp1298
g57
(g58
g59
NtRp1299
(dp1300
g62
(dp1301
g70
I4
ssg71
g1295
sg64
(lp1302
S''
asbasbasbag57
(g73
g59
NtRp1303
(dp1304
g62
(dp1305
sg71
g860
sg64
(lp1306
g57
(g78
g59
NtRp1307
(dp1308
g62
(dp1309
g82
g83
ssg71
g1303
sg64
(lp1310
S'remote_addr'
p1311
asbag57
(g78
g59
NtRp1312
(dp1313
g62
(dp1314
g89
g90
ssg71
g1303
sg64
(lp1315
S':'
asbag57
(g78
g59
NtRp1316
(dp1317
g62
(dp1318
sg71
g1303
sg64
(lp1319
g57
(g58
g59
NtRp1320
(dp1321
g62
(dp1322
g70
I4
ssg71
g1316
sg64
(lp1323
g225
asbasbasbag57
(g73
g59
NtRp1324
(dp1325
g62
(dp1326
sg71
g860
sg64
(lp1327
g57
(g78
g59
NtRp1328
(dp1329
g62
(dp1330
g82
g83
ssg71
g1324
sg64
(lp1331
S'remote_port'
p1332
asbag57
(g78
g59
NtRp1333
(dp1334
g62
(dp1335
g89
g90
ssg71
g1324
sg64
(lp1336
S':'
asbag57
(g78
g59
NtRp1337
(dp1338
g62
(dp1339
sg71
g1324
sg64
(lp1340
g57
(g58
g59
NtRp1341
(dp1342
g62
(dp1343
g70
I4
ssg71
g1337
sg64
(lp1344
S'3603'
p1345
asbasbasbag57
(g73
g59
NtRp1346
(dp1347
g62
(dp1348
sg71
g860
sg64
(lp1349
g57
(g78
g59
NtRp1350
(dp1351
g62
(dp1352
g82
g83
ssg71
g1346
sg64
(lp1353
S'request_method'
p1354
asbag57
(g78
g59
NtRp1355
(dp1356
g62
(dp1357
g89
g90
ssg71
g1346
sg64
(lp1358
S':'
asbag57
(g78
g59
NtRp1359
(dp1360
g62
(dp1361
sg71
g1346
sg64
(lp1362
g57
(g58
g59
NtRp1363
(dp1364
g62
(dp1365
g70
I4
ssg71
g1359
sg64
(lp1366
S'GET'
p1367
asbasbasbag57
(g73
g59
NtRp1368
(dp1369
g62
(dp1370
sg71
g860
sg64
(lp1371
g57
(g78
g59
NtRp1372
(dp1373
g62
(dp1374
g82
g83
ssg71
g1368
sg64
(lp1375
S'request_uri'
p1376
asbag57
(g78
g59
NtRp1377
(dp1378
g62
(dp1379
g89
g90
ssg71
g1368
sg64
(lp1380
S':'
asbag57
(g78
g59
NtRp1381
(dp1382
g62
(dp1383
sg71
g1368
sg64
(lp1384
g57
(g58
g59
NtRp1385
(dp1386
g62
(dp1387
g70
I4
ssg71
g1381
sg64
(lp1388
g1281
asbasbasbag57
(g73
g59
NtRp1389
(dp1390
g62
(dp1391
sg71
g860
sg64
(lp1392
g57
(g78
g59
NtRp1393
(dp1394
g62
(dp1395
g82
g83
ssg71
g1389
sg64
(lp1396
S'script_name'
p1397
asbag57
(g78
g59
NtRp1398
(dp1399
g62
(dp1400
g89
g90
ssg71
g1389
sg64
(lp1401
S':'
asbag57
(g78
g59
NtRp1402
(dp1403
g62
(dp1404
sg71
g1389
sg64
(lp1405
g57
(g58
g59
NtRp1406
(dp1407
g62
(dp1408
g70
I4
ssg71
g1402
sg64
(lp1409
S''
asbasbasbag57
(g73
g59
NtRp1410
(dp1411
g62
(dp1412
sg71
g860
sg64
(lp1413
g57
(g78
g59
NtRp1414
(dp1415
g62
(dp1416
g82
g83
ssg71
g1410
sg64
(lp1417
S'server_name'
p1418
asbag57
(g78
g59
NtRp1419
(dp1420
g62
(dp1421
g89
g90
ssg71
g1410
sg64
(lp1422
S':'
asbag57
(g78
g59
NtRp1423
(dp1424
g62
(dp1425
sg71
g1410
sg64
(lp1426
g57
(g58
g59
NtRp1427
(dp1428
g62
(dp1429
g70
I4
ssg71
g1423
sg64
(lp1430
S'MICROSOF-F36848'
p1431
asbasbasbag57
(g73
g59
NtRp1432
(dp1433
g62
(dp1434
sg71
g860
sg64
(lp1435
g57
(g78
g59
NtRp1436
(dp1437
g62
(dp1438
g82
g83
ssg71
g1432
sg64
(lp1439
S'server_port'
p1440
asbag57
(g78
g59
NtRp1441
(dp1442
g62
(dp1443
g89
g90
ssg71
g1432
sg64
(lp1444
S':'
asbag57
(g78
g59
NtRp1445
(dp1446
g62
(dp1447
sg71
g1432
sg64
(lp1448
g57
(g58
g59
NtRp1449
(dp1450
g62
(dp1451
g70
I4
ssg71
g1445
sg64
(lp1452
S'8000'
p1453
asbasbasbag57
(g73
g59
NtRp1454
(dp1455
g62
(dp1456
sg71
g860
sg64
(lp1457
g57
(g78
g59
NtRp1458
(dp1459
g62
(dp1460
g82
g83
ssg71
g1454
sg64
(lp1461
S'server_protocol'
p1462
asbag57
(g78
g59
NtRp1463
(dp1464
g62
(dp1465
g89
g90
ssg71
g1454
sg64
(lp1466
S':'
asbag57
(g78
g59
NtRp1467
(dp1468
g62
(dp1469
sg71
g1454
sg64
(lp1470
g57
(g58
g59
NtRp1471
(dp1472
g62
(dp1473
g70
I4
ssg71
g1467
sg64
(lp1474
S'HTTP/1.1'
p1475
asbasbasbag57
(g73
g59
NtRp1476
(dp1477
g62
(dp1478
sg71
g860
sg64
(lp1479
g57
(g78
g59
NtRp1480
(dp1481
g62
(dp1482
g82
g83
ssg71
g1476
sg64
(lp1483
S'server_software'
p1484
asbag57
(g78
g59
NtRp1485
(dp1486
g62
(dp1487
g89
g90
ssg71
g1476
sg64
(lp1488
S':'
asbag57
(g78
g59
NtRp1489
(dp1490
g62
(dp1491
sg71
g1476
sg64
(lp1492
g57
(g58
g59
NtRp1493
(dp1494
g62
(dp1495
g70
I4
ssg71
g1489
sg64
(lp1496
S'Rocket 1.2.4'
p1497
asbasbasbag57
(g73
g59
NtRp1498
(dp1499
g62
(dp1500
sg71
g860
sg64
(lp1501
g57
(g78
g59
NtRp1502
(dp1503
g62
(dp1504
g82
g83
ssg71
g1498
sg64
(lp1505
S'web2py_crontype'
p1506
asbag57
(g78
g59
NtRp1507
(dp1508
g62
(dp1509
g89
g90
ssg71
g1498
sg64
(lp1510
S':'
asbag57
(g78
g59
NtRp1511
(dp1512
g62
(dp1513
sg71
g1498
sg64
(lp1514
g57
(g58
g59
NtRp1515
(dp1516
g62
(dp1517
g70
I4
ssg71
g1511
sg64
(lp1518
S'hard'
p1519
asbasbasbag57
(g73
g59
NtRp1520
(dp1521
g62
(dp1522
sg71
g860
sg64
(lp1523
g57
(g78
g59
NtRp1524
(dp1525
g62
(dp1526
g82
g83
ssg71
g1520
sg64
(lp1527
S'web2py_path'
p1528
asbag57
(g78
g59
NtRp1529
(dp1530
g62
(dp1531
g89
g90
ssg71
g1520
sg64
(lp1532
S':'
asbag57
(g78
g59
NtRp1533
(dp1534
g62
(dp1535
sg71
g1520
sg64
(lp1536
g57
(g58
g59
NtRp1537
(dp1538
g62
(dp1539
g70
I4
ssg71
g1533
sg64
(lp1540
g907
asbasbasbag57
(g73
g59
NtRp1541
(dp1542
g62
(dp1543
sg71
g860
sg64
(lp1544
g57
(g78
g59
NtRp1545
(dp1546
g62
(dp1547
g82
g83
ssg71
g1541
sg64
(lp1548
S'web2py_version'
p1549
asbag57
(g78
g59
NtRp1550
(dp1551
g62
(dp1552
g89
g90
ssg71
g1541
sg64
(lp1553
S':'
asbag57
(g78
g59
NtRp1554
(dp1555
g62
(dp1556
sg71
g1541
sg64
(lp1557
g57
(g58
g59
NtRp1558
(dp1559
g62
(dp1560
g70
I4
ssg71
g1554
sg64
(lp1561
g57
(g66
g59
NtRp1562
(dp1563
g62
(dp1564
g70
I3
ssg71
Nsg64
(lp1565
g57
(g73
g59
NtRp1566
(dp1567
g62
(dp1568
sg71
g1562
sg64
(lp1569
g57
(g78
g59
NtRp1570
(dp1571
g62
(dp1572
sg71
g1566
sg64
(lp1573
g57
(g58
g59
NtRp1574
(dp1575
g62
(dp1576
g70
I3
ssg71
g1570
sg64
(lp1577
S'2'
asbasbasbag57
(g73
g59
NtRp1578
(dp1579
g62
(dp1580
sg71
g1562
sg64
(lp1581
g57
(g78
g59
NtRp1582
(dp1583
g62
(dp1584
sg71
g1578
sg64
(lp1585
g57
(g58
g59
NtRp1586
(dp1587
g62
(dp1588
g70
I3
ssg71
g1582
sg64
(lp1589
S'0'
asbasbasbag57
(g73
g59
NtRp1590
(dp1591
g62
(dp1592
sg71
g1562
sg64
(lp1593
g57
(g78
g59
NtRp1594
(dp1595
g62
(dp1596
sg71
g1590
sg64
(lp1597
g57
(g58
g59
NtRp1598
(dp1599
g62
(dp1600
g70
I3
ssg71
g1594
sg64
(lp1601
S'9'
asbasbasbag57
(g73
g59
NtRp1602
(dp1603
g62
(dp1604
sg71
g1562
sg64
(lp1605
g57
(g78
g59
NtRp1606
(dp1607
g62
(dp1608
sg71
g1602
sg64
(lp1609
g57
(g58
g59
NtRp1610
(dp1611
g62
(dp1612
g70
I3
ssg71
g1606
sg64
(lp1613
S'datetime.datetime(2012, 9, 13, 23, 51, 30)'
p1614
asbasbasbag57
(g73
g59
NtRp1615
(dp1616
g62
(dp1617
sg71
g1562
sg64
(lp1618
g57
(g78
g59
NtRp1619
(dp1620
g62
(dp1621
sg71
g1615
sg64
(lp1622
g57
(g58
g59
NtRp1623
(dp1624
g62
(dp1625
g70
I3
ssg71
g1619
sg64
(lp1626
S'stable'
p1627
asbasbasbasbasbasbasbag57
(g73
g59
NtRp1628
(dp1629
g62
(dp1630
sg71
g860
sg64
(lp1631
g57
(g78
g59
NtRp1632
(dp1633
g62
(dp1634
g82
g83
ssg71
g1628
sg64
(lp1635
S'wsgi_errors'
p1636
asbag57
(g78
g59
NtRp1637
(dp1638
g62
(dp1639
g89
g90
ssg71
g1628
sg64
(lp1640
S':'
asbag57
(g78
g59
NtRp1641
(dp1642
g62
(dp1643
sg71
g1628
sg64
(lp1644
g57
(g58
g59
NtRp1645
(dp1646
g62
(dp1647
g70
I4
ssg71
g1641
sg64
(lp1648
S"<open file '<stderr>', mode 'w' at 0x009350D0>"
p1649
asbasbasbag57
(g73
g59
NtRp1650
(dp1651
g62
(dp1652
sg71
g860
sg64
(lp1653
g57
(g78
g59
NtRp1654
(dp1655
g62
(dp1656
g82
g83
ssg71
g1650
sg64
(lp1657
S'wsgi_file_wrapper'
p1658
asbag57
(g78
g59
NtRp1659
(dp1660
g62
(dp1661
g89
g90
ssg71
g1650
sg64
(lp1662
S':'
asbag57
(g78
g59
NtRp1663
(dp1664
g62
(dp1665
sg71
g1650
sg64
(lp1666
g57
(g58
g59
NtRp1667
(dp1668
g62
(dp1669
g70
I4
ssg71
g1663
sg64
(lp1670
S'<class wsgiref.util.FileWrapper at 0x016DAF10>'
p1671
asbasbasbag57
(g73
g59
NtRp1672
(dp1673
g62
(dp1674
sg71
g860
sg64
(lp1675
g57
(g78
g59
NtRp1676
(dp1677
g62
(dp1678
g82
g83
ssg71
g1672
sg64
(lp1679
S'wsgi_input'
p1680
asbag57
(g78
g59
NtRp1681
(dp1682
g62
(dp1683
g89
g90
ssg71
g1672
sg64
(lp1684
S':'
asbag57
(g78
g59
NtRp1685
(dp1686
g62
(dp1687
sg71
g1672
sg64
(lp1688
g57
(g58
g59
NtRp1689
(dp1690
g62
(dp1691
g70
I4
ssg71
g1685
sg64
(lp1692
S'<socket._fileobject object at 0x04A0B4F0>'
p1693
asbasbasbag57
(g73
g59
NtRp1694
(dp1695
g62
(dp1696
sg71
g860
sg64
(lp1697
g57
(g78
g59
NtRp1698
(dp1699
g62
(dp1700
g82
g83
ssg71
g1694
sg64
(lp1701
S'wsgi_multiprocess'
p1702
asbag57
(g78
g59
NtRp1703
(dp1704
g62
(dp1705
g89
g90
ssg71
g1694
sg64
(lp1706
S':'
asbag57
(g78
g59
NtRp1707
(dp1708
g62
(dp1709
sg71
g1694
sg64
(lp1710
g57
(g58
g59
NtRp1711
(dp1712
g62
(dp1713
g70
I4
ssg71
g1707
sg64
(lp1714
g100
asbasbasbag57
(g73
g59
NtRp1715
(dp1716
g62
(dp1717
sg71
g860
sg64
(lp1718
g57
(g78
g59
NtRp1719
(dp1720
g62
(dp1721
g82
g83
ssg71
g1715
sg64
(lp1722
S'wsgi_multithread'
p1723
asbag57
(g78
g59
NtRp1724
(dp1725
g62
(dp1726
g89
g90
ssg71
g1715
sg64
(lp1727
S':'
asbag57
(g78
g59
NtRp1728
(dp1729
g62
(dp1730
sg71
g1715
sg64
(lp1731
g57
(g58
g59
NtRp1732
(dp1733
g62
(dp1734
g70
I4
ssg71
g1728
sg64
(lp1735
S'True'
p1736
asbasbasbag57
(g73
g59
NtRp1737
(dp1738
g62
(dp1739
sg71
g860
sg64
(lp1740
g57
(g78
g59
NtRp1741
(dp1742
g62
(dp1743
g82
g83
ssg71
g1737
sg64
(lp1744
S'wsgi_run_once'
p1745
asbag57
(g78
g59
NtRp1746
(dp1747
g62
(dp1748
g89
g90
ssg71
g1737
sg64
(lp1749
S':'
asbag57
(g78
g59
NtRp1750
(dp1751
g62
(dp1752
sg71
g1737
sg64
(lp1753
g57
(g58
g59
NtRp1754
(dp1755
g62
(dp1756
g70
I4
ssg71
g1750
sg64
(lp1757
g100
asbasbasbag57
(g73
g59
NtRp1758
(dp1759
g62
(dp1760
sg71
g860
sg64
(lp1761
g57
(g78
g59
NtRp1762
(dp1763
g62
(dp1764
g82
g83
ssg71
g1758
sg64
(lp1765
S'wsgi_url_scheme'
p1766
asbag57
(g78
g59
NtRp1767
(dp1768
g62
(dp1769
g89
g90
ssg71
g1758
sg64
(lp1770
S':'
asbag57
(g78
g59
NtRp1771
(dp1772
g62
(dp1773
sg71
g1758
sg64
(lp1774
g57
(g58
g59
NtRp1775
(dp1776
g62
(dp1777
g70
I4
ssg71
g1771
sg64
(lp1778
S'http'
p1779
asbasbasbag57
(g73
g59
NtRp1780
(dp1781
g62
(dp1782
sg71
g860
sg64
(lp1783
g57
(g78
g59
NtRp1784
(dp1785
g62
(dp1786
g82
g83
ssg71
g1780
sg64
(lp1787
S'wsgi_version'
p1788
asbag57
(g78
g59
NtRp1789
(dp1790
g62
(dp1791
g89
g90
ssg71
g1780
sg64
(lp1792
S':'
asbag57
(g78
g59
NtRp1793
(dp1794
g62
(dp1795
sg71
g1780
sg64
(lp1796
g57
(g58
g59
NtRp1797
(dp1798
g62
(dp1799
g70
I4
ssg71
g1793
sg64
(lp1800
g57
(g66
g59
NtRp1801
(dp1802
g62
(dp1803
g70
I3
ssg71
Nsg64
(lp1804
g57
(g73
g59
NtRp1805
(dp1806
g62
(dp1807
sg71
g1801
sg64
(lp1808
g57
(g78
g59
NtRp1809
(dp1810
g62
(dp1811
sg71
g1805
sg64
(lp1812
g57
(g58
g59
NtRp1813
(dp1814
g62
(dp1815
g70
I3
ssg71
g1809
sg64
(lp1816
S'1'
asbasbasbag57
(g73
g59
NtRp1817
(dp1818
g62
(dp1819
sg71
g1801
sg64
(lp1820
g57
(g78
g59
NtRp1821
(dp1822
g62
(dp1823
sg71
g1817
sg64
(lp1824
g57
(g58
g59
NtRp1825
(dp1826
g62
(dp1827
g70
I3
ssg71
g1821
sg64
(lp1828
S'0'
asbasbasbasbasbasbasbasbasbasbasbag57
(g73
g59
NtRp1829
(dp1830
g62
(dp1831
sg71
g67
sg64
(lp1832
g57
(g78
g59
NtRp1833
(dp1834
g62
(dp1835
g82
g83
ssg71
g1829
sg64
(lp1836
S'extension'
p1837
asbag57
(g78
g59
NtRp1838
(dp1839
g62
(dp1840
g89
g90
ssg71
g1829
sg64
(lp1841
S':'
asbag57
(g78
g59
NtRp1842
(dp1843
g62
(dp1844
sg71
g1829
sg64
(lp1845
g57
(g58
g59
NtRp1846
(dp1847
g62
(dp1848
g70
I5
ssg71
g1842
sg64
(lp1849
S'html'
p1850
asbasbasbag57
(g73
g59
NtRp1851
(dp1852
g62
(dp1853
sg71
g67
sg64
(lp1854
g57
(g78
g59
NtRp1855
(dp1856
g62
(dp1857
g82
g83
ssg71
g1851
sg64
(lp1858
S'folder'
p1859
asbag57
(g78
g59
NtRp1860
(dp1861
g62
(dp1862
g89
g90
ssg71
g1851
sg64
(lp1863
S':'
asbag57
(g78
g59
NtRp1864
(dp1865
g62
(dp1866
sg71
g1851
sg64
(lp1867
g57
(g58
g59
NtRp1868
(dp1869
g62
(dp1870
g70
I5
ssg71
g1864
sg64
(lp1871
S'D:\\web2py_win\\web2py\\applications\\QSunTasteBudsV2\\'
p1872
asbasbasbag57
(g73
g59
NtRp1873
(dp1874
g62
(dp1875
sg71
g67
sg64
(lp1876
g57
(g78
g59
NtRp1877
(dp1878
g62
(dp1879
g82
g83
ssg71
g1873
sg64
(lp1880
S'function'
p1881
asbag57
(g78
g59
NtRp1882
(dp1883
g62
(dp1884
g89
g90
ssg71
g1873
sg64
(lp1885
S':'
asbag57
(g78
g59
NtRp1886
(dp1887
g62
(dp1888
sg71
g1873
sg64
(lp1889
g57
(g58
g59
NtRp1890
(dp1891
g62
(dp1892
g70
I5
ssg71
g1886
sg64
(lp1893
S'readRecipe'
p1894
asbasbasbag57
(g73
g59
NtRp1895
(dp1896
g62
(dp1897
sg71
g67
sg64
(lp1898
g57
(g78
g59
NtRp1899
(dp1900
g62
(dp1901
g82
g83
ssg71
g1895
sg64
(lp1902
S'get_vars'
p1903
asbag57
(g78
g59
NtRp1904
(dp1905
g62
(dp1906
g89
g90
ssg71
g1895
sg64
(lp1907
S':'
asbag57
(g78
g59
NtRp1908
(dp1909
g62
(dp1910
sg71
g1895
sg64
(lp1911
g57
(g58
g59
NtRp1912
(dp1913
g62
(dp1914
g70
I5
ssg71
g1908
sg64
(lp1915
g57
(g66
g59
NtRp1916
(dp1917
g62
(dp1918
g70
I4
ssg71
Nsg64
(lp1919
sbasbasbasbag57
(g73
g59
NtRp1920
(dp1921
g62
(dp1922
sg71
g67
sg64
(lp1923
g57
(g78
g59
NtRp1924
(dp1925
g62
(dp1926
g82
g83
ssg71
g1920
sg64
(lp1927
S'global_settings'
p1928
asbag57
(g78
g59
NtRp1929
(dp1930
g62
(dp1931
g89
g90
ssg71
g1920
sg64
(lp1932
S':'
asbag57
(g78
g59
NtRp1933
(dp1934
g62
(dp1935
sg71
g1920
sg64
(lp1936
g57
(g58
g59
NtRp1937
(dp1938
g62
(dp1939
g70
I5
ssg71
g1933
sg64
(lp1940
g57
(g66
g59
NtRp1941
(dp1942
g62
(dp1943
g70
I4
ssg71
Nsg64
(lp1944
g57
(g73
g59
NtRp1945
(dp1946
g62
(dp1947
sg71
g1941
sg64
(lp1948
g57
(g78
g59
NtRp1949
(dp1950
g62
(dp1951
g82
g83
ssg71
g1945
sg64
(lp1952
g872
asbag57
(g78
g59
NtRp1953
(dp1954
g62
(dp1955
g89
g90
ssg71
g1945
sg64
(lp1956
S':'
asbag57
(g78
g59
NtRp1957
(dp1958
g62
(dp1959
sg71
g1945
sg64
(lp1960
g57
(g58
g59
NtRp1961
(dp1962
g62
(dp1963
g70
I4
ssg71
g1957
sg64
(lp1964
S"set(['D:\\\\web2py_win\\\\web2py\\\\applications\\\\welcome\\\\', 'D:\\\\web2py_win\\\\web2py\\\\applications\\\\admin\\\\', 'D:\\\\web2py_win\\\\web2py\\\\applications\\\\QSunTasteBudsV2\\\\'])"
p1965
asbasbasbag57
(g73
g59
NtRp1966
(dp1967
g62
(dp1968
sg71
g1941
sg64
(lp1969
g57
(g78
g59
NtRp1970
(dp1971
g62
(dp1972
g82
g83
ssg71
g1966
sg64
(lp1973
g894
asbag57
(g78
g59
NtRp1974
(dp1975
g62
(dp1976
g89
g90
ssg71
g1966
sg64
(lp1977
S':'
asbag57
(g78
g59
NtRp1978
(dp1979
g62
(dp1980
sg71
g1966
sg64
(lp1981
g57
(g58
g59
NtRp1982
(dp1983
g62
(dp1984
g70
I4
ssg71
g1978
sg64
(lp1985
g907
asbasbasbag57
(g73
g59
NtRp1986
(dp1987
g62
(dp1988
sg71
g1941
sg64
(lp1989
g57
(g78
g59
NtRp1990
(dp1991
g62
(dp1992
g82
g83
ssg71
g1986
sg64
(lp1993
g916
asbag57
(g78
g59
NtRp1994
(dp1995
g62
(dp1996
g89
g90
ssg71
g1986
sg64
(lp1997
S':'
asbag57
(g78
g59
NtRp1998
(dp1999
g62
(dp2000
sg71
g1986
sg64
(lp2001
g57
(g58
g59
NtRp2002
(dp2003
g62
(dp2004
g70
I4
ssg71
g1998
sg64
(lp2005
g57
(g66
g59
NtRp2006
(dp2007
g62
(dp2008
g70
I3
ssg71
Nsg64
(lp2009
sbasbasbasbag57
(g73
g59
NtRp2010
(dp2011
g62
(dp2012
sg71
g1941
sg64
(lp2013
g57
(g78
g59
NtRp2014
(dp2015
g62
(dp2016
g82
g83
ssg71
g2010
sg64
(lp2017
g941
asbag57
(g78
g59
NtRp2018
(dp2019
g62
(dp2020
g89
g90
ssg71
g2010
sg64
(lp2021
S':'
asbag57
(g78
g59
NtRp2022
(dp2023
g62
(dp2024
sg71
g2010
sg64
(lp2025
g57
(g58
g59
NtRp2026
(dp2027
g62
(dp2028
g70
I4
ssg71
g2022
sg64
(lp2029
S"<Values at 0x17494b8: {'verbose': False, 'ip': '127.0.0.1', 'with_scheduler': False, 'ips': [], 'shutdown_timeout': 5, 'taskbar': False, 'port': 8000, 'maxthreads': None, 'softcron': False, 'server_name': 'MICROSOF-F36848', 'bpython': False, 'nogui': False, 'nocron': False, 'extcron': False, 'run_system_tests': False, 'test': None, 'folder': 'D:\\\\web2py_win\\\\web2py', 'config': '', 'import_models': False, 'winservice': '', 'shell': None, 'run': '', 'log_filename': 'httpserver.log', 'debuglevel': 30, 'args': [''], 'socket_timeout': 5, 'ssl_ca_certificate': None, 'scheduler': None, 'profiler_filename': None, 'ssl_private_key': '', 'scheduler_groups': None, 'password': '<ask>', 'request_queue_size': 5, 'ssl_certificate': '', 'cronjob': False, 'numthreads': None, 'quiet': False, 'interfaces': None, 'minthreads': None, 'timeout': 10, 'plain': False, 'nobanner': False, 'pid_filename': 'httpserver.pid'}>"
p2030
asbasbasbag57
(g73
g59
NtRp2031
(dp2032
g62
(dp2033
sg71
g1941
sg64
(lp2034
g57
(g78
g59
NtRp2035
(dp2036
g62
(dp2037
g82
g83
ssg71
g2031
sg64
(lp2038
g963
asbag57
(g78
g59
NtRp2039
(dp2040
g62
(dp2041
g89
g90
ssg71
g2031
sg64
(lp2042
S':'
asbag57
(g78
g59
NtRp2043
(dp2044
g62
(dp2045
sg71
g2031
sg64
(lp2046
g57
(g58
g59
NtRp2047
(dp2048
g62
(dp2049
g70
I4
ssg71
g2043
sg64
(lp2050
S'set([])'
p2051
asbasbasbag57
(g73
g59
NtRp2052
(dp2053
g62
(dp2054
sg71
g1941
sg64
(lp2055
g57
(g78
g59
NtRp2056
(dp2057
g62
(dp2058
g82
g83
ssg71
g2052
sg64
(lp2059
g985
asbag57
(g78
g59
NtRp2060
(dp2061
g62
(dp2062
g89
g90
ssg71
g2052
sg64
(lp2063
S':'
asbag57
(g78
g59
NtRp2064
(dp2065
g62
(dp2066
sg71
g2052
sg64
(lp2067
g57
(g58
g59
NtRp2068
(dp2069
g62
(dp2070
g70
I4
ssg71
g2064
sg64
(lp2071
g100
asbasbasbag57
(g73
g59
NtRp2072
(dp2073
g62
(dp2074
sg71
g1941
sg64
(lp2075
g57
(g78
g59
NtRp2076
(dp2077
g62
(dp2078
g82
g83
ssg71
g2072
sg64
(lp2079
g1006
asbag57
(g78
g59
NtRp2080
(dp2081
g62
(dp2082
g89
g90
ssg71
g2072
sg64
(lp2083
S':'
asbag57
(g78
g59
NtRp2084
(dp2085
g62
(dp2086
sg71
g2072
sg64
(lp2087
g57
(g58
g59
NtRp2088
(dp2089
g62
(dp2090
g70
I4
ssg71
g2084
sg64
(lp2091
g1019
asbasbasbag57
(g73
g59
NtRp2092
(dp2093
g62
(dp2094
sg71
g1941
sg64
(lp2095
g57
(g78
g59
NtRp2096
(dp2097
g62
(dp2098
g82
g83
ssg71
g2092
sg64
(lp2099
g1226
asbag57
(g78
g59
NtRp2100
(dp2101
g62
(dp2102
g89
g90
ssg71
g2092
sg64
(lp2103
S':'
asbag57
(g78
g59
NtRp2104
(dp2105
g62
(dp2106
sg71
g2092
sg64
(lp2107
g57
(g58
g59
NtRp2108
(dp2109
g62
(dp2110
g70
I4
ssg71
g2104
sg64
(lp2111
g100
asbasbasbag57
(g73
g59
NtRp2112
(dp2113
g62
(dp2114
sg71
g1941
sg64
(lp2115
g57
(g78
g59
NtRp2116
(dp2117
g62
(dp2118
g82
g83
ssg71
g2112
sg64
(lp2119
g1247
asbag57
(g78
g59
NtRp2120
(dp2121
g62
(dp2122
g89
g90
ssg71
g2112
sg64
(lp2123
S':'
asbag57
(g78
g59
NtRp2124
(dp2125
g62
(dp2126
sg71
g2112
sg64
(lp2127
g57
(g58
g59
NtRp2128
(dp2129
g62
(dp2130
g70
I4
ssg71
g2124
sg64
(lp2131
g100
asbasbasbag57
(g73
g59
NtRp2132
(dp2133
g62
(dp2134
sg71
g1941
sg64
(lp2135
g57
(g78
g59
NtRp2136
(dp2137
g62
(dp2138
g82
g83
ssg71
g2132
sg64
(lp2139
g1506
asbag57
(g78
g59
NtRp2140
(dp2141
g62
(dp2142
g89
g90
ssg71
g2132
sg64
(lp2143
S':'
asbag57
(g78
g59
NtRp2144
(dp2145
g62
(dp2146
sg71
g2132
sg64
(lp2147
g57
(g58
g59
NtRp2148
(dp2149
g62
(dp2150
g70
I4
ssg71
g2144
sg64
(lp2151
g1519
asbasbasbag57
(g73
g59
NtRp2152
(dp2153
g62
(dp2154
sg71
g1941
sg64
(lp2155
g57
(g78
g59
NtRp2156
(dp2157
g62
(dp2158
g82
g83
ssg71
g2152
sg64
(lp2159
g1549
asbag57
(g78
g59
NtRp2160
(dp2161
g62
(dp2162
g89
g90
ssg71
g2152
sg64
(lp2163
S':'
asbag57
(g78
g59
NtRp2164
(dp2165
g62
(dp2166
sg71
g2152
sg64
(lp2167
g57
(g58
g59
NtRp2168
(dp2169
g62
(dp2170
g70
I4
ssg71
g2164
sg64
(lp2171
g57
(g66
g59
NtRp2172
(dp2173
g62
(dp2174
g70
I3
ssg71
Nsg64
(lp2175
g57
(g73
g59
NtRp2176
(dp2177
g62
(dp2178
sg71
g2172
sg64
(lp2179
g57
(g78
g59
NtRp2180
(dp2181
g62
(dp2182
sg71
g2176
sg64
(lp2183
g57
(g58
g59
NtRp2184
(dp2185
g62
(dp2186
g70
I3
ssg71
g2180
sg64
(lp2187
S'2'
asbasbasbag57
(g73
g59
NtRp2188
(dp2189
g62
(dp2190
sg71
g2172
sg64
(lp2191
g57
(g78
g59
NtRp2192
(dp2193
g62
(dp2194
sg71
g2188
sg64
(lp2195
g57
(g58
g59
NtRp2196
(dp2197
g62
(dp2198
g70
I3
ssg71
g2192
sg64
(lp2199
S'0'
asbasbasbag57
(g73
g59
NtRp2200
(dp2201
g62
(dp2202
sg71
g2172
sg64
(lp2203
g57
(g78
g59
NtRp2204
(dp2205
g62
(dp2206
sg71
g2200
sg64
(lp2207
g57
(g58
g59
NtRp2208
(dp2209
g62
(dp2210
g70
I3
ssg71
g2204
sg64
(lp2211
S'9'
asbasbasbag57
(g73
g59
NtRp2212
(dp2213
g62
(dp2214
sg71
g2172
sg64
(lp2215
g57
(g78
g59
NtRp2216
(dp2217
g62
(dp2218
sg71
g2212
sg64
(lp2219
g57
(g58
g59
NtRp2220
(dp2221
g62
(dp2222
g70
I3
ssg71
g2216
sg64
(lp2223
S'datetime.datetime(2012, 9, 13, 23, 51, 30)'
p2224
asbasbasbag57
(g73
g59
NtRp2225
(dp2226
g62
(dp2227
sg71
g2172
sg64
(lp2228
g57
(g78
g59
NtRp2229
(dp2230
g62
(dp2231
sg71
g2225
sg64
(lp2232
g57
(g58
g59
NtRp2233
(dp2234
g62
(dp2235
g70
I3
ssg71
g2229
sg64
(lp2236
g1627
asbasbasbasbasbasbasbasbasbasbasbag57
(g73
g59
NtRp2237
(dp2238
g62
(dp2239
sg71
g67
sg64
(lp2240
g57
(g78
g59
NtRp2241
(dp2242
g62
(dp2243
g82
g83
ssg71
g2237
sg64
(lp2244
S'is_https'
p2245
asbag57
(g78
g59
NtRp2246
(dp2247
g62
(dp2248
g89
g90
ssg71
g2237
sg64
(lp2249
S':'
asbag57
(g78
g59
NtRp2250
(dp2251
g62
(dp2252
sg71
g2237
sg64
(lp2253
g57
(g58
g59
NtRp2254
(dp2255
g62
(dp2256
g70
I5
ssg71
g2250
sg64
(lp2257
g100
asbasbasbag57
(g73
g59
NtRp2258
(dp2259
g62
(dp2260
sg71
g67
sg64
(lp2261
g57
(g78
g59
NtRp2262
(dp2263
g62
(dp2264
g82
g83
ssg71
g2258
sg64
(lp2265
S'is_local'
p2266
asbag57
(g78
g59
NtRp2267
(dp2268
g62
(dp2269
g89
g90
ssg71
g2258
sg64
(lp2270
S':'
asbag57
(g78
g59
NtRp2271
(dp2272
g62
(dp2273
sg71
g2258
sg64
(lp2274
g57
(g58
g59
NtRp2275
(dp2276
g62
(dp2277
g70
I5
ssg71
g2271
sg64
(lp2278
g1736
asbasbasbag57
(g73
g59
NtRp2279
(dp2280
g62
(dp2281
sg71
g67
sg64
(lp2282
g57
(g78
g59
NtRp2283
(dp2284
g62
(dp2285
g82
g83
ssg71
g2279
sg64
(lp2286
S'is_restful'
p2287
asbag57
(g78
g59
NtRp2288
(dp2289
g62
(dp2290
g89
g90
ssg71
g2279
sg64
(lp2291
S':'
asbag57
(g78
g59
NtRp2292
(dp2293
g62
(dp2294
sg71
g2279
sg64
(lp2295
g57
(g58
g59
NtRp2296
(dp2297
g62
(dp2298
g70
I5
ssg71
g2292
sg64
(lp2299
g100
asbasbasbag57
(g73
g59
NtRp2300
(dp2301
g62
(dp2302
sg71
g67
sg64
(lp2303
g57
(g78
g59
NtRp2304
(dp2305
g62
(dp2306
g82
g83
ssg71
g2300
sg64
(lp2307
S'now'
p2308
asbag57
(g78
g59
NtRp2309
(dp2310
g62
(dp2311
g89
g90
ssg71
g2300
sg64
(lp2312
S':'
asbag57
(g78
g59
NtRp2313
(dp2314
g62
(dp2315
sg71
g2300
sg64
(lp2316
g57
(g58
g59
NtRp2317
(dp2318
g62
(dp2319
g70
I5
ssg71
g2313
sg64
(lp2320
S'datetime.datetime(2012, 11, 27, 19, 49, 39, 359000)'
p2321
asbasbasbag57
(g73
g59
NtRp2322
(dp2323
g62
(dp2324
sg71
g67
sg64
(lp2325
g57
(g78
g59
NtRp2326
(dp2327
g62
(dp2328
g82
g83
ssg71
g2322
sg64
(lp2329
S'post_vars'
p2330
asbag57
(g78
g59
NtRp2331
(dp2332
g62
(dp2333
g89
g90
ssg71
g2322
sg64
(lp2334
S':'
asbag57
(g78
g59
NtRp2335
(dp2336
g62
(dp2337
sg71
g2322
sg64
(lp2338
g57
(g58
g59
NtRp2339
(dp2340
g62
(dp2341
g70
I5
ssg71
g2335
sg64
(lp2342
g57
(g66
g59
NtRp2343
(dp2344
g62
(dp2345
g70
I4
ssg71
Nsg64
(lp2346
sbasbasbasbag57
(g73
g59
NtRp2347
(dp2348
g62
(dp2349
sg71
g67
sg64
(lp2350
g57
(g78
g59
NtRp2351
(dp2352
g62
(dp2353
g82
g83
ssg71
g2347
sg64
(lp2354
S'raw_args'
p2355
asbag57
(g78
g59
NtRp2356
(dp2357
g62
(dp2358
g89
g90
ssg71
g2347
sg64
(lp2359
S':'
asbag57
(g78
g59
NtRp2360
(dp2361
g62
(dp2362
sg71
g2347
sg64
(lp2363
g57
(g58
g59
NtRp2364
(dp2365
g62
(dp2366
g70
I5
ssg71
g2360
sg64
(lp2367
g159
asbasbasbag57
(g73
g59
NtRp2368
(dp2369
g62
(dp2370
sg71
g67
sg64
(lp2371
g57
(g78
g59
NtRp2372
(dp2373
g62
(dp2374
g82
g83
ssg71
g2368
sg64
(lp2375
S'raw_extension'
p2376
asbag57
(g78
g59
NtRp2377
(dp2378
g62
(dp2379
g89
g90
ssg71
g2368
sg64
(lp2380
S':'
asbag57
(g78
g59
NtRp2381
(dp2382
g62
(dp2383
sg71
g2368
sg64
(lp2384
g57
(g58
g59
NtRp2385
(dp2386
g62
(dp2387
g70
I5
ssg71
g2381
sg64
(lp2388
S'None'
p2389
asbasbasbag57
(g73
g59
NtRp2390
(dp2391
g62
(dp2392
sg71
g67
sg64
(lp2393
g57
(g78
g59
NtRp2394
(dp2395
g62
(dp2396
g82
g83
ssg71
g2390
sg64
(lp2397
S'url'
p2398
asbag57
(g78
g59
NtRp2399
(dp2400
g62
(dp2401
g89
g90
ssg71
g2390
sg64
(lp2402
S':'
asbag57
(g78
g59
NtRp2403
(dp2404
g62
(dp2405
sg71
g2390
sg64
(lp2406
g57
(g58
g59
NtRp2407
(dp2408
g62
(dp2409
g70
I5
ssg71
g2403
sg64
(lp2410
g1281
asbasbasbag57
(g73
g59
NtRp2411
(dp2412
g62
(dp2413
sg71
g67
sg64
(lp2414
g57
(g78
g59
NtRp2415
(dp2416
g62
(dp2417
g82
g83
ssg71
g2411
sg64
(lp2418
S'utcnow'
p2419
asbag57
(g78
g59
NtRp2420
(dp2421
g62
(dp2422
g89
g90
ssg71
g2411
sg64
(lp2423
S':'
asbag57
(g78
g59
NtRp2424
(dp2425
g62
(dp2426
sg71
g2411
sg64
(lp2427
g57
(g58
g59
NtRp2428
(dp2429
g62
(dp2430
g70
I5
ssg71
g2424
sg64
(lp2431
S'datetime.datetime(2012, 11, 27, 11, 49, 39, 359000)'
p2432
asbasbasbag57
(g73
g59
NtRp2433
(dp2434
g62
(dp2435
sg71
g67
sg64
(lp2436
g57
(g78
g59
NtRp2437
(dp2438
g62
(dp2439
g82
g83
ssg71
g2433
sg64
(lp2440
S'uuid'
p2441
asbag57
(g78
g59
NtRp2442
(dp2443
g62
(dp2444
g89
g90
ssg71
g2433
sg64
(lp2445
S':'
asbag57
(g78
g59
NtRp2446
(dp2447
g62
(dp2448
sg71
g2433
sg64
(lp2449
g57
(g58
g59
NtRp2450
(dp2451
g62
(dp2452
g70
I5
ssg71
g2446
sg64
(lp2453
S'QSunTasteBudsV2/127.0.0.1.2012-11-27.19-49-39.a1de6506-77d3-4ef1-82cc-75150933ca98'
p2454
asbasbasbag57
(g73
g59
NtRp2455
(dp2456
g62
(dp2457
sg71
g67
sg64
(lp2458
g57
(g78
g59
NtRp2459
(dp2460
g62
(dp2461
g82
g83
ssg71
g2455
sg64
(lp2462
S'vars'
p2463
asbag57
(g78
g59
NtRp2464
(dp2465
g62
(dp2466
g89
g90
ssg71
g2455
sg64
(lp2467
S':'
asbag57
(g78
g59
NtRp2468
(dp2469
g62
(dp2470
sg71
g2455
sg64
(lp2471
g57
(g58
g59
NtRp2472
(dp2473
g62
(dp2474
g70
I5
ssg71
g2468
sg64
(lp2475
g57
(g66
g59
NtRp2476
(dp2477
g62
(dp2478
g70
I4
ssg71
Nsg64
(lp2479
sbasbasbasbag57
(g73
g59
NtRp2480
(dp2481
g62
(dp2482
sg71
g67
sg64
(lp2483
g57
(g78
g59
NtRp2484
(dp2485
g62
(dp2486
g82
g83
ssg71
g2480
sg64
(lp2487
S'wsgi'
p2488
asbag57
(g78
g59
NtRp2489
(dp2490
g62
(dp2491
g89
g90
ssg71
g2480
sg64
(lp2492
S':'
asbag57
(g78
g59
NtRp2493
(dp2494
g62
(dp2495
sg71
g2480
sg64
(lp2496
g57
(g58
g59
NtRp2497
(dp2498
g62
(dp2499
g70
I5
ssg71
g2493
sg64
(lp2500
g57
(g66
g59
NtRp2501
(dp2502
g62
(dp2503
g70
I4
ssg71
Nsg64
(lp2504
g57
(g73
g59
NtRp2505
(dp2506
g62
(dp2507
sg71
g2501
sg64
(lp2508
g57
(g78
g59
NtRp2509
(dp2510
g62
(dp2511
g82
g83
ssg71
g2505
sg64
(lp2512
S'environ'
p2513
asbag57
(g78
g59
NtRp2514
(dp2515
g62
(dp2516
g89
g90
ssg71
g2505
sg64
(lp2517
S':'
asbag57
(g78
g59
NtRp2518
(dp2519
g62
(dp2520
sg71
g2505
sg64
(lp2521
g57
(g58
g59
NtRp2522
(dp2523
g62
(dp2524
g70
I4
ssg71
g2518
sg64
(lp2525
g57
(g66
g59
NtRp2526
(dp2527
g62
(dp2528
g70
I3
ssg71
Nsg64
(lp2529
g57
(g73
g59
NtRp2530
(dp2531
g62
(dp2532
sg71
g2526
sg64
(lp2533
g57
(g78
g59
NtRp2534
(dp2535
g62
(dp2536
g82
g83
ssg71
g2530
sg64
(lp2537
S'HTTP_ACCEPT'
p2538
asbag57
(g78
g59
NtRp2539
(dp2540
g62
(dp2541
g89
g90
ssg71
g2530
sg64
(lp2542
S':'
asbag57
(g78
g59
NtRp2543
(dp2544
g62
(dp2545
sg71
g2530
sg64
(lp2546
g57
(g58
g59
NtRp2547
(dp2548
g62
(dp2549
g70
I3
ssg71
g2543
sg64
(lp2550
g1041
asbasbasbag57
(g73
g59
NtRp2551
(dp2552
g62
(dp2553
sg71
g2526
sg64
(lp2554
g57
(g78
g59
NtRp2555
(dp2556
g62
(dp2557
g82
g83
ssg71
g2551
sg64
(lp2558
S'HTTP_ACCEPT_ENCODING'
p2559
asbag57
(g78
g59
NtRp2560
(dp2561
g62
(dp2562
g89
g90
ssg71
g2551
sg64
(lp2563
S':'
asbag57
(g78
g59
NtRp2564
(dp2565
g62
(dp2566
sg71
g2551
sg64
(lp2567
g57
(g58
g59
NtRp2568
(dp2569
g62
(dp2570
g70
I3
ssg71
g2564
sg64
(lp2571
g1063
asbasbasbag57
(g73
g59
NtRp2572
(dp2573
g62
(dp2574
sg71
g2526
sg64
(lp2575
g57
(g78
g59
NtRp2576
(dp2577
g62
(dp2578
g82
g83
ssg71
g2572
sg64
(lp2579
S'HTTP_ACCEPT_LANGUAGE'
p2580
asbag57
(g78
g59
NtRp2581
(dp2582
g62
(dp2583
g89
g90
ssg71
g2572
sg64
(lp2584
S':'
asbag57
(g78
g59
NtRp2585
(dp2586
g62
(dp2587
sg71
g2572
sg64
(lp2588
g57
(g58
g59
NtRp2589
(dp2590
g62
(dp2591
g70
I3
ssg71
g2585
sg64
(lp2592
g1085
asbasbasbag57
(g73
g59
NtRp2593
(dp2594
g62
(dp2595
sg71
g2526
sg64
(lp2596
g57
(g78
g59
NtRp2597
(dp2598
g62
(dp2599
g82
g83
ssg71
g2593
sg64
(lp2600
S'HTTP_CACHE_CONTROL'
p2601
asbag57
(g78
g59
NtRp2602
(dp2603
g62
(dp2604
g89
g90
ssg71
g2593
sg64
(lp2605
S':'
asbag57
(g78
g59
NtRp2606
(dp2607
g62
(dp2608
sg71
g2593
sg64
(lp2609
g57
(g58
g59
NtRp2610
(dp2611
g62
(dp2612
g70
I3
ssg71
g2606
sg64
(lp2613
g1107
asbasbasbag57
(g73
g59
NtRp2614
(dp2615
g62
(dp2616
sg71
g2526
sg64
(lp2617
g57
(g78
g59
NtRp2618
(dp2619
g62
(dp2620
g82
g83
ssg71
g2614
sg64
(lp2621
S'HTTP_CONNECTION'
p2622
asbag57
(g78
g59
NtRp2623
(dp2624
g62
(dp2625
g89
g90
ssg71
g2614
sg64
(lp2626
S':'
asbag57
(g78
g59
NtRp2627
(dp2628
g62
(dp2629
sg71
g2614
sg64
(lp2630
g57
(g58
g59
NtRp2631
(dp2632
g62
(dp2633
g70
I3
ssg71
g2627
sg64
(lp2634
g1129
asbasbasbag57
(g73
g59
NtRp2635
(dp2636
g62
(dp2637
sg71
g2526
sg64
(lp2638
g57
(g78
g59
NtRp2639
(dp2640
g62
(dp2641
g82
g83
ssg71
g2635
sg64
(lp2642
S'HTTP_COOKIE'
p2643
asbag57
(g78
g59
NtRp2644
(dp2645
g62
(dp2646
g89
g90
ssg71
g2635
sg64
(lp2647
S':'
asbag57
(g78
g59
NtRp2648
(dp2649
g62
(dp2650
sg71
g2635
sg64
(lp2651
g57
(g58
g59
NtRp2652
(dp2653
g62
(dp2654
g70
I3
ssg71
g2648
sg64
(lp2655
g1151
asbasbasbag57
(g73
g59
NtRp2656
(dp2657
g62
(dp2658
sg71
g2526
sg64
(lp2659
g57
(g78
g59
NtRp2660
(dp2661
g62
(dp2662
g82
g83
ssg71
g2656
sg64
(lp2663
S'HTTP_HOST'
p2664
asbag57
(g78
g59
NtRp2665
(dp2666
g62
(dp2667
g89
g90
ssg71
g2656
sg64
(lp2668
S':'
asbag57
(g78
g59
NtRp2669
(dp2670
g62
(dp2671
sg71
g2656
sg64
(lp2672
g57
(g58
g59
NtRp2673
(dp2674
g62
(dp2675
g70
I3
ssg71
g2669
sg64
(lp2676
g1173
asbasbasbag57
(g73
g59
NtRp2677
(dp2678
g62
(dp2679
sg71
g2526
sg64
(lp2680
g57
(g78
g59
NtRp2681
(dp2682
g62
(dp2683
g82
g83
ssg71
g2677
sg64
(lp2684
S'HTTP_REFERER'
p2685
asbag57
(g78
g59
NtRp2686
(dp2687
g62
(dp2688
g89
g90
ssg71
g2677
sg64
(lp2689
S':'
asbag57
(g78
g59
NtRp2690
(dp2691
g62
(dp2692
sg71
g2677
sg64
(lp2693
g57
(g58
g59
NtRp2694
(dp2695
g62
(dp2696
g70
I3
ssg71
g2690
sg64
(lp2697
g1195
asbasbasbag57
(g73
g59
NtRp2698
(dp2699
g62
(dp2700
sg71
g2526
sg64
(lp2701
g57
(g78
g59
NtRp2702
(dp2703
g62
(dp2704
g82
g83
ssg71
g2698
sg64
(lp2705
S'HTTP_USER_AGENT'
p2706
asbag57
(g78
g59
NtRp2707
(dp2708
g62
(dp2709
g89
g90
ssg71
g2698
sg64
(lp2710
S':'
asbag57
(g78
g59
NtRp2711
(dp2712
g62
(dp2713
sg71
g2698
sg64
(lp2714
g57
(g58
g59
NtRp2715
(dp2716
g62
(dp2717
g70
I3
ssg71
g2711
sg64
(lp2718
g1217
asbasbasbag57
(g73
g59
NtRp2719
(dp2720
g62
(dp2721
sg71
g2526
sg64
(lp2722
g57
(g78
g59
NtRp2723
(dp2724
g62
(dp2725
g82
g83
ssg71
g2719
sg64
(lp2726
S'PATH_INFO'
p2727
asbag57
(g78
g59
NtRp2728
(dp2729
g62
(dp2730
g89
g90
ssg71
g2719
sg64
(lp2731
S':'
asbag57
(g78
g59
NtRp2732
(dp2733
g62
(dp2734
sg71
g2719
sg64
(lp2735
g57
(g58
g59
NtRp2736
(dp2737
g62
(dp2738
g70
I3
ssg71
g2732
sg64
(lp2739
g1281
asbasbasbag57
(g73
g59
NtRp2740
(dp2741
g62
(dp2742
sg71
g2526
sg64
(lp2743
g57
(g78
g59
NtRp2744
(dp2745
g62
(dp2746
g82
g83
ssg71
g2740
sg64
(lp2747
S'QUERY_STRING'
p2748
asbag57
(g78
g59
NtRp2749
(dp2750
g62
(dp2751
g89
g90
ssg71
g2740
sg64
(lp2752
S':'
asbag57
(g78
g59
NtRp2753
(dp2754
g62
(dp2755
sg71
g2740
sg64
(lp2756
g57
(g58
g59
NtRp2757
(dp2758
g62
(dp2759
g70
I3
ssg71
g2753
sg64
(lp2760
S''
asbasbasbag57
(g73
g59
NtRp2761
(dp2762
g62
(dp2763
sg71
g2526
sg64
(lp2764
g57
(g78
g59
NtRp2765
(dp2766
g62
(dp2767
g82
g83
ssg71
g2761
sg64
(lp2768
S'REMOTE_ADDR'
p2769
asbag57
(g78
g59
NtRp2770
(dp2771
g62
(dp2772
g89
g90
ssg71
g2761
sg64
(lp2773
S':'
asbag57
(g78
g59
NtRp2774
(dp2775
g62
(dp2776
sg71
g2761
sg64
(lp2777
g57
(g58
g59
NtRp2778
(dp2779
g62
(dp2780
g70
I3
ssg71
g2774
sg64
(lp2781
g225
asbasbasbag57
(g73
g59
NtRp2782
(dp2783
g62
(dp2784
sg71
g2526
sg64
(lp2785
g57
(g78
g59
NtRp2786
(dp2787
g62
(dp2788
g82
g83
ssg71
g2782
sg64
(lp2789
S'REMOTE_PORT'
p2790
asbag57
(g78
g59
NtRp2791
(dp2792
g62
(dp2793
g89
g90
ssg71
g2782
sg64
(lp2794
S':'
asbag57
(g78
g59
NtRp2795
(dp2796
g62
(dp2797
sg71
g2782
sg64
(lp2798
g57
(g58
g59
NtRp2799
(dp2800
g62
(dp2801
g70
I3
ssg71
g2795
sg64
(lp2802
g1345
asbasbasbag57
(g73
g59
NtRp2803
(dp2804
g62
(dp2805
sg71
g2526
sg64
(lp2806
g57
(g78
g59
NtRp2807
(dp2808
g62
(dp2809
g82
g83
ssg71
g2803
sg64
(lp2810
S'REQUEST_METHOD'
p2811
asbag57
(g78
g59
NtRp2812
(dp2813
g62
(dp2814
g89
g90
ssg71
g2803
sg64
(lp2815
S':'
asbag57
(g78
g59
NtRp2816
(dp2817
g62
(dp2818
sg71
g2803
sg64
(lp2819
g57
(g58
g59
NtRp2820
(dp2821
g62
(dp2822
g70
I3
ssg71
g2816
sg64
(lp2823
g1367
asbasbasbag57
(g73
g59
NtRp2824
(dp2825
g62
(dp2826
sg71
g2526
sg64
(lp2827
g57
(g78
g59
NtRp2828
(dp2829
g62
(dp2830
g82
g83
ssg71
g2824
sg64
(lp2831
S'REQUEST_URI'
p2832
asbag57
(g78
g59
NtRp2833
(dp2834
g62
(dp2835
g89
g90
ssg71
g2824
sg64
(lp2836
S':'
asbag57
(g78
g59
NtRp2837
(dp2838
g62
(dp2839
sg71
g2824
sg64
(lp2840
g57
(g58
g59
NtRp2841
(dp2842
g62
(dp2843
g70
I3
ssg71
g2837
sg64
(lp2844
g1281
asbasbasbag57
(g73
g59
NtRp2845
(dp2846
g62
(dp2847
sg71
g2526
sg64
(lp2848
g57
(g78
g59
NtRp2849
(dp2850
g62
(dp2851
g82
g83
ssg71
g2845
sg64
(lp2852
S'SCRIPT_NAME'
p2853
asbag57
(g78
g59
NtRp2854
(dp2855
g62
(dp2856
g89
g90
ssg71
g2845
sg64
(lp2857
S':'
asbag57
(g78
g59
NtRp2858
(dp2859
g62
(dp2860
sg71
g2845
sg64
(lp2861
g57
(g58
g59
NtRp2862
(dp2863
g62
(dp2864
g70
I3
ssg71
g2858
sg64
(lp2865
S''
asbasbasbag57
(g73
g59
NtRp2866
(dp2867
g62
(dp2868
sg71
g2526
sg64
(lp2869
g57
(g78
g59
NtRp2870
(dp2871
g62
(dp2872
g82
g83
ssg71
g2866
sg64
(lp2873
S'SERVER_NAME'
p2874
asbag57
(g78
g59
NtRp2875
(dp2876
g62
(dp2877
g89
g90
ssg71
g2866
sg64
(lp2878
S':'
asbag57
(g78
g59
NtRp2879
(dp2880
g62
(dp2881
sg71
g2866
sg64
(lp2882
g57
(g58
g59
NtRp2883
(dp2884
g62
(dp2885
g70
I3
ssg71
g2879
sg64
(lp2886
g1431
asbasbasbag57
(g73
g59
NtRp2887
(dp2888
g62
(dp2889
sg71
g2526
sg64
(lp2890
g57
(g78
g59
NtRp2891
(dp2892
g62
(dp2893
g82
g83
ssg71
g2887
sg64
(lp2894
S'SERVER_PORT'
p2895
asbag57
(g78
g59
NtRp2896
(dp2897
g62
(dp2898
g89
g90
ssg71
g2887
sg64
(lp2899
S':'
asbag57
(g78
g59
NtRp2900
(dp2901
g62
(dp2902
sg71
g2887
sg64
(lp2903
g57
(g58
g59
NtRp2904
(dp2905
g62
(dp2906
g70
I3
ssg71
g2900
sg64
(lp2907
g1453
asbasbasbag57
(g73
g59
NtRp2908
(dp2909
g62
(dp2910
sg71
g2526
sg64
(lp2911
g57
(g78
g59
NtRp2912
(dp2913
g62
(dp2914
g82
g83
ssg71
g2908
sg64
(lp2915
S'SERVER_PROTOCOL'
p2916
asbag57
(g78
g59
NtRp2917
(dp2918
g62
(dp2919
g89
g90
ssg71
g2908
sg64
(lp2920
S':'
asbag57
(g78
g59
NtRp2921
(dp2922
g62
(dp2923
sg71
g2908
sg64
(lp2924
g57
(g58
g59
NtRp2925
(dp2926
g62
(dp2927
g70
I3
ssg71
g2921
sg64
(lp2928
g1475
asbasbasbag57
(g73
g59
NtRp2929
(dp2930
g62
(dp2931
sg71
g2526
sg64
(lp2932
g57
(g78
g59
NtRp2933
(dp2934
g62
(dp2935
g82
g83
ssg71
g2929
sg64
(lp2936
S'SERVER_SOFTWARE'
p2937
asbag57
(g78
g59
NtRp2938
(dp2939
g62
(dp2940
g89
g90
ssg71
g2929
sg64
(lp2941
S':'
asbag57
(g78
g59
NtRp2942
(dp2943
g62
(dp2944
sg71
g2929
sg64
(lp2945
g57
(g58
g59
NtRp2946
(dp2947
g62
(dp2948
g70
I3
ssg71
g2942
sg64
(lp2949
g1497
asbasbasbag57
(g73
g59
NtRp2950
(dp2951
g62
(dp2952
sg71
g2526
sg64
(lp2953
g57
(g78
g59
NtRp2954
(dp2955
g62
(dp2956
g82
g83
ssg71
g2950
sg64
(lp2957
S'wsgi.errors'
p2958
asbag57
(g78
g59
NtRp2959
(dp2960
g62
(dp2961
g89
g90
ssg71
g2950
sg64
(lp2962
S':'
asbag57
(g78
g59
NtRp2963
(dp2964
g62
(dp2965
sg71
g2950
sg64
(lp2966
g57
(g58
g59
NtRp2967
(dp2968
g62
(dp2969
g70
I3
ssg71
g2963
sg64
(lp2970
S"<open file '<stderr>', mode 'w' at 0x009350D0>"
p2971
asbasbasbag57
(g73
g59
NtRp2972
(dp2973
g62
(dp2974
sg71
g2526
sg64
(lp2975
g57
(g78
g59
NtRp2976
(dp2977
g62
(dp2978
g82
g83
ssg71
g2972
sg64
(lp2979
S'wsgi.file_wrapper'
p2980
asbag57
(g78
g59
NtRp2981
(dp2982
g62
(dp2983
g89
g90
ssg71
g2972
sg64
(lp2984
S':'
asbag57
(g78
g59
NtRp2985
(dp2986
g62
(dp2987
sg71
g2972
sg64
(lp2988
g57
(g58
g59
NtRp2989
(dp2990
g62
(dp2991
g70
I3
ssg71
g2985
sg64
(lp2992
S'<class wsgiref.util.FileWrapper at 0x016DAF10>'
p2993
asbasbasbag57
(g73
g59
NtRp2994
(dp2995
g62
(dp2996
sg71
g2526
sg64
(lp2997
g57
(g78
g59
NtRp2998
(dp2999
g62
(dp3000
g82
g83
ssg71
g2994
sg64
(lp3001
S'wsgi.input'
p3002
asbag57
(g78
g59
NtRp3003
(dp3004
g62
(dp3005
g89
g90
ssg71
g2994
sg64
(lp3006
S':'
asbag57
(g78
g59
NtRp3007
(dp3008
g62
(dp3009
sg71
g2994
sg64
(lp3010
g57
(g58
g59
NtRp3011
(dp3012
g62
(dp3013
g70
I3
ssg71
g3007
sg64
(lp3014
S'<cStringIO.StringO object at 0x03D6F7A0>'
p3015
asbasbasbag57
(g73
g59
NtRp3016
(dp3017
g62
(dp3018
sg71
g2526
sg64
(lp3019
g57
(g78
g59
NtRp3020
(dp3021
g62
(dp3022
g82
g83
ssg71
g3016
sg64
(lp3023
S'wsgi.multiprocess'
p3024
asbag57
(g78
g59
NtRp3025
(dp3026
g62
(dp3027
g89
g90
ssg71
g3016
sg64
(lp3028
S':'
asbag57
(g78
g59
NtRp3029
(dp3030
g62
(dp3031
sg71
g3016
sg64
(lp3032
g57
(g58
g59
NtRp3033
(dp3034
g62
(dp3035
g70
I3
ssg71
g3029
sg64
(lp3036
g100
asbasbasbag57
(g73
g59
NtRp3037
(dp3038
g62
(dp3039
sg71
g2526
sg64
(lp3040
g57
(g78
g59
NtRp3041
(dp3042
g62
(dp3043
g82
g83
ssg71
g3037
sg64
(lp3044
S'wsgi.multithread'
p3045
asbag57
(g78
g59
NtRp3046
(dp3047
g62
(dp3048
g89
g90
ssg71
g3037
sg64
(lp3049
S':'
asbag57
(g78
g59
NtRp3050
(dp3051
g62
(dp3052
sg71
g3037
sg64
(lp3053
g57
(g58
g59
NtRp3054
(dp3055
g62
(dp3056
g70
I3
ssg71
g3050
sg64
(lp3057
g1736
asbasbasbag57
(g73
g59
NtRp3058
(dp3059
g62
(dp3060
sg71
g2526
sg64
(lp3061
g57
(g78
g59
NtRp3062
(dp3063
g62
(dp3064
g82
g83
ssg71
g3058
sg64
(lp3065
S'wsgi.run_once'
p3066
asbag57
(g78
g59
NtRp3067
(dp3068
g62
(dp3069
g89
g90
ssg71
g3058
sg64
(lp3070
S':'
asbag57
(g78
g59
NtRp3071
(dp3072
g62
(dp3073
sg71
g3058
sg64
(lp3074
g57
(g58
g59
NtRp3075
(dp3076
g62
(dp3077
g70
I3
ssg71
g3071
sg64
(lp3078
g100
asbasbasbag57
(g73
g59
NtRp3079
(dp3080
g62
(dp3081
sg71
g2526
sg64
(lp3082
g57
(g78
g59
NtRp3083
(dp3084
g62
(dp3085
g82
g83
ssg71
g3079
sg64
(lp3086
S'wsgi.url_scheme'
p3087
asbag57
(g78
g59
NtRp3088
(dp3089
g62
(dp3090
g89
g90
ssg71
g3079
sg64
(lp3091
S':'
asbag57
(g78
g59
NtRp3092
(dp3093
g62
(dp3094
sg71
g3079
sg64
(lp3095
g57
(g58
g59
NtRp3096
(dp3097
g62
(dp3098
g70
I3
ssg71
g3092
sg64
(lp3099
g1779
asbasbasbag57
(g73
g59
NtRp3100
(dp3101
g62
(dp3102
sg71
g2526
sg64
(lp3103
g57
(g78
g59
NtRp3104
(dp3105
g62
(dp3106
g82
g83
ssg71
g3100
sg64
(lp3107
S'wsgi.version'
p3108
asbag57
(g78
g59
NtRp3109
(dp3110
g62
(dp3111
g89
g90
ssg71
g3100
sg64
(lp3112
S':'
asbag57
(g78
g59
NtRp3113
(dp3114
g62
(dp3115
sg71
g3100
sg64
(lp3116
g57
(g58
g59
NtRp3117
(dp3118
g62
(dp3119
g70
I3
ssg71
g3113
sg64
(lp3120
S'1'
asbasbasbasbasbasbasbasbasbasbasbasbasbsS'frames'
p3121
(lp3122
(dp3123
S'file'
p3124
S'D:\\web2py_win\\web2py\\gluon\\restricted.py'
p3125
sS'dump'
p3126
(dp3127
sS'lnum'
p3128
I209
sS'lines'
p3129
(dp3130
sS'call'
p3131
S'(code=\'response.write("<html>\\\\r\\\\n\\\\t<head>\\\\r\\\\n        <h...iv>\\\\r\\\\n    </body>\\\\r\\\\n</html>\\\\r\\\\n\\\', escape=False)\', environment={\'A\': <class \'gluon.html.A\'>, \'Auth\': <class \'gluon.tools.Auth\'>, \'B\': <class \'gluon.html.B\'>, \'BEAUTIFY\': <class \'gluon.html.BEAUTIFY\'>, \'BODY\': <class \'gluon.html.BODY\'>, \'BR\': <class \'gluon.html.BR\'>, \'BUTTON\': <class \'gluon.html.BUTTON\'>, \'CAT\': <class \'gluon.html.CAT\'>, \'CENTER\': <class \'gluon.html.CENTER\'>, \'CLEANUP\': <class \'gluon.validators.CLEANUP\'>, ...}, layer=r\'D:\\web2py_win\\web2py\\applications\\QSunTasteBudsV2\\views\\default/readRecipe.html\')'
p3132
sS'func'
p3133
S'restricted'
p3134
sa(dp3135
g3124
S'D:\\web2py_win\\web2py\\applications\\QSunTasteBudsV2\\views\\default\\readRecipe.html'
p3136
sg3126
(dp3137
sg3128
I2
sg3129
(dp3138
I1
S'response.write("<html>\\r\\n\\t<head>\\r\\n        <h2>Recipe\'s Name:  ", escape=False)'
p3139
sI2
S'response.write(recipe.title)'
p3140
sI3
S"response.write('</h2>\\r\\n    </head>\\r\\n\\r\\n\\t<body>\\r\\n        <h5>made by: ', escape=False)"
p3141
sI4
S'response.write(recipe.owner.first_name)'
p3142
sI5
S"response.write('  ', escape=False)"
p3143
sI6
S'response.write(recipe.owner.last_name)'
p3144
sI7
S"response.write('</h5>\\r\\n        <li>uploaded time: ', escape=False)"
p3145
sI8
S'response.write(recipe.uploadTime)'
p3146
sI9
S"response.write('</li>\\r\\n        <p>', escape=False)"
p3147
sI10
S"response.write(IMG(_src = URL('download', args = recipe.picture), _alt = recipe.title, _height = '70', _width = '200'))"
p3148
sI11
S"response.write('</p>\\r\\n        <li>current rating point:  ', escape=False)"
p3149
sI12
S'response.write(recipe.rating)'
p3150
ssg3131
S'()'
p3151
sg3133
S'<module>'
p3152
sasS'pyver'
p3153
S'Python 2.7: D:\\web2py_win\\web2py\\web2py.exe'
p3154
sS'session'
p3155
g57
(g58
g59
NtRp3156
(dp3157
g62
(dp3158
sg64
(lp3159
g57
(g66
g59
NtRp3160
(dp3161
g62
(dp3162
g70
I5
ssg71
Nsg64
(lp3163
g57
(g73
g59
NtRp3164
(dp3165
g62
(dp3166
sg71
g3160
sg64
(lp3167
g57
(g78
g59
NtRp3168
(dp3169
g62
(dp3170
g82
g83
ssg71
g3164
sg64
(lp3171
S'auth'
p3172
asbag57
(g78
g59
NtRp3173
(dp3174
g62
(dp3175
g89
g90
ssg71
g3164
sg64
(lp3176
S':'
asbag57
(g78
g59
NtRp3177
(dp3178
g62
(dp3179
sg71
g3164
sg64
(lp3180
g57
(g58
g59
NtRp3181
(dp3182
g62
(dp3183
g70
I5
ssg71
g3177
sg64
(lp3184
g57
(g66
g59
NtRp3185
(dp3186
g62
(dp3187
g70
I4
ssg71
Nsg64
(lp3188
g57
(g73
g59
NtRp3189
(dp3190
g62
(dp3191
sg71
g3185
sg64
(lp3192
g57
(g78
g59
NtRp3193
(dp3194
g62
(dp3195
g82
g83
ssg71
g3189
sg64
(lp3196
S'expiration'
p3197
asbag57
(g78
g59
NtRp3198
(dp3199
g62
(dp3200
g89
g90
ssg71
g3189
sg64
(lp3201
S':'
asbag57
(g78
g59
NtRp3202
(dp3203
g62
(dp3204
sg71
g3189
sg64
(lp3205
g57
(g58
g59
NtRp3206
(dp3207
g62
(dp3208
g70
I4
ssg71
g3202
sg64
(lp3209
S'3600'
p3210
asbasbasbag57
(g73
g59
NtRp3211
(dp3212
g62
(dp3213
sg71
g3185
sg64
(lp3214
g57
(g78
g59
NtRp3215
(dp3216
g62
(dp3217
g82
g83
ssg71
g3211
sg64
(lp3218
S'hmac_key'
p3219
asbag57
(g78
g59
NtRp3220
(dp3221
g62
(dp3222
g89
g90
ssg71
g3211
sg64
(lp3223
S':'
asbag57
(g78
g59
NtRp3224
(dp3225
g62
(dp3226
sg71
g3211
sg64
(lp3227
g57
(g58
g59
NtRp3228
(dp3229
g62
(dp3230
g70
I4
ssg71
g3224
sg64
(lp3231
S'598a2e6b-1656-41ee-8471-f750b11c6ebd'
p3232
asbasbasbag57
(g73
g59
NtRp3233
(dp3234
g62
(dp3235
sg71
g3185
sg64
(lp3236
g57
(g78
g59
NtRp3237
(dp3238
g62
(dp3239
g82
g83
ssg71
g3233
sg64
(lp3240
S'last_visit'
p3241
asbag57
(g78
g59
NtRp3242
(dp3243
g62
(dp3244
g89
g90
ssg71
g3233
sg64
(lp3245
S':'
asbag57
(g78
g59
NtRp3246
(dp3247
g62
(dp3248
sg71
g3233
sg64
(lp3249
g57
(g58
g59
NtRp3250
(dp3251
g62
(dp3252
g70
I4
ssg71
g3246
sg64
(lp3253
S'datetime.datetime(2012, 11, 27, 19, 45, 51, 718000)'
p3254
asbasbasbag57
(g73
g59
NtRp3255
(dp3256
g62
(dp3257
sg71
g3185
sg64
(lp3258
g57
(g78
g59
NtRp3259
(dp3260
g62
(dp3261
g82
g83
ssg71
g3255
sg64
(lp3262
S'remember'
p3263
asbag57
(g78
g59
NtRp3264
(dp3265
g62
(dp3266
g89
g90
ssg71
g3255
sg64
(lp3267
S':'
asbag57
(g78
g59
NtRp3268
(dp3269
g62
(dp3270
sg71
g3255
sg64
(lp3271
g57
(g58
g59
NtRp3272
(dp3273
g62
(dp3274
g70
I4
ssg71
g3268
sg64
(lp3275
g100
asbasbasbag57
(g73
g59
NtRp3276
(dp3277
g62
(dp3278
sg71
g3185
sg64
(lp3279
g57
(g78
g59
NtRp3280
(dp3281
g62
(dp3282
g82
g83
ssg71
g3276
sg64
(lp3283
S'user'
p3284
asbag57
(g78
g59
NtRp3285
(dp3286
g62
(dp3287
g89
g90
ssg71
g3276
sg64
(lp3288
S':'
asbag57
(g78
g59
NtRp3289
(dp3290
g62
(dp3291
sg71
g3276
sg64
(lp3292
g57
(g58
g59
NtRp3293
(dp3294
g62
(dp3295
g70
I4
ssg71
g3289
sg64
(lp3296
g57
(g66
g59
NtRp3297
(dp3298
g62
(dp3299
g70
I3
ssg71
Nsg64
(lp3300
g57
(g73
g59
NtRp3301
(dp3302
g62
(dp3303
sg71
g3297
sg64
(lp3304
g57
(g78
g59
NtRp3305
(dp3306
g62
(dp3307
g82
g83
ssg71
g3301
sg64
(lp3308
S'email'
p3309
asbag57
(g78
g59
NtRp3310
(dp3311
g62
(dp3312
g89
g90
ssg71
g3301
sg64
(lp3313
S':'
asbag57
(g78
g59
NtRp3314
(dp3315
g62
(dp3316
sg71
g3301
sg64
(lp3317
g57
(g58
g59
NtRp3318
(dp3319
g62
(dp3320
g70
I3
ssg71
g3314
sg64
(lp3321
S'qsun@ucsc.edu'
p3322
asbasbasbag57
(g73
g59
NtRp3323
(dp3324
g62
(dp3325
sg71
g3297
sg64
(lp3326
g57
(g78
g59
NtRp3327
(dp3328
g62
(dp3329
g82
g83
ssg71
g3323
sg64
(lp3330
S'first_name'
p3331
asbag57
(g78
g59
NtRp3332
(dp3333
g62
(dp3334
g89
g90
ssg71
g3323
sg64
(lp3335
S':'
asbag57
(g78
g59
NtRp3336
(dp3337
g62
(dp3338
sg71
g3323
sg64
(lp3339
g57
(g58
g59
NtRp3340
(dp3341
g62
(dp3342
g70
I3
ssg71
g3336
sg64
(lp3343
S'You'
p3344
asbasbasbag57
(g73
g59
NtRp3345
(dp3346
g62
(dp3347
sg71
g3297
sg64
(lp3348
g57
(g78
g59
NtRp3349
(dp3350
g62
(dp3351
g82
g83
ssg71
g3345
sg64
(lp3352
S'id'
p3353
asbag57
(g78
g59
NtRp3354
(dp3355
g62
(dp3356
g89
g90
ssg71
g3345
sg64
(lp3357
S':'
asbag57
(g78
g59
NtRp3358
(dp3359
g62
(dp3360
sg71
g3345
sg64
(lp3361
g57
(g58
g59
NtRp3362
(dp3363
g62
(dp3364
g70
I3
ssg71
g3358
sg64
(lp3365
S'2'
asbasbasbag57
(g73
g59
NtRp3366
(dp3367
g62
(dp3368
sg71
g3297
sg64
(lp3369
g57
(g78
g59
NtRp3370
(dp3371
g62
(dp3372
g82
g83
ssg71
g3366
sg64
(lp3373
S'last_name'
p3374
asbag57
(g78
g59
NtRp3375
(dp3376
g62
(dp3377
g89
g90
ssg71
g3366
sg64
(lp3378
S':'
asbag57
(g78
g59
NtRp3379
(dp3380
g62
(dp3381
sg71
g3366
sg64
(lp3382
g57
(g58
g59
NtRp3383
(dp3384
g62
(dp3385
g70
I3
ssg71
g3379
sg64
(lp3386
S'Folks'
p3387
asbasbasbag57
(g73
g59
NtRp3388
(dp3389
g62
(dp3390
sg71
g3297
sg64
(lp3391
g57
(g78
g59
NtRp3392
(dp3393
g62
(dp3394
g82
g83
ssg71
g3388
sg64
(lp3395
S'password'
p3396
asbag57
(g78
g59
NtRp3397
(dp3398
g62
(dp3399
g89
g90
ssg71
g3388
sg64
(lp3400
S':'
asbag57
(g78
g59
NtRp3401
(dp3402
g62
(dp3403
sg71
g3388
sg64
(lp3404
g57
(g58
g59
NtRp3405
(dp3406
g62
(dp3407
g70
I3
ssg71
g3401
sg64
(lp3408
S'pbkdf2(1000,20,sha512)$be2ae34bd8ab6f89$1becf62efcea01de9b58832835686ca56a464d32'
p3409
asbasbasbag57
(g73
g59
NtRp3410
(dp3411
g62
(dp3412
sg71
g3297
sg64
(lp3413
g57
(g78
g59
NtRp3414
(dp3415
g62
(dp3416
g82
g83
ssg71
g3410
sg64
(lp3417
S'registration_id'
p3418
asbag57
(g78
g59
NtRp3419
(dp3420
g62
(dp3421
g89
g90
ssg71
g3410
sg64
(lp3422
S':'
asbag57
(g78
g59
NtRp3423
(dp3424
g62
(dp3425
sg71
g3410
sg64
(lp3426
g57
(g58
g59
NtRp3427
(dp3428
g62
(dp3429
g70
I3
ssg71
g3423
sg64
(lp3430
S''
asbasbasbag57
(g73
g59
NtRp3431
(dp3432
g62
(dp3433
sg71
g3297
sg64
(lp3434
g57
(g78
g59
NtRp3435
(dp3436
g62
(dp3437
g82
g83
ssg71
g3431
sg64
(lp3438
S'registration_key'
p3439
asbag57
(g78
g59
NtRp3440
(dp3441
g62
(dp3442
g89
g90
ssg71
g3431
sg64
(lp3443
S':'
asbag57
(g78
g59
NtRp3444
(dp3445
g62
(dp3446
sg71
g3431
sg64
(lp3447
g57
(g58
g59
NtRp3448
(dp3449
g62
(dp3450
g70
I3
ssg71
g3444
sg64
(lp3451
S''
asbasbasbag57
(g73
g59
NtRp3452
(dp3453
g62
(dp3454
sg71
g3297
sg64
(lp3455
g57
(g78
g59
NtRp3456
(dp3457
g62
(dp3458
g82
g83
ssg71
g3452
sg64
(lp3459
S'reset_password_key'
p3460
asbag57
(g78
g59
NtRp3461
(dp3462
g62
(dp3463
g89
g90
ssg71
g3452
sg64
(lp3464
S':'
asbag57
(g78
g59
NtRp3465
(dp3466
g62
(dp3467
sg71
g3452
sg64
(lp3468
g57
(g58
g59
NtRp3469
(dp3470
g62
(dp3471
g70
I3
ssg71
g3465
sg64
(lp3472
S''
asbasbasbasbasbasbasbag57
(g73
g59
NtRp3473
(dp3474
g62
(dp3475
sg71
g3185
sg64
(lp3476
g57
(g78
g59
NtRp3477
(dp3478
g62
(dp3479
g82
g83
ssg71
g3473
sg64
(lp3480
S'user_groups'
p3481
asbag57
(g78
g59
NtRp3482
(dp3483
g62
(dp3484
g89
g90
ssg71
g3473
sg64
(lp3485
S':'
asbag57
(g78
g59
NtRp3486
(dp3487
g62
(dp3488
sg71
g3473
sg64
(lp3489
g57
(g58
g59
NtRp3490
(dp3491
g62
(dp3492
g70
I4
ssg71
g3486
sg64
(lp3493
g57
(g66
g59
NtRp3494
(dp3495
g62
(dp3496
g70
I3
ssg71
Nsg64
(lp3497
g57
(g73
g59
NtRp3498
(dp3499
g62
(dp3500
sg71
g3494
sg64
(lp3501
g57
(g78
g59
NtRp3502
(dp3503
g62
(dp3504
g82
g83
ssg71
g3498
sg64
(lp3505
S'2'
asbag57
(g78
g59
NtRp3506
(dp3507
g62
(dp3508
g89
g90
ssg71
g3498
sg64
(lp3509
S':'
asbag57
(g78
g59
NtRp3510
(dp3511
g62
(dp3512
sg71
g3498
sg64
(lp3513
g57
(g58
g59
NtRp3514
(dp3515
g62
(dp3516
g70
I3
ssg71
g3510
sg64
(lp3517
S'user_2'
p3518
asbasbasbasbasbasbasbasbasbasbasbag57
(g73
g59
NtRp3519
(dp3520
g62
(dp3521
sg71
g3160
sg64
(lp3522
g57
(g78
g59
NtRp3523
(dp3524
g62
(dp3525
g82
g83
ssg71
g3519
sg64
(lp3526
S'currentRecipe'
p3527
asbag57
(g78
g59
NtRp3528
(dp3529
g62
(dp3530
g89
g90
ssg71
g3519
sg64
(lp3531
S':'
asbag57
(g78
g59
NtRp3532
(dp3533
g62
(dp3534
sg71
g3519
sg64
(lp3535
g57
(g58
g59
NtRp3536
(dp3537
g62
(dp3538
g70
I5
ssg71
g3532
sg64
(lp3539
g159
asbasbasbag57
(g73
g59
NtRp3540
(dp3541
g62
(dp3542
sg71
g3160
sg64
(lp3543
g57
(g78
g59
NtRp3544
(dp3545
g62
(dp3546
g82
g83
ssg71
g3540
sg64
(lp3547
S'flash'
p3548
asbag57
(g78
g59
NtRp3549
(dp3550
g62
(dp3551
g89
g90
ssg71
g3540
sg64
(lp3552
S':'
asbag57
(g78
g59
NtRp3553
(dp3554
g62
(dp3555
sg71
g3540
sg64
(lp3556
g57
(g58
g59
NtRp3557
(dp3558
g62
(dp3559
g70
I5
ssg71
g3553
sg64
(lp3560
S'None'
p3561
asbasbasbag57
(g73
g59
NtRp3562
(dp3563
g62
(dp3564
sg71
g3160
sg64
(lp3565
g57
(g78
g59
NtRp3566
(dp3567
g62
(dp3568
g82
g83
ssg71
g3562
sg64
(lp3569
S'last_orderby'
p3570
asbag57
(g78
g59
NtRp3571
(dp3572
g62
(dp3573
g89
g90
ssg71
g3562
sg64
(lp3574
S':'
asbag57
(g78
g59
NtRp3575
(dp3576
g62
(dp3577
sg71
g3562
sg64
(lp3578
g57
(g58
g59
NtRp3579
(dp3580
g62
(dp3581
g70
I5
ssg71
g3575
sg64
(lp3582
S'None'
p3583
asbasbasbag57
(g73
g59
NtRp3584
(dp3585
g62
(dp3586
sg71
g3160
sg64
(lp3587
g57
(g78
g59
NtRp3588
(dp3589
g62
(dp3590
g82
g83
ssg71
g3584
sg64
(lp3591
S'last_query'
p3592
asbag57
(g78
g59
NtRp3593
(dp3594
g62
(dp3595
g89
g90
ssg71
g3584
sg64
(lp3596
S':'
asbag57
(g78
g59
NtRp3597
(dp3598
g62
(dp3599
sg71
g3584
sg64
(lp3600
g57
(g58
g59
NtRp3601
(dp3602
g62
(dp3603
g70
I5
ssg71
g3597
sg64
(lp3604
S'db.auth_user.id>0'
p3605
asbasbasbag57
(g73
g59
NtRp3606
(dp3607
g62
(dp3608
sg71
g3160
sg64
(lp3609
g57
(g78
g59
NtRp3610
(dp3611
g62
(dp3612
g82
g83
ssg71
g3606
sg64
(lp3613
S'owner'
p3614
asbag57
(g78
g59
NtRp3615
(dp3616
g62
(dp3617
g89
g90
ssg71
g3606
sg64
(lp3618
S':'
asbag57
(g78
g59
NtRp3619
(dp3620
g62
(dp3621
sg71
g3606
sg64
(lp3622
g57
(g58
g59
NtRp3623
(dp3624
g62
(dp3625
g70
I5
ssg71
g3619
sg64
(lp3626
S'You Folks'
p3627
asbasbasbag57
(g73
g59
NtRp3628
(dp3629
g62
(dp3630
sg71
g3160
sg64
(lp3631
g57
(g78
g59
NtRp3632
(dp3633
g62
(dp3634
g82
g83
ssg71
g3628
sg64
(lp3635
S'title'
p3636
asbag57
(g78
g59
NtRp3637
(dp3638
g62
(dp3639
g89
g90
ssg71
g3628
sg64
(lp3640
S':'
asbag57
(g78
g59
NtRp3641
(dp3642
g62
(dp3643
sg71
g3628
sg64
(lp3644
g57
(g58
g59
NtRp3645
(dp3646
g62
(dp3647
g70
I5
ssg71
g3641
sg64
(lp3648
S'Mashed Rutabaga'
p3649
asbasbasbasbasbsS'etype'
p3650
S"<type 'exceptions.AttributeError'>"
p3651
sS'date'
p3652
S'Tue Nov 27 19:49:39 2012'
p3653
sS'response'
p3654
g57
(g58
g59
NtRp3655
(dp3656
g62
(dp3657
sg64
(lp3658
g57
(g66
g59
NtRp3659
(dp3660
g62
(dp3661
g70
I5
ssg71
Nsg64
(lp3662
g57
(g73
g59
NtRp3663
(dp3664
g62
(dp3665
sg71
g3659
sg64
(lp3666
g57
(g78
g59
NtRp3667
(dp3668
g62
(dp3669
g82
g83
ssg71
g3663
sg64
(lp3670
g168
asbag57
(g78
g59
NtRp3671
(dp3672
g62
(dp3673
g89
g90
ssg71
g3663
sg64
(lp3674
S':'
asbag57
(g78
g59
NtRp3675
(dp3676
g62
(dp3677
sg71
g3663
sg64
(lp3678
g57
(g58
g59
NtRp3679
(dp3680
g62
(dp3681
g70
I5
ssg71
g3675
sg64
(lp3682
S'<cStringIO.StringO object at 0x019FA7C0>'
p3683
asbasbasbag57
(g73
g59
NtRp3684
(dp3685
g62
(dp3686
sg71
g3659
sg64
(lp3687
g57
(g78
g59
NtRp3688
(dp3689
g62
(dp3690
g82
g83
ssg71
g3684
sg64
(lp3691
g256
asbag57
(g78
g59
NtRp3692
(dp3693
g62
(dp3694
g89
g90
ssg71
g3684
sg64
(lp3695
S':'
asbag57
(g78
g59
NtRp3696
(dp3697
g62
(dp3698
sg71
g3684
sg64
(lp3699
g57
(g58
g59
NtRp3700
(dp3701
g62
(dp3702
g70
I5
ssg71
g3696
sg64
(lp3703
g57
(g66
g59
NtRp3704
(dp3705
g62
(dp3706
g70
I4
ssg71
Nsg64
(lp3707
g57
(g73
g59
NtRp3708
(dp3709
g62
(dp3710
sg71
g3704
sg64
(lp3711
g57
(g78
g59
NtRp3712
(dp3713
g62
(dp3714
g82
g83
ssg71
g3708
sg64
(lp3715
S'session_id_qsuntastebudsv2'
p3716
asbag57
(g78
g59
NtRp3717
(dp3718
g62
(dp3719
g89
g90
ssg71
g3708
sg64
(lp3720
S':'
asbag57
(g78
g59
NtRp3721
(dp3722
g62
(dp3723
sg71
g3708
sg64
(lp3724
g57
(g58
g59
NtRp3725
(dp3726
g62
(dp3727
g70
I4
ssg71
g3721
sg64
(lp3728
g488
ag57
(g66
g59
NtRp3729
(dp3730
g62
(dp3731
g70
I3
ssg71
Nsg64
(lp3732
g57
(g73
g59
NtRp3733
(dp3734
g62
(dp3735
sg71
g3729
sg64
(lp3736
g57
(g78
g59
NtRp3737
(dp3738
g62
(dp3739
g82
g83
ssg71
g3733
sg64
(lp3740
g307
asbag57
(g78
g59
NtRp3741
(dp3742
g62
(dp3743
g89
g90
ssg71
g3733
sg64
(lp3744
S':'
asbag57
(g78
g59
NtRp3745
(dp3746
g62
(dp3747
sg71
g3733
sg64
(lp3748
g57
(g58
g59
NtRp3749
(dp3750
g62
(dp3751
g70
I3
ssg71
g3745
sg64
(lp3752
S''
asbasbasbag57
(g73
g59
NtRp3753
(dp3754
g62
(dp3755
sg71
g3729
sg64
(lp3756
g57
(g78
g59
NtRp3757
(dp3758
g62
(dp3759
g82
g83
ssg71
g3753
sg64
(lp3760
g328
asbag57
(g78
g59
NtRp3761
(dp3762
g62
(dp3763
g89
g90
ssg71
g3753
sg64
(lp3764
S':'
asbag57
(g78
g59
NtRp3765
(dp3766
g62
(dp3767
sg71
g3753
sg64
(lp3768
g57
(g58
g59
NtRp3769
(dp3770
g62
(dp3771
g70
I3
ssg71
g3765
sg64
(lp3772
S''
asbasbasbag57
(g73
g59
NtRp3773
(dp3774
g62
(dp3775
sg71
g3729
sg64
(lp3776
g57
(g78
g59
NtRp3777
(dp3778
g62
(dp3779
g82
g83
ssg71
g3773
sg64
(lp3780
g349
asbag57
(g78
g59
NtRp3781
(dp3782
g62
(dp3783
g89
g90
ssg71
g3773
sg64
(lp3784
S':'
asbag57
(g78
g59
NtRp3785
(dp3786
g62
(dp3787
sg71
g3773
sg64
(lp3788
g57
(g58
g59
NtRp3789
(dp3790
g62
(dp3791
g70
I3
ssg71
g3785
sg64
(lp3792
S''
asbasbasbag57
(g73
g59
NtRp3793
(dp3794
g62
(dp3795
sg71
g3729
sg64
(lp3796
g57
(g78
g59
NtRp3797
(dp3798
g62
(dp3799
g82
g83
ssg71
g3793
sg64
(lp3800
g370
asbag57
(g78
g59
NtRp3801
(dp3802
g62
(dp3803
g89
g90
ssg71
g3793
sg64
(lp3804
S':'
asbag57
(g78
g59
NtRp3805
(dp3806
g62
(dp3807
sg71
g3793
sg64
(lp3808
g57
(g58
g59
NtRp3809
(dp3810
g62
(dp3811
g70
I3
ssg71
g3805
sg64
(lp3812
S''
asbasbasbag57
(g73
g59
NtRp3813
(dp3814
g62
(dp3815
sg71
g3729
sg64
(lp3816
g57
(g78
g59
NtRp3817
(dp3818
g62
(dp3819
g82
g83
ssg71
g3813
sg64
(lp3820
g391
asbag57
(g78
g59
NtRp3821
(dp3822
g62
(dp3823
g89
g90
ssg71
g3813
sg64
(lp3824
S':'
asbag57
(g78
g59
NtRp3825
(dp3826
g62
(dp3827
sg71
g3813
sg64
(lp3828
g57
(g58
g59
NtRp3829
(dp3830
g62
(dp3831
g70
I3
ssg71
g3825
sg64
(lp3832
S''
asbasbasbag57
(g73
g59
NtRp3833
(dp3834
g62
(dp3835
sg71
g3729
sg64
(lp3836
g57
(g78
g59
NtRp3837
(dp3838
g62
(dp3839
g82
g83
ssg71
g3833
sg64
(lp3840
g412
asbag57
(g78
g59
NtRp3841
(dp3842
g62
(dp3843
g89
g90
ssg71
g3833
sg64
(lp3844
S':'
asbag57
(g78
g59
NtRp3845
(dp3846
g62
(dp3847
sg71
g3833
sg64
(lp3848
g57
(g58
g59
NtRp3849
(dp3850
g62
(dp3851
g70
I3
ssg71
g3845
sg64
(lp3852
S'/'
asbasbasbag57
(g73
g59
NtRp3853
(dp3854
g62
(dp3855
sg71
g3729
sg64
(lp3856
g57
(g78
g59
NtRp3857
(dp3858
g62
(dp3859
g82
g83
ssg71
g3853
sg64
(lp3860
g433
asbag57
(g78
g59
NtRp3861
(dp3862
g62
(dp3863
g89
g90
ssg71
g3853
sg64
(lp3864
S':'
asbag57
(g78
g59
NtRp3865
(dp3866
g62
(dp3867
sg71
g3853
sg64
(lp3868
g57
(g58
g59
NtRp3869
(dp3870
g62
(dp3871
g70
I3
ssg71
g3865
sg64
(lp3872
S''
asbasbasbag57
(g73
g59
NtRp3873
(dp3874
g62
(dp3875
sg71
g3729
sg64
(lp3876
g57
(g78
g59
NtRp3877
(dp3878
g62
(dp3879
g82
g83
ssg71
g3873
sg64
(lp3880
g454
asbag57
(g78
g59
NtRp3881
(dp3882
g62
(dp3883
g89
g90
ssg71
g3873
sg64
(lp3884
S':'
asbag57
(g78
g59
NtRp3885
(dp3886
g62
(dp3887
sg71
g3873
sg64
(lp3888
g57
(g58
g59
NtRp3889
(dp3890
g62
(dp3891
g70
I3
ssg71
g3885
sg64
(lp3892
S''
asbasbasbasbasbasbasbasbasbasbasbag57
(g73
g59
NtRp3893
(dp3894
g62
(dp3895
sg71
g3659
sg64
(lp3896
g57
(g78
g59
NtRp3897
(dp3898
g62
(dp3899
g82
g83
ssg71
g3893
sg64
(lp3900
S'delimiters'
p3901
asbag57
(g78
g59
NtRp3902
(dp3903
g62
(dp3904
g89
g90
ssg71
g3893
sg64
(lp3905
S':'
asbag57
(g78
g59
NtRp3906
(dp3907
g62
(dp3908
sg71
g3893
sg64
(lp3909
g57
(g58
g59
NtRp3910
(dp3911
g62
(dp3912
g70
I5
ssg71
g3906
sg64
(lp3913
g57
(g66
g59
NtRp3914
(dp3915
g62
(dp3916
g70
I4
ssg71
Nsg64
(lp3917
g57
(g73
g59
NtRp3918
(dp3919
g62
(dp3920
sg71
g3914
sg64
(lp3921
g57
(g78
g59
NtRp3922
(dp3923
g62
(dp3924
sg71
g3918
sg64
(lp3925
g57
(g58
g59
NtRp3926
(dp3927
g62
(dp3928
g70
I4
ssg71
g3922
sg64
(lp3929
S'{{'
p3930
asbasbasbag57
(g73
g59
NtRp3931
(dp3932
g62
(dp3933
sg71
g3914
sg64
(lp3934
g57
(g78
g59
NtRp3935
(dp3936
g62
(dp3937
sg71
g3931
sg64
(lp3938
g57
(g58
g59
NtRp3939
(dp3940
g62
(dp3941
g70
I4
ssg71
g3935
sg64
(lp3942
S'}}'
p3943
asbasbasbasbasbasbasbag57
(g73
g59
NtRp3944
(dp3945
g62
(dp3946
sg71
g3659
sg64
(lp3947
g57
(g78
g59
NtRp3948
(dp3949
g62
(dp3950
g82
g83
ssg71
g3944
sg64
(lp3951
S'files'
p3952
asbag57
(g78
g59
NtRp3953
(dp3954
g62
(dp3955
g89
g90
ssg71
g3944
sg64
(lp3956
S':'
asbag57
(g78
g59
NtRp3957
(dp3958
g62
(dp3959
sg71
g3944
sg64
(lp3960
g57
(g58
g59
NtRp3961
(dp3962
g62
(dp3963
g70
I5
ssg71
g3957
sg64
(lp3964
g57
(g66
g59
NtRp3965
(dp3966
g62
(dp3967
g70
I4
ssg71
Nsg64
(lp3968
sbasbasbasbag57
(g73
g59
NtRp3969
(dp3970
g62
(dp3971
sg71
g3659
sg64
(lp3972
g57
(g78
g59
NtRp3973
(dp3974
g62
(dp3975
g82
g83
ssg71
g3969
sg64
(lp3976
S'flash'
p3977
asbag57
(g78
g59
NtRp3978
(dp3979
g62
(dp3980
g89
g90
ssg71
g3969
sg64
(lp3981
S':'
asbag57
(g78
g59
NtRp3982
(dp3983
g62
(dp3984
sg71
g3969
sg64
(lp3985
g57
(g58
g59
NtRp3986
(dp3987
g62
(dp3988
g70
I5
ssg71
g3982
sg64
(lp3989
S''
asbasbasbag57
(g73
g59
NtRp3990
(dp3991
g62
(dp3992
sg71
g3659
sg64
(lp3993
g57
(g78
g59
NtRp3994
(dp3995
g62
(dp3996
g82
g83
ssg71
g3990
sg64
(lp3997
S'generic_patterns'
p3998
asbag57
(g78
g59
NtRp3999
(dp4000
g62
(dp4001
g89
g90
ssg71
g3990
sg64
(lp4002
S':'
asbag57
(g78
g59
NtRp4003
(dp4004
g62
(dp4005
sg71
g3990
sg64
(lp4006
g57
(g58
g59
NtRp4007
(dp4008
g62
(dp4009
g70
I5
ssg71
g4003
sg64
(lp4010
g57
(g66
g59
NtRp4011
(dp4012
g62
(dp4013
g70
I4
ssg71
Nsg64
(lp4014
g57
(g73
g59
NtRp4015
(dp4016
g62
(dp4017
sg71
g4011
sg64
(lp4018
g57
(g78
g59
NtRp4019
(dp4020
g62
(dp4021
sg71
g4015
sg64
(lp4022
g57
(g58
g59
NtRp4023
(dp4024
g62
(dp4025
g70
I4
ssg71
g4019
sg64
(lp4026
S'*'
asbasbasbasbasbasbasbag57
(g73
g59
NtRp4027
(dp4028
g62
(dp4029
sg71
g3659
sg64
(lp4030
g57
(g78
g59
NtRp4031
(dp4032
g62
(dp4033
g82
g83
ssg71
g4027
sg64
(lp4034
S'google_analytics_id'
p4035
asbag57
(g78
g59
NtRp4036
(dp4037
g62
(dp4038
g89
g90
ssg71
g4027
sg64
(lp4039
S':'
asbag57
(g78
g59
NtRp4040
(dp4041
g62
(dp4042
sg71
g4027
sg64
(lp4043
g57
(g58
g59
NtRp4044
(dp4045
g62
(dp4046
g70
I5
ssg71
g4040
sg64
(lp4047
S'None'
p4048
asbasbasbag57
(g73
g59
NtRp4049
(dp4050
g62
(dp4051
sg71
g3659
sg64
(lp4052
g57
(g78
g59
NtRp4053
(dp4054
g62
(dp4055
g82
g83
ssg71
g4049
sg64
(lp4056
S'headers'
p4057
asbag57
(g78
g59
NtRp4058
(dp4059
g62
(dp4060
g89
g90
ssg71
g4049
sg64
(lp4061
S':'
asbag57
(g78
g59
NtRp4062
(dp4063
g62
(dp4064
sg71
g4049
sg64
(lp4065
g57
(g58
g59
NtRp4066
(dp4067
g62
(dp4068
g70
I5
ssg71
g4062
sg64
(lp4069
g57
(g66
g59
NtRp4070
(dp4071
g62
(dp4072
g70
I4
ssg71
Nsg64
(lp4073
g57
(g73
g59
NtRp4074
(dp4075
g62
(dp4076
sg71
g4070
sg64
(lp4077
g57
(g78
g59
NtRp4078
(dp4079
g62
(dp4080
g82
g83
ssg71
g4074
sg64
(lp4081
S'X-Powered-By'
p4082
asbag57
(g78
g59
NtRp4083
(dp4084
g62
(dp4085
g89
g90
ssg71
g4074
sg64
(lp4086
S':'
asbag57
(g78
g59
NtRp4087
(dp4088
g62
(dp4089
sg71
g4074
sg64
(lp4090
g57
(g58
g59
NtRp4091
(dp4092
g62
(dp4093
g70
I4
ssg71
g4087
sg64
(lp4094
S'web2py'
p4095
asbasbasbasbasbasbasbag57
(g73
g59
NtRp4096
(dp4097
g62
(dp4098
sg71
g3659
sg64
(lp4099
g57
(g78
g59
NtRp4100
(dp4101
g62
(dp4102
g82
g83
ssg71
g4096
sg64
(lp4103
S'menu'
p4104
asbag57
(g78
g59
NtRp4105
(dp4106
g62
(dp4107
g89
g90
ssg71
g4096
sg64
(lp4108
S':'
asbag57
(g78
g59
NtRp4109
(dp4110
g62
(dp4111
sg71
g4096
sg64
(lp4112
g57
(g58
g59
NtRp4113
(dp4114
g62
(dp4115
g70
I5
ssg71
g4109
sg64
(lp4116
g57
(g66
g59
NtRp4117
(dp4118
g62
(dp4119
g70
I4
ssg71
Nsg64
(lp4120
g57
(g73
g59
NtRp4121
(dp4122
g62
(dp4123
sg71
g4117
sg64
(lp4124
g57
(g78
g59
NtRp4125
(dp4126
g62
(dp4127
sg71
g4121
sg64
(lp4128
g57
(g58
g59
NtRp4129
(dp4130
g62
(dp4131
g70
I4
ssg71
g4125
sg64
(lp4132
g57
(g66
g59
NtRp4133
(dp4134
g62
(dp4135
g70
I3
ssg71
Nsg64
(lp4136
g57
(g73
g59
NtRp4137
(dp4138
g62
(dp4139
sg71
g4133
sg64
(lp4140
g57
(g78
g59
NtRp4141
(dp4142
g62
(dp4143
sg71
g4137
sg64
(lp4144
g57
(g58
g59
NtRp4145
(dp4146
g62
(dp4147
g70
I3
ssg71
g4141
sg64
(lp4148
cgluon.languages
lazyT_unpickle
p4149
(S't\x04\x00\x00\x00Home'
tRp4150
asbasbasbag57
(g73
g59
NtRp4151
(dp4152
g62
(dp4153
sg71
g4133
sg64
(lp4154
g57
(g78
g59
NtRp4155
(dp4156
g62
(dp4157
sg71
g4151
sg64
(lp4158
g57
(g58
g59
NtRp4159
(dp4160
g62
(dp4161
g70
I3
ssg71
g4155
sg64
(lp4162
g100
asbasbasbag57
(g73
g59
NtRp4163
(dp4164
g62
(dp4165
sg71
g4133
sg64
(lp4166
g57
(g78
g59
NtRp4167
(dp4168
g62
(dp4169
sg71
g4163
sg64
(lp4170
g57
(g58
g59
NtRp4171
(dp4172
g62
(dp4173
g70
I3
ssg71
g4167
sg64
(lp4174
S'/QSunTasteBudsV2/default/index'
p4175
asbasbasbag57
(g73
g59
NtRp4176
(dp4177
g62
(dp4178
sg71
g4133
sg64
(lp4179
g57
(g78
g59
NtRp4180
(dp4181
g62
(dp4182
sg71
g4176
sg64
(lp4183
g57
(g58
g59
NtRp4184
(dp4185
g62
(dp4186
g70
I3
ssg71
g4180
sg64
(lp4187
g57
(g66
g59
NtRp4188
(dp4189
g62
(dp4190
g70
I2
ssg71
Nsg64
(lp4191
sbasbasbasbasbasbasbasbag57
(g73
g59
NtRp4192
(dp4193
g62
(dp4194
sg71
g4117
sg64
(lp4195
g57
(g78
g59
NtRp4196
(dp4197
g62
(dp4198
sg71
g4192
sg64
(lp4199
g57
(g58
g59
NtRp4200
(dp4201
g62
(dp4202
g70
I4
ssg71
g4196
sg64
(lp4203
g57
(g66
g59
NtRp4204
(dp4205
g62
(dp4206
g70
I3
ssg71
Nsg64
(lp4207
g57
(g73
g59
NtRp4208
(dp4209
g62
(dp4210
sg71
g4204
sg64
(lp4211
g57
(g78
g59
NtRp4212
(dp4213
g62
(dp4214
sg71
g4208
sg64
(lp4215
g57
(g58
g59
NtRp4216
(dp4217
g62
(dp4218
g70
I3
ssg71
g4212
sg64
(lp4219
g57
(cgluon.html
SPAN
p4220
g59
NtRp4221
(dp4222
g62
(dp4223
g82
S'color:yellow'
p4224
ssg71
Nsg64
(lp4225
g4095
asbasbasbasbag57
(g73
g59
NtRp4226
(dp4227
g62
(dp4228
sg71
g4204
sg64
(lp4229
g57
(g78
g59
NtRp4230
(dp4231
g62
(dp4232
sg71
g4226
sg64
(lp4233
g57
(g58
g59
NtRp4234
(dp4235
g62
(dp4236
g70
I3
ssg71
g4230
sg64
(lp4237
g100
asbasbasbag57
(g73
g59
NtRp4238
(dp4239
g62
(dp4240
sg71
g4204
sg64
(lp4241
g57
(g78
g59
NtRp4242
(dp4243
g62
(dp4244
sg71
g4238
sg64
(lp4245
g57
(g58
g59
NtRp4246
(dp4247
g62
(dp4248
g70
I3
ssg71
g4242
sg64
(lp4249
S'http://web2py.com'
p4250
asbasbasbag57
(g73
g59
NtRp4251
(dp4252
g62
(dp4253
sg71
g4204
sg64
(lp4254
g57
(g78
g59
NtRp4255
(dp4256
g62
(dp4257
sg71
g4251
sg64
(lp4258
g57
(g58
g59
NtRp4259
(dp4260
g62
(dp4261
g70
I3
ssg71
g4255
sg64
(lp4262
g57
(g66
g59
NtRp4263
(dp4264
g62
(dp4265
g70
I2
ssg71
Nsg64
(lp4266
g57
(g73
g59
NtRp4267
(dp4268
g62
(dp4269
sg71
g4263
sg64
(lp4270
g57
(g78
g59
NtRp4271
(dp4272
g62
(dp4273
sg71
g4267
sg64
(lp4274
g57
(g58
g59
NtRp4275
(dp4276
g62
(dp4277
g70
I2
ssg71
g4271
sg64
(lp4278
g57
(g66
g59
NtRp4279
(dp4280
g62
(dp4281
g70
I1
ssg71
Nsg64
(lp4282
g57
(g73
g59
NtRp4283
(dp4284
g62
(dp4285
sg71
g4279
sg64
(lp4286
g57
(g78
g59
NtRp4287
(dp4288
g62
(dp4289
sg71
g4283
sg64
(lp4290
g57
(g58
g59
NtRp4291
(dp4292
g62
(dp4293
g70
I1
ssg71
g4287
sg64
(lp4294
g4149
(S's\x08\x00\x00\x00My Sites'
tRp4295
asbasbasbag57
(g73
g59
NtRp4296
(dp4297
g62
(dp4298
sg71
g4279
sg64
(lp4299
g57
(g78
g59
NtRp4300
(dp4301
g62
(dp4302
sg71
g4296
sg64
(lp4303
g57
(g58
g59
NtRp4304
(dp4305
g62
(dp4306
g70
I1
ssg71
g4300
sg64
(lp4307
I00
asbasbasbag57
(g73
g59
NtRp4308
(dp4309
g62
(dp4310
sg71
g4279
sg64
(lp4311
g57
(g78
g59
NtRp4312
(dp4313
g62
(dp4314
sg71
g4308
sg64
(lp4315
g57
(g58
g59
NtRp4316
(dp4317
g62
(dp4318
g70
I1
ssg71
g4312
sg64
(lp4319
S'/admin/default/site'
p4320
asbasbasbasbasbasbasbag57
(g73
g59
NtRp4321
(dp4322
g62
(dp4323
sg71
g4263
sg64
(lp4324
g57
(g78
g59
NtRp4325
(dp4326
g62
(dp4327
sg71
g4321
sg64
(lp4328
g57
(g58
g59
NtRp4329
(dp4330
g62
(dp4331
g70
I2
ssg71
g4325
sg64
(lp4332
g57
(g66
g59
NtRp4333
(dp4334
g62
(dp4335
g70
I1
ssg71
Nsg64
(lp4336
g57
(g73
g59
NtRp4337
(dp4338
g62
(dp4339
sg71
g4333
sg64
(lp4340
g57
(g78
g59
NtRp4341
(dp4342
g62
(dp4343
sg71
g4337
sg64
(lp4344
g57
(g58
g59
NtRp4345
(dp4346
g62
(dp4347
g70
I1
ssg71
g4341
sg64
(lp4348
g4149
(S's\x08\x00\x00\x00This App'
tRp4349
asbasbasbag57
(g73
g59
NtRp4350
(dp4351
g62
(dp4352
sg71
g4333
sg64
(lp4353
g57
(g78
g59
NtRp4354
(dp4355
g62
(dp4356
sg71
g4350
sg64
(lp4357
g57
(g58
g59
NtRp4358
(dp4359
g62
(dp4360
g70
I1
ssg71
g4354
sg64
(lp4361
I00
asbasbasbag57
(g73
g59
NtRp4362
(dp4363
g62
(dp4364
sg71
g4333
sg64
(lp4365
g57
(g78
g59
NtRp4366
(dp4367
g62
(dp4368
sg71
g4362
sg64
(lp4369
g57
(g58
g59
NtRp4370
(dp4371
g62
(dp4372
g70
I1
ssg71
g4366
sg64
(lp4373
S'/admin/default/design/QSunTasteBudsV2'
p4374
asbasbasbag57
(g73
g59
NtRp4375
(dp4376
g62
(dp4377
sg71
g4333
sg64
(lp4378
g57
(g78
g59
NtRp4379
(dp4380
g62
(dp4381
sg71
g4375
sg64
(lp4382
g57
(g58
g59
NtRp4383
(dp4384
g62
(dp4385
g70
I1
ssg71
g4379
sg64
(lp4386
(lp4387
(g4149
(S't\n\x00\x00\x00Controller'
tRp4388
I00
S'/admin/default/edit/QSunTasteBudsV2/controllers/default.py'
tp4389
a(g4149
(S't\x04\x00\x00\x00View'
tRp4390
I00
S'/admin/default/edit/QSunTasteBudsV2/views/default/readRecipe.html'
tp4391
a(g4149
(S't\x06\x00\x00\x00Layout'
tRp4392
I00
S'/admin/default/edit/QSunTasteBudsV2/views/layout.html'
tp4393
a(g4149
(S't\n\x00\x00\x00Stylesheet'
tRp4394
I00
S'/admin/default/edit/QSunTasteBudsV2/static/css/web2py.css'
tp4395
a(g4149
(S's\x08\x00\x00\x00DB Model'
tRp4396
I00
S'/admin/default/edit/QSunTasteBudsV2/models/db.py'
tp4397
a(g4149
(S's\n\x00\x00\x00Menu Model'
tRp4398
I00
S'/admin/default/edit/QSunTasteBudsV2/models/menu.py'
tp4399
a(g4149
(S't\x08\x00\x00\x00Database'
tRp4400
I00
S'/QSunTasteBudsV2/appadmin/index'
tp4401
a(g4149
(S't\x06\x00\x00\x00Errors'
tRp4402
I00
S'/admin/default/errors/QSunTasteBudsV2'
tp4403
a(g4149
(S't\x05\x00\x00\x00About'
tRp4404
I00
S'/admin/default/about/QSunTasteBudsV2'
tp4405
aasbasbasbasbasbasbasbag57
(g73
g59
NtRp4406
(dp4407
g62
(dp4408
sg71
g4263
sg64
(lp4409
g57
(g78
g59
NtRp4410
(dp4411
g62
(dp4412
sg71
g4406
sg64
(lp4413
g57
(g58
g59
NtRp4414
(dp4415
g62
(dp4416
g70
I2
ssg71
g4410
sg64
(lp4417
g57
(g66
g59
NtRp4418
(dp4419
g62
(dp4420
g70
I1
ssg71
Nsg64
(lp4421
g57
(g73
g59
NtRp4422
(dp4423
g62
(dp4424
sg71
g4418
sg64
(lp4425
g57
(g78
g59
NtRp4426
(dp4427
g62
(dp4428
sg71
g4422
sg64
(lp4429
g57
(g58
g59
NtRp4430
(dp4431
g62
(dp4432
g70
I1
ssg71
g4426
sg64
(lp4433
S'web2py.com'
p4434
asbasbasbag57
(g73
g59
NtRp4435
(dp4436
g62
(dp4437
sg71
g4418
sg64
(lp4438
g57
(g78
g59
NtRp4439
(dp4440
g62
(dp4441
sg71
g4435
sg64
(lp4442
g57
(g58
g59
NtRp4443
(dp4444
g62
(dp4445
g70
I1
ssg71
g4439
sg64
(lp4446
I00
asbasbasbag57
(g73
g59
NtRp4447
(dp4448
g62
(dp4449
sg71
g4418
sg64
(lp4450
g57
(g78
g59
NtRp4451
(dp4452
g62
(dp4453
sg71
g4447
sg64
(lp4454
g57
(g58
g59
NtRp4455
(dp4456
g62
(dp4457
g70
I1
ssg71
g4451
sg64
(lp4458
S'http://www.web2py.com'
p4459
asbasbasbag57
(g73
g59
NtRp4460
(dp4461
g62
(dp4462
sg71
g4418
sg64
(lp4463
g57
(g78
g59
NtRp4464
(dp4465
g62
(dp4466
sg71
g4460
sg64
(lp4467
g57
(g58
g59
NtRp4468
(dp4469
g62
(dp4470
g70
I1
ssg71
g4464
sg64
(lp4471
(lp4472
(g4149
(S't\x08\x00\x00\x00Download'
tRp4473
I00
S'http://www.web2py.com/examples/default/download'
p4474
tp4475
a(g4149
(S't\x07\x00\x00\x00Support'
tRp4476
I00
S'http://www.web2py.com/examples/default/support'
p4477
tp4478
a(g4149
(S't\x04\x00\x00\x00Demo'
tRp4479
I00
S'http://web2py.com/demo_admin'
p4480
tp4481
a(g4149
(S's\x0e\x00\x00\x00Quick Examples'
tRp4482
I00
S'http://web2py.com/examples/default/examples'
p4483
tp4484
a(g4149
(S't\x03\x00\x00\x00FAQ'
tRp4485
I00
S'http://web2py.com/AlterEgo'
p4486
tp4487
a(g4149
(S't\x06\x00\x00\x00Videos'
tRp4488
I00
S'http://www.web2py.com/examples/default/videos/'
p4489
tp4490
a(g4149
(S's\x11\x00\x00\x00Free Applications'
tRp4491
I00
S'http://web2py.com/appliances'
p4492
tp4493
a(g4149
(S't\x07\x00\x00\x00Plugins'
tRp4494
I00
S'http://web2py.com/plugins'
p4495
tp4496
a(g4149
(S't\x07\x00\x00\x00Layouts'
tRp4497
I00
S'http://web2py.com/layouts'
p4498
tp4499
a(g4149
(S't\x07\x00\x00\x00Recipes'
tRp4500
I00
S'http://web2pyslices.com/'
p4501
tp4502
a(g4149
(S't\x08\x00\x00\x00Semantic'
tRp4503
I00
S'http://web2py.com/semantic'
p4504
tp4505
aasbasbasbasbasbasbasbag57
(g73
g59
NtRp4506
(dp4507
g62
(dp4508
sg71
g4263
sg64
(lp4509
g57
(g78
g59
NtRp4510
(dp4511
g62
(dp4512
sg71
g4506
sg64
(lp4513
g57
(g58
g59
NtRp4514
(dp4515
g62
(dp4516
g70
I2
ssg71
g4510
sg64
(lp4517
g57
(g66
g59
NtRp4518
(dp4519
g62
(dp4520
g70
I1
ssg71
Nsg64
(lp4521
g57
(g73
g59
NtRp4522
(dp4523
g62
(dp4524
sg71
g4518
sg64
(lp4525
g57
(g78
g59
NtRp4526
(dp4527
g62
(dp4528
sg71
g4522
sg64
(lp4529
g57
(g58
g59
NtRp4530
(dp4531
g62
(dp4532
g70
I1
ssg71
g4526
sg64
(lp4533
g4149
(S't\r\x00\x00\x00Documentation'
tRp4534
asbasbasbag57
(g73
g59
NtRp4535
(dp4536
g62
(dp4537
sg71
g4518
sg64
(lp4538
g57
(g78
g59
NtRp4539
(dp4540
g62
(dp4541
sg71
g4535
sg64
(lp4542
g57
(g58
g59
NtRp4543
(dp4544
g62
(dp4545
g70
I1
ssg71
g4539
sg64
(lp4546
I00
asbasbasbag57
(g73
g59
NtRp4547
(dp4548
g62
(dp4549
sg71
g4518
sg64
(lp4550
g57
(g78
g59
NtRp4551
(dp4552
g62
(dp4553
sg71
g4547
sg64
(lp4554
g57
(g58
g59
NtRp4555
(dp4556
g62
(dp4557
g70
I1
ssg71
g4551
sg64
(lp4558
S'http://www.web2py.com/book'
p4559
asbasbasbag57
(g73
g59
NtRp4560
(dp4561
g62
(dp4562
sg71
g4518
sg64
(lp4563
g57
(g78
g59
NtRp4564
(dp4565
g62
(dp4566
sg71
g4560
sg64
(lp4567
g57
(g58
g59
NtRp4568
(dp4569
g62
(dp4570
g70
I1
ssg71
g4564
sg64
(lp4571
(lp4572
(g4149
(S't\x07\x00\x00\x00Preface'
tRp4573
I00
S'http://www.web2py.com/book/default/chapter/00'
p4574
tp4575
a(g4149
(S't\x0c\x00\x00\x00Introduction'
tRp4576
I00
S'http://www.web2py.com/book/default/chapter/01'
p4577
tp4578
a(g4149
(S't\x06\x00\x00\x00Python'
tRp4579
I00
S'http://www.web2py.com/book/default/chapter/02'
p4580
tp4581
a(g4149
(S't\x08\x00\x00\x00Overview'
tRp4582
I00
S'http://www.web2py.com/book/default/chapter/03'
p4583
tp4584
a(g4149
(S's\x08\x00\x00\x00The Core'
tRp4585
I00
S'http://www.web2py.com/book/default/chapter/04'
p4586
tp4587
a(g4149
(S's\t\x00\x00\x00The Views'
tRp4588
I00
S'http://www.web2py.com/book/default/chapter/05'
p4589
tp4590
a(g4149
(S't\x08\x00\x00\x00Database'
tRp4591
I00
S'http://www.web2py.com/book/default/chapter/06'
p4592
tp4593
a(g4149
(S's\x14\x00\x00\x00Forms and Validators'
tRp4594
I00
S'http://www.web2py.com/book/default/chapter/07'
p4595
tp4596
a(g4149
(S's\r\x00\x00\x00Email and SMS'
tRp4597
I00
S'http://www.web2py.com/book/default/chapter/08'
p4598
tp4599
a(g4149
(S's\x0e\x00\x00\x00Access Control'
tRp4600
I00
S'http://www.web2py.com/book/default/chapter/09'
p4601
tp4602
a(g4149
(S't\x08\x00\x00\x00Services'
tRp4603
I00
S'http://www.web2py.com/book/default/chapter/10'
p4604
tp4605
a(g4149
(S's\x0c\x00\x00\x00Ajax Recipes'
tRp4606
I00
S'http://www.web2py.com/book/default/chapter/11'
p4607
tp4608
a(g4149
(S's\x16\x00\x00\x00Components and Plugins'
tRp4609
I00
S'http://www.web2py.com/book/default/chapter/12'
p4610
tp4611
a(g4149
(S's\x12\x00\x00\x00Deployment Recipes'
tRp4612
I00
S'http://www.web2py.com/book/default/chapter/13'
p4613
tp4614
a(g4149
(S's\r\x00\x00\x00Other Recipes'
tRp4615
I00
S'http://www.web2py.com/book/default/chapter/14'
p4616
tp4617
a(g4149
(S's\r\x00\x00\x00Buy this book'
tRp4618
I00
S'http://stores.lulu.com/web2py'
p4619
tp4620
aasbasbasbasbasbasbasbag57
(g73
g59
NtRp4621
(dp4622
g62
(dp4623
sg71
g4263
sg64
(lp4624
g57
(g78
g59
NtRp4625
(dp4626
g62
(dp4627
sg71
g4621
sg64
(lp4628
g57
(g58
g59
NtRp4629
(dp4630
g62
(dp4631
g70
I2
ssg71
g4625
sg64
(lp4632
g57
(g66
g59
NtRp4633
(dp4634
g62
(dp4635
g70
I1
ssg71
Nsg64
(lp4636
g57
(g73
g59
NtRp4637
(dp4638
g62
(dp4639
sg71
g4633
sg64
(lp4640
g57
(g78
g59
NtRp4641
(dp4642
g62
(dp4643
sg71
g4637
sg64
(lp4644
g57
(g58
g59
NtRp4645
(dp4646
g62
(dp4647
g70
I1
ssg71
g4641
sg64
(lp4648
g4149
(S't\t\x00\x00\x00Community'
tRp4649
asbasbasbag57
(g73
g59
NtRp4650
(dp4651
g62
(dp4652
sg71
g4633
sg64
(lp4653
g57
(g78
g59
NtRp4654
(dp4655
g62
(dp4656
sg71
g4650
sg64
(lp4657
g57
(g58
g59
NtRp4658
(dp4659
g62
(dp4660
g70
I1
ssg71
g4654
sg64
(lp4661
I00
asbasbasbag57
(g73
g59
NtRp4662
(dp4663
g62
(dp4664
sg71
g4633
sg64
(lp4665
g57
(g78
g59
NtRp4666
(dp4667
g62
(dp4668
sg71
g4662
sg64
(lp4669
g57
(g58
g59
NtRp4670
(dp4671
g62
(dp4672
g70
I1
ssg71
g4666
sg64
(lp4673
Nasbasbasbag57
(g73
g59
NtRp4674
(dp4675
g62
(dp4676
sg71
g4633
sg64
(lp4677
g57
(g78
g59
NtRp4678
(dp4679
g62
(dp4680
sg71
g4674
sg64
(lp4681
g57
(g58
g59
NtRp4682
(dp4683
g62
(dp4684
g70
I1
ssg71
g4678
sg64
(lp4685
(lp4686
(g4149
(S't\x06\x00\x00\x00Groups'
tRp4687
I00
S'http://www.web2py.com/examples/default/usergroups'
p4688
tp4689
a(g4149
(S't\x07\x00\x00\x00Twitter'
tRp4690
I00
S'http://twitter.com/web2py'
p4691
tp4692
a(g4149
(S's\t\x00\x00\x00Live Chat'
tRp4693
I00
S'http://webchat.freenode.net/?channels=web2py'
p4694
tp4695
aasbasbasbasbasbasbasbag57
(g73
g59
NtRp4696
(dp4697
g62
(dp4698
sg71
g4263
sg64
(lp4699
g57
(g78
g59
NtRp4700
(dp4701
g62
(dp4702
sg71
g4696
sg64
(lp4703
g57
(g58
g59
NtRp4704
(dp4705
g62
(dp4706
g70
I2
ssg71
g4700
sg64
(lp4707
g57
(g66
g59
NtRp4708
(dp4709
g62
(dp4710
g70
I1
ssg71
Nsg64
(lp4711
g57
(g73
g59
NtRp4712
(dp4713
g62
(dp4714
sg71
g4708
sg64
(lp4715
g57
(g78
g59
NtRp4716
(dp4717
g62
(dp4718
sg71
g4712
sg64
(lp4719
g57
(g58
g59
NtRp4720
(dp4721
g62
(dp4722
g70
I1
ssg71
g4716
sg64
(lp4723
g4149
(S't\x07\x00\x00\x00Plugins'
tRp4724
asbasbasbag57
(g73
g59
NtRp4725
(dp4726
g62
(dp4727
sg71
g4708
sg64
(lp4728
g57
(g78
g59
NtRp4729
(dp4730
g62
(dp4731
sg71
g4725
sg64
(lp4732
g57
(g58
g59
NtRp4733
(dp4734
g62
(dp4735
g70
I1
ssg71
g4729
sg64
(lp4736
I00
asbasbasbag57
(g73
g59
NtRp4737
(dp4738
g62
(dp4739
sg71
g4708
sg64
(lp4740
g57
(g78
g59
NtRp4741
(dp4742
g62
(dp4743
sg71
g4737
sg64
(lp4744
g57
(g58
g59
NtRp4745
(dp4746
g62
(dp4747
g70
I1
ssg71
g4741
sg64
(lp4748
Nasbasbasbag57
(g73
g59
NtRp4749
(dp4750
g62
(dp4751
sg71
g4708
sg64
(lp4752
g57
(g78
g59
NtRp4753
(dp4754
g62
(dp4755
sg71
g4749
sg64
(lp4756
g57
(g58
g59
NtRp4757
(dp4758
g62
(dp4759
g70
I1
ssg71
g4753
sg64
(lp4760
(lp4761
(S'plugin_wiki'
p4762
I00
S'http://web2py.com/examples/default/download'
p4763
tp4764
a(g4149
(S's\r\x00\x00\x00Other Plugins'
tRp4765
I00
g4495
tp4766
a(g4149
(S's\x0e\x00\x00\x00Layout Plugins'
tRp4767
I00
g4498
tp4768
aasbasbasbasbasbasbasbasbasbasbasbasbasbasbasbasbasbasbasbag57
(g73
g59
NtRp4769
(dp4770
g62
(dp4771
sg71
g3659
sg64
(lp4772
g57
(g78
g59
NtRp4773
(dp4774
g62
(dp4775
g82
g83
ssg71
g4769
sg64
(lp4776
S'meta'
p4777
asbag57
(g78
g59
NtRp4778
(dp4779
g62
(dp4780
g89
g90
ssg71
g4769
sg64
(lp4781
S':'
asbag57
(g78
g59
NtRp4782
(dp4783
g62
(dp4784
sg71
g4769
sg64
(lp4785
g57
(g58
g59
NtRp4786
(dp4787
g62
(dp4788
g70
I5
ssg71
g4782
sg64
(lp4789
g57
(g66
g59
NtRp4790
(dp4791
g62
(dp4792
g70
I4
ssg71
Nsg64
(lp4793
g57
(g73
g59
NtRp4794
(dp4795
g62
(dp4796
sg71
g4790
sg64
(lp4797
g57
(g78
g59
NtRp4798
(dp4799
g62
(dp4800
g82
g83
ssg71
g4794
sg64
(lp4801
S'author'
p4802
asbag57
(g78
g59
NtRp4803
(dp4804
g62
(dp4805
g89
g90
ssg71
g4794
sg64
(lp4806
S':'
asbag57
(g78
g59
NtRp4807
(dp4808
g62
(dp4809
sg71
g4794
sg64
(lp4810
g57
(g58
g59
NtRp4811
(dp4812
g62
(dp4813
g70
I4
ssg71
g4807
sg64
(lp4814
S'Your Name <you@example.com>'
p4815
asbasbasbag57
(g73
g59
NtRp4816
(dp4817
g62
(dp4818
sg71
g4790
sg64
(lp4819
g57
(g78
g59
NtRp4820
(dp4821
g62
(dp4822
g82
g83
ssg71
g4816
sg64
(lp4823
S'description'
p4824
asbag57
(g78
g59
NtRp4825
(dp4826
g62
(dp4827
g89
g90
ssg71
g4816
sg64
(lp4828
S':'
asbag57
(g78
g59
NtRp4829
(dp4830
g62
(dp4831
sg71
g4816
sg64
(lp4832
g57
(g58
g59
NtRp4833
(dp4834
g62
(dp4835
g70
I4
ssg71
g4829
sg64
(lp4836
S'a cool new app'
p4837
asbasbasbag57
(g73
g59
NtRp4838
(dp4839
g62
(dp4840
sg71
g4790
sg64
(lp4841
g57
(g78
g59
NtRp4842
(dp4843
g62
(dp4844
g82
g83
ssg71
g4838
sg64
(lp4845
S'generator'
p4846
asbag57
(g78
g59
NtRp4847
(dp4848
g62
(dp4849
g89
g90
ssg71
g4838
sg64
(lp4850
S':'
asbag57
(g78
g59
NtRp4851
(dp4852
g62
(dp4853
sg71
g4838
sg64
(lp4854
g57
(g58
g59
NtRp4855
(dp4856
g62
(dp4857
g70
I4
ssg71
g4851
sg64
(lp4858
S'Web2py Web Framework'
p4859
asbasbasbag57
(g73
g59
NtRp4860
(dp4861
g62
(dp4862
sg71
g4790
sg64
(lp4863
g57
(g78
g59
NtRp4864
(dp4865
g62
(dp4866
g82
g83
ssg71
g4860
sg64
(lp4867
S'keywords'
p4868
asbag57
(g78
g59
NtRp4869
(dp4870
g62
(dp4871
g89
g90
ssg71
g4860
sg64
(lp4872
S':'
asbag57
(g78
g59
NtRp4873
(dp4874
g62
(dp4875
sg71
g4860
sg64
(lp4876
g57
(g58
g59
NtRp4877
(dp4878
g62
(dp4879
g70
I4
ssg71
g4873
sg64
(lp4880
S'web2py, python, framework'
p4881
asbasbasbasbasbasbasbag57
(g73
g59
NtRp4882
(dp4883
g62
(dp4884
sg71
g3659
sg64
(lp4885
g57
(g78
g59
NtRp4886
(dp4887
g62
(dp4888
g82
g83
ssg71
g4882
sg64
(lp4889
S'models_to_run'
p4890
asbag57
(g78
g59
NtRp4891
(dp4892
g62
(dp4893
g89
g90
ssg71
g4882
sg64
(lp4894
S':'
asbag57
(g78
g59
NtRp4895
(dp4896
g62
(dp4897
sg71
g4882
sg64
(lp4898
g57
(g58
g59
NtRp4899
(dp4900
g62
(dp4901
g70
I5
ssg71
g4895
sg64
(lp4902
g57
(g66
g59
NtRp4903
(dp4904
g62
(dp4905
g70
I4
ssg71
Nsg64
(lp4906
g57
(g73
g59
NtRp4907
(dp4908
g62
(dp4909
sg71
g4903
sg64
(lp4910
g57
(g78
g59
NtRp4911
(dp4912
g62
(dp4913
sg71
g4907
sg64
(lp4914
g57
(g58
g59
NtRp4915
(dp4916
g62
(dp4917
g70
I4
ssg71
g4911
sg64
(lp4918
S'^\\w+\\.py$'
p4919
asbasbasbag57
(g73
g59
NtRp4920
(dp4921
g62
(dp4922
sg71
g4903
sg64
(lp4923
g57
(g78
g59
NtRp4924
(dp4925
g62
(dp4926
sg71
g4920
sg64
(lp4927
g57
(g58
g59
NtRp4928
(dp4929
g62
(dp4930
g70
I4
ssg71
g4924
sg64
(lp4931
S'^default/\\w+\\.py$'
p4932
asbasbasbag57
(g73
g59
NtRp4933
(dp4934
g62
(dp4935
sg71
g4903
sg64
(lp4936
g57
(g78
g59
NtRp4937
(dp4938
g62
(dp4939
sg71
g4933
sg64
(lp4940
g57
(g58
g59
NtRp4941
(dp4942
g62
(dp4943
g70
I4
ssg71
g4937
sg64
(lp4944
S'^default/readRecipe/\\w+\\.py$'
p4945
asbasbasbasbasbasbasbag57
(g73
g59
NtRp4946
(dp4947
g62
(dp4948
sg71
g3659
sg64
(lp4949
g57
(g78
g59
NtRp4950
(dp4951
g62
(dp4952
g82
g83
ssg71
g4946
sg64
(lp4953
S'postprocessing'
p4954
asbag57
(g78
g59
NtRp4955
(dp4956
g62
(dp4957
g89
g90
ssg71
g4946
sg64
(lp4958
S':'
asbag57
(g78
g59
NtRp4959
(dp4960
g62
(dp4961
sg71
g4946
sg64
(lp4962
g57
(g58
g59
NtRp4963
(dp4964
g62
(dp4965
g70
I5
ssg71
g4959
sg64
(lp4966
g57
(g66
g59
NtRp4967
(dp4968
g62
(dp4969
g70
I4
ssg71
Nsg64
(lp4970
sbasbasbasbag57
(g73
g59
NtRp4971
(dp4972
g62
(dp4973
sg71
g3659
sg64
(lp4974
g57
(g78
g59
NtRp4975
(dp4976
g62
(dp4977
g82
g83
ssg71
g4971
sg64
(lp4978
S'session_file'
p4979
asbag57
(g78
g59
NtRp4980
(dp4981
g62
(dp4982
g89
g90
ssg71
g4971
sg64
(lp4983
S':'
asbag57
(g78
g59
NtRp4984
(dp4985
g62
(dp4986
sg71
g4971
sg64
(lp4987
g57
(g58
g59
NtRp4988
(dp4989
g62
(dp4990
g70
I5
ssg71
g4984
sg64
(lp4991
S"<open file 'D:\\web2py_win\\web2py\\applications\\QSunTasteBudsV2\\sessions\\127.0.0.1-03c509ec-2cef-426f-a88b-6eb0c079c2a6', mode 'rb+' at 0x04999808>"
p4992
asbasbasbag57
(g73
g59
NtRp4993
(dp4994
g62
(dp4995
sg71
g3659
sg64
(lp4996
g57
(g78
g59
NtRp4997
(dp4998
g62
(dp4999
g82
g83
ssg71
g4993
sg64
(lp5000
S'session_filename'
p5001
asbag57
(g78
g59
NtRp5002
(dp5003
g62
(dp5004
g89
g90
ssg71
g4993
sg64
(lp5005
S':'
asbag57
(g78
g59
NtRp5006
(dp5007
g62
(dp5008
sg71
g4993
sg64
(lp5009
g57
(g58
g59
NtRp5010
(dp5011
g62
(dp5012
g70
I5
ssg71
g5006
sg64
(lp5013
S'D:\\web2py_win\\web2py\\applications\\QSunTasteBudsV2\\sessions\\127.0.0.1-03c509ec-2cef-426f-a88b-6eb0c079c2a6'
p5014
asbasbasbag57
(g73
g59
NtRp5015
(dp5016
g62
(dp5017
sg71
g3659
sg64
(lp5018
g57
(g78
g59
NtRp5019
(dp5020
g62
(dp5021
g82
g83
ssg71
g5015
sg64
(lp5022
S'session_id'
p5023
asbag57
(g78
g59
NtRp5024
(dp5025
g62
(dp5026
g89
g90
ssg71
g5015
sg64
(lp5027
S':'
asbag57
(g78
g59
NtRp5028
(dp5029
g62
(dp5030
sg71
g5015
sg64
(lp5031
g57
(g58
g59
NtRp5032
(dp5033
g62
(dp5034
g70
I5
ssg71
g5028
sg64
(lp5035
g488
asbasbasbag57
(g73
g59
NtRp5036
(dp5037
g62
(dp5038
sg71
g3659
sg64
(lp5039
g57
(g78
g59
NtRp5040
(dp5041
g62
(dp5042
g82
g83
ssg71
g5036
sg64
(lp5043
S'session_id_name'
p5044
asbag57
(g78
g59
NtRp5045
(dp5046
g62
(dp5047
g89
g90
ssg71
g5036
sg64
(lp5048
S':'
asbag57
(g78
g59
NtRp5049
(dp5050
g62
(dp5051
sg71
g5036
sg64
(lp5052
g57
(g58
g59
NtRp5053
(dp5054
g62
(dp5055
g70
I5
ssg71
g5049
sg64
(lp5056
g3716
asbasbasbag57
(g73
g59
NtRp5057
(dp5058
g62
(dp5059
sg71
g3659
sg64
(lp5060
g57
(g78
g59
NtRp5061
(dp5062
g62
(dp5063
g82
g83
ssg71
g5057
sg64
(lp5064
S'session_locked'
p5065
asbag57
(g78
g59
NtRp5066
(dp5067
g62
(dp5068
g89
g90
ssg71
g5057
sg64
(lp5069
S':'
asbag57
(g78
g59
NtRp5070
(dp5071
g62
(dp5072
sg71
g5057
sg64
(lp5073
g57
(g58
g59
NtRp5074
(dp5075
g62
(dp5076
g70
I5
ssg71
g5070
sg64
(lp5077
g1736
asbasbasbag57
(g73
g59
NtRp5078
(dp5079
g62
(dp5080
sg71
g3659
sg64
(lp5081
g57
(g78
g59
NtRp5082
(dp5083
g62
(dp5084
g82
g83
ssg71
g5078
sg64
(lp5085
S'session_new'
p5086
asbag57
(g78
g59
NtRp5087
(dp5088
g62
(dp5089
g89
g90
ssg71
g5078
sg64
(lp5090
S':'
asbag57
(g78
g59
NtRp5091
(dp5092
g62
(dp5093
sg71
g5078
sg64
(lp5094
g57
(g58
g59
NtRp5095
(dp5096
g62
(dp5097
g70
I5
ssg71
g5091
sg64
(lp5098
g100
asbasbasbag57
(g73
g59
NtRp5099
(dp5100
g62
(dp5101
sg71
g3659
sg64
(lp5102
g57
(g78
g59
NtRp5103
(dp5104
g62
(dp5105
g82
g83
ssg71
g5099
sg64
(lp5106
S'status'
p5107
asbag57
(g78
g59
NtRp5108
(dp5109
g62
(dp5110
g89
g90
ssg71
g5099
sg64
(lp5111
S':'
asbag57
(g78
g59
NtRp5112
(dp5113
g62
(dp5114
sg71
g5099
sg64
(lp5115
g57
(g58
g59
NtRp5116
(dp5117
g62
(dp5118
g70
I5
ssg71
g5112
sg64
(lp5119
S'200'
p5120
asbasbasbag57
(g73
g59
NtRp5121
(dp5122
g62
(dp5123
sg71
g3659
sg64
(lp5124
g57
(g78
g59
NtRp5125
(dp5126
g62
(dp5127
g82
g83
ssg71
g5121
sg64
(lp5128
S'subtitle'
p5129
asbag57
(g78
g59
NtRp5130
(dp5131
g62
(dp5132
g89
g90
ssg71
g5121
sg64
(lp5133
S':'
asbag57
(g78
g59
NtRp5134
(dp5135
g62
(dp5136
sg71
g5121
sg64
(lp5137
g57
(g58
g59
NtRp5138
(dp5139
g62
(dp5140
g70
I5
ssg71
g5134
sg64
(lp5141
g4149
(S's\r\x00\x00\x00customize me!'
tRp5142
asbasbasbag57
(g73
g59
NtRp5143
(dp5144
g62
(dp5145
sg71
g3659
sg64
(lp5146
g57
(g78
g59
NtRp5147
(dp5148
g62
(dp5149
g82
g83
ssg71
g5143
sg64
(lp5150
S'title'
p5151
asbag57
(g78
g59
NtRp5152
(dp5153
g62
(dp5154
g89
g90
ssg71
g5143
sg64
(lp5155
S':'
asbag57
(g78
g59
NtRp5156
(dp5157
g62
(dp5158
sg71
g5143
sg64
(lp5159
g57
(g58
g59
NtRp5160
(dp5161
g62
(dp5162
g70
I5
ssg71
g5156
sg64
(lp5163
S'Qsuntastebudsv2'
p5164
asbasbasbag57
(g73
g59
NtRp5165
(dp5166
g62
(dp5167
sg71
g3659
sg64
(lp5168
g57
(g78
g59
NtRp5169
(dp5170
g62
(dp5171
g82
g83
ssg71
g5165
sg64
(lp5172
S'view'
p5173
asbag57
(g78
g59
NtRp5174
(dp5175
g62
(dp5176
g89
g90
ssg71
g5165
sg64
(lp5177
S':'
asbag57
(g78
g59
NtRp5178
(dp5179
g62
(dp5180
sg71
g5165
sg64
(lp5181
g57
(g58
g59
NtRp5182
(dp5183
g62
(dp5184
g70
I5
ssg71
g5178
sg64
(lp5185
S'default/readRecipe.html'
p5186
asbasbasbasbasbsS'locals'
p5187
(dp5188
S'Service'
p5189
S"<class 'gluon.tools.Service'>"
p5190
sS'OBJECT'
p5191
S"<class 'gluon.html.OBJECT'>"
p5192
sS'recipe'
p5193
S'None'
p5194
sS'SQLDB'
p5195
S"<class 'gluon.dal.DAL'>"
p5196
sg3155
S"<Storage {'last_query': 'db.auth_user.id>0', '_u...login]': '354a169b-3bbe-43ff-9f9c-25e7fc15eee9'}>"
p5197
sS'LINK'
p5198
S"<class 'gluon.html.LINK'>"
p5199
sS'BR'
p5200
S"<class 'gluon.html.BR'>"
p5201
sS'local_import'
p5202
S'<function <lambda>>'
p5203
sS'OPTGROUP'
p5204
S"<class 'gluon.html.OPTGROUP'>"
p5205
sS'__package__'
p5206
S'None'
p5207
sS'PRE'
p5208
S"<class 'gluon.html.PRE'>"
p5209
sS'IS_INT_IN_RANGE'
p5210
S"<class 'gluon.validators.IS_INT_IN_RANGE'>"
p5211
sS'IS_LOWER'
p5212
S"<class 'gluon.validators.IS_LOWER'>"
p5213
sS'IS_STRONG'
p5214
S"<class 'gluon.validators.IS_STRONG'>"
p5215
sS'cache'
p5216
S'<gluon.cache.Cache object>'
p5217
sS'IS_IN_DB'
p5218
S"<class 'gluon.validators.IS_IN_DB'>"
p5219
sS'TAG'
p5220
S'<gluon.html.__TAG__ object>'
p5221
sS'SQLField'
p5222
S"<class 'gluon.dal.Field'>"
p5223
sS'mail'
p5224
S'<gluon.tools.Mail object>'
p5225
sS'BODY'
p5226
S"<class 'gluon.html.BODY'>"
p5227
sS'IS_DATE_IN_RANGE'
p5228
S"<class 'gluon.validators.IS_DATE_IN_RANGE'>"
p5229
sS'TH'
p5230
S"<class 'gluon.html.TH'>"
p5231
sS'URL'
p5232
S'<function URL>'
p5233
sS'__file__'
p5234
S"r'D:\\web2py_win\\web2py\\applications\\QSunTasteBudsV2\\views\\default/readRecipe.html'"
p5235
sS'db'
p5236
S'<DAL sqlite://storage.sqlite>'
p5237
sS'auth'
p5238
S'<gluon.tools.Auth object>'
p5239
sS'P'
S"<class 'gluon.html.P'>"
p5240
sS'TFOOT'
p5241
S"<class 'gluon.html.TFOOT'>"
p5242
sS'XHTML'
p5243
S"<class 'gluon.html.XHTML'>"
p5244
sS'datetime'
p5245
S"<type 'datetime.datetime'>"
p5246
sS'ON'
p5247
g1736
sS'OL'
p5248
S"<class 'gluon.html.OL'>"
p5249
sS'TEXTAREA'
p5250
S"<class 'gluon.html.TEXTAREA'>"
p5251
sS'MENU'
p5252
S"<class 'gluon.html.MENU'>"
p5253
sS'IS_IMAGE'
p5254
S"<class 'gluon.validators.IS_IMAGE'>"
p5255
sS'LOAD'
p5256
S'<function LOAD>'
p5257
sS'CODE'
p5258
S"<class 'gluon.html.CODE'>"
p5259
sS'HTTP'
p5260
S"<class 'gluon.http.HTTP'>"
p5261
sS'HR'
p5262
S"<class 'gluon.html.HR'>"
p5263
sS'IS_DATETIME'
p5264
S"<class 'gluon.validators.IS_DATETIME'>"
p5265
sS'HEAD'
p5266
S"<class 'gluon.html.HEAD'>"
p5267
sS'LABEL'
p5268
S"<class 'gluon.html.LABEL'>"
p5269
sS'META'
p5270
S"<class 'gluon.html.META'>"
p5271
sS'plugins'
p5272
S'<gluon.tools.PluginManager object>'
p5273
sS'SELECT'
p5274
S"<class 'gluon.html.SELECT'>"
p5275
sS'use_janrain'
p5276
S'<function use_janrain>'
p5277
sS'CENTER'
p5278
S"<class 'gluon.html.CENTER'>"
p5279
sS'prettydate'
p5280
S'<function prettydate>'
p5281
sS'Crud'
p5282
S"<class 'gluon.tools.Crud'>"
p5283
sS'Auth'
p5284
S"<class 'gluon.tools.Auth'>"
p5285
sS'IS_EQUAL_TO'
p5286
S"<class 'gluon.validators.IS_EQUAL_TO'>"
p5287
sS'HTML'
p5288
S"<class 'gluon.html.HTML'>"
p5289
sS'SQLFORM'
p5290
S"<class 'gluon.sqlhtml.SQLFORM'>"
p5291
sS'EM'
p5292
S"<class 'gluon.html.EM'>"
p5293
sS'redirect'
p5294
S'<function redirect>'
p5295
sS'FIELDSET'
p5296
S"<class 'gluon.html.FIELDSET'>"
p5297
sS'__builtins__'
p5298
S"{'ArithmeticError': <type 'exceptions.ArithmeticError'>, 'AssertionError': <type 'exceptions.AssertionError'>, 'AttributeError': <type 'exceptions.AttributeError'>, 'BaseException': <type 'exceptions.BaseException'>, 'BufferError': <type 'exceptions.BufferError'>, 'BytesWarning': <type 'exceptions.BytesWarning'>, 'DeprecationWarning': <type 'exceptions.DeprecationWarning'>, 'EOFError': <type 'exceptions.EOFError'>, 'Ellipsis': Ellipsis, 'EnvironmentError': <type 'exceptions.EnvironmentError'>, ...}"
p5299
sS'embed64'
p5300
S'<function embed64>'
p5301
sS'IS_LIST_OF'
p5302
S"<class 'gluon.validators.IS_LIST_OF'>"
p5303
sS'INPUT'
p5304
S"<class 'gluon.html.INPUT'>"
p5305
sS'EMBED'
p5306
S"<class 'gluon.html.EMBED'>"
p5307
sS'_'
S'<function _>'
p5308
sS'H2'
p5309
S"<class 'gluon.html.H2'>"
p5310
sS'H3'
p5311
S"<class 'gluon.html.H3'>"
p5312
sS'BUTTON'
p5313
S"<class 'gluon.html.BUTTON'>"
p5314
sS'H1'
p5315
S"<class 'gluon.html.H1'>"
p5316
sS'H6'
p5317
S"<class 'gluon.html.H6'>"
p5318
sS'H4'
p5319
S"<class 'gluon.html.H4'>"
p5320
sS'H5'
p5321
S"<class 'gluon.html.H5'>"
p5322
sS'UL'
p5323
S"<class 'gluon.html.UL'>"
p5324
sS'IS_UPPER'
p5325
S"<class 'gluon.validators.IS_UPPER'>"
p5326
sS'xmlescape'
p5327
S'<function xmlescape>'
p5328
sS'IS_TIME'
p5329
S"<class 'gluon.validators.IS_TIME'>"
p5330
sS'OPTION'
p5331
S"<class 'gluon.html.OPTION'>"
p5332
sS'TITLE'
p5333
S"<class 'gluon.html.TITLE'>"
p5334
sS'CRYPT'
p5335
S"<class 'gluon.validators.CRYPT'>"
p5336
sS'IS_EMPTY_OR'
p5337
S"<class 'gluon.validators.IS_EMPTY_OR'>"
p5338
sS'MARKMIN'
p5339
S"<class 'gluon.html.MARKMIN'>"
p5340
sS'__name__'
p5341
S"'__restricted__'"
p5342
sS'STRONG'
p5343
S"<class 'gluon.html.STRONG'>"
p5344
sS'COL'
p5345
S"<class 'gluon.html.COL'>"
p5346
sS'service'
p5347
S'<gluon.tools.Service object>'
p5348
sS'SCRIPT'
p5349
S"<class 'gluon.html.SCRIPT'>"
p5350
sS'TABLE'
p5351
S"<class 'gluon.html.TABLE'>"
p5352
sS'IS_IPV4'
p5353
S"<class 'gluon.validators.IS_IPV4'>"
p5354
sS'IS_LENGTH'
p5355
S"<class 'gluon.validators.IS_LENGTH'>"
p5356
sS'XML'
p5357
S"<class 'gluon.html.XML'>"
p5358
sS'B'
S"<class 'gluon.html.B'>"
p5359
sS'IMG'
p5360
S"<class 'gluon.html.IMG'>"
p5361
sS'SQLTABLE'
p5362
S"<class 'gluon.sqlhtml.SQLTABLE'>"
p5363
sS'IS_MATCH'
p5364
S"<class 'gluon.validators.IS_MATCH'>"
p5365
sS'IS_ALPHANUMERIC'
p5366
S"<class 'gluon.validators.IS_ALPHANUMERIC'>"
p5367
sS'SPAN'
p5368
S"<class 'gluon.html.SPAN'>"
p5369
sS'IS_SLUG'
p5370
S"<class 'gluon.validators.IS_SLUG'>"
p5371
sS'CLEANUP'
p5372
S"<class 'gluon.validators.CLEANUP'>"
p5373
sS'IS_DATE'
p5374
S"<class 'gluon.validators.IS_DATE'>"
p5375
sS'IS_EMAIL'
p5376
S"<class 'gluon.validators.IS_EMAIL'>"
p5377
sS'IS_NOT_EMPTY'
p5378
S"<class 'gluon.validators.IS_NOT_EMPTY'>"
p5379
sg56
S"<Storage {'function': 'readRecipe', 'body': <cSt...\\\\QSunTasteBudsV2\\\\', 'post_vars': <Storage {}>}>"
p5380
sS'BEAUTIFY'
p5381
S"<class 'gluon.html.BEAUTIFY'>"
p5382
sS'TBODY'
p5383
S"<class 'gluon.html.TBODY'>"
p5384
sS'CAT'
p5385
S"<class 'gluon.html.CAT'>"
p5386
sS'Field'
p5387
S"<class 'gluon.dal.Field'>"
p5388
sS'DIV'
p5389
S"<class 'gluon.html.DIV'>"
p5390
sS'LEGEND'
p5391
S"<class 'gluon.html.LEGEND'>"
p5392
sS'COLGROUP'
p5393
S"<class 'gluon.html.COLGROUP'>"
p5394
sS'DAL'
p5395
S"<class 'gluon.dal.DAL'>"
p5396
sS'TT'
p5397
S"<class 'gluon.html.TT'>"
p5398
sS'TR'
p5399
S"<class 'gluon.html.TR'>"
p5400
sS'LI'
p5401
S"<class 'gluon.html.LI'>"
p5402
sS'IFRAME'
p5403
S"<class 'gluon.html.IFRAME'>"
p5404
sS'TD'
p5405
S"<class 'gluon.html.TD'>"
p5406
sS'PluginManager'
p5407
S"<class 'gluon.tools.PluginManager'>"
p5408
sS'IS_URL'
p5409
S"<class 'gluon.validators.IS_URL'>"
p5410
sS'A'
S"<class 'gluon.html.A'>"
p5411
sS'STYLE'
p5412
S"<class 'gluon.html.STYLE'>"
p5413
sS'IS_DATETIME_IN_RANGE'
p5414
S"<class 'gluon.validators.IS_DATETIME_IN_RANGE'>"
p5415
sS'FORM'
p5416
S"<class 'gluon.html.FORM'>"
p5417
sS'I'
S"<class 'gluon.html.I'>"
p5418
sS'crud'
p5419
S'<gluon.tools.Crud object>'
p5420
sS'IS_NOT_IN_DB'
p5421
S"<class 'gluon.validators.IS_NOT_IN_DB'>"
p5422
sg3654
S"<Storage {'body': <cStringIO.StringO object at 0... 0x04D9CA30>, 'view': 'default/readRecipe.html'}>"
p5423
sS'THEAD'
p5424
S"<class 'gluon.html.THEAD'>"
p5425
sS'IS_NULL_OR'
p5426
S"<class 'gluon.validators.IS_EMPTY_OR'>"
p5427
sS'IS_FLOAT_IN_RANGE'
p5428
S"<class 'gluon.validators.IS_FLOAT_IN_RANGE'>"
p5429
sS'IS_EXPR'
p5430
S"<class 'gluon.validators.IS_EXPR'>"
p5431
sS'T'
S'<gluon.languages.translator object>'
p5432
sS'IS_IN_SET'
p5433
S"<class 'gluon.validators.IS_IN_SET'>"
p5434
sS'rateForm'
p5435
S'<gluon.html.FORM object>'
p5436
sS'IS_UPLOAD_FILENAME'
p5437
S"<class 'gluon.validators.IS_UPLOAD_FILENAME'>"
p5438
sS'IS_DECIMAL_IN_RANGE'
p5439
S"<class 'gluon.validators.IS_DECIMAL_IN_RANGE'>"
p5440
sssS'traceback'
p5441
S'Traceback (most recent call last):\n  File "gluon/restricted.py", line 209, in restricted\n  File "D:\\web2py_win\\web2py\\applications\\QSunTasteBudsV2\\views\\default/readRecipe.html", line 2, in <module>\nAttributeError: \'NoneType\' object has no attribute \'title\'\n'
p5442
s.