(dp1
S'output'
p2
S"<type 'exceptions.AttributeError'> 'function' object has no attribute 'owner'"
p3
sS'layer'
p4
S'D:\\web2py_win\\web2py\\applications\\QSunTasteBudsV2\\controllers/default.py'
p5
sS'code'
p6
S'# -*- coding: utf-8 -*-\n# this file is released under public domain and you can use without limitations\n\n#########################################################################\n## This is a samples controller\n## - index is the default action of any application\n## - user is required for authentication and authorization\n## - download is for downloading files uploaded in the db (does streaming)\n## - call exposes all registered services (none by default)\n#########################################################################\n\ndef index():\n    if(auth.is_logged_in()):\n        userINFO = db.auth_user(auth.user_id)\n    else:\n        userINFO = 0\n    recipes = db().select(db.Recipes.ALL, orderby = ~db.Recipes.rating, limitby = (0, 3))\n    places = db().select(db.Restaurants.ALL, orderby = ~db.Restaurants.rating, limitby = (0, 3))\n    \n    \n    return dict(userINFO = userINFO, recipes = recipes, places = places)\n    \n@auth.requires_login()    \ndef login():\n    redirect(URL(\'index\'))\n    return dict()\n    \ndef logout():\n    auth.logout()\n    redirect(URL(\'index\'))\n    return dict()\n    \ndef recipe():\n    if(auth.is_logged_in()):\n        userINFO = db.auth_user(auth.user_id)\n    else:\n        userINFO = 0\n    return dict(userINFO = userINFO)\n    \ndef discover():\n    return dict()\n\ndef community():\n    return dict()\n\ndef news():\n    return dict() \n    \ndef addRecipe():\n    form = SQLFORM(db.Recipes)\n    if form.process().accepted:\n        redirect(URL(\'index\'))\n    return dict(form=form)\n    \ndef addRestaurant():\n    form = SQLFORM(db.Restaurants)\n    if form.process().accepted:\n        redirect(URL(\'index\'))\n    return dict(form=form)\n    \ndef readRecipe():\n    recipe = db.Recipes(request.args[0])\n    session.currentRecipe = request.args[0]\n    rateForm = FORM(\'Rate or Comment this recipe?\',\n                     INPUT(_type = \'submit\', _value = \'Rate and Comment\')\n                )\n    commentList = db(db.comments.belongTo == session.currentRecipe).select()      \n    if rateForm.process().accepted:\n        session.title = recipe.title\n        session.owner = recipe.owner.first_name + " " + recipe.owner.last_name\n        redirect(URL(\'rateRecipe\'))\n    return dict(recipe = recipe, rateForm = rateForm, commentList = commentList)   \n    \ndef readRestaurant():\n    place = db.Restaurants(request.args[0])\n    session.currentRestaurant = request.args[0]\n    rateForm = FORM(\'Rate or Comment this restaurant?\',\n                     INPUT(_type = \'submit\', _value = \'Rate and Comment\')\n                )\n    commentList = db(db.rcomments.belongTo == session.currentRestaurant).select()            \n    if rateForm.process().accepted:\n        session.title = place.name\n        session.owner = place.owner.first_name + " " + recipe.owner.last_name\n        redirect(URL(\'rateRestaurant\'))\n    return dict(place = place, rateForm = rateForm, commentList = commentList)\n    \n@auth.requires_login()        \ndef rateRecipe():\n    form = FORM(\n                \'Select to Rate\',\n                 SELECT(\'bad\', \'good\', \'very good\', \'excellent\', _name = \'rating\'),\n                 BR(),BR(),\n                 \n                 \'your comment: \', TEXTAREA(_name = \'commentText\', requires = IS_NOT_EMPTY()),\n                 BR(),BR(),\n                 \n                 INPUT(_type = \'submit\', _value = \'Go submit\')\n                )\n    \n    if form.process().accepted:\n        recipe = db.Recipes(session.currentRecipe)\n        currentRating = recipe.rating\n        if form.vars.rating == \'bad\':\n            currentRating -= 1\n        if form.vars.rating == \'good\':\n            currentRating += 1\n        if form.vars.rating == \'very good\':\n            currentRating += 2         \n        if form.vars.rating == \'excellent\':\n            currentRating += 3 \n                \n        userINFO = db.auth_user(auth.user_id)\n        db.comments.insert(comment = form.vars.commentText, belongTo = session.currentRecipe, commentor = userINFO.first_name + \' \' + userINFO.last_name, rateDate = datetime.utcnow())    \n                    \n        db(db.Recipes.id == session.currentRecipe).validate_and_update(rating = currentRating)\n        db.commit()\n        \n        redirect(URL(\'readRecipe\', args = [session.currentRecipe]))\n              \n                \n    return dict(form = form)                    \n\n@auth.requires_login()                        \ndef rateRestaurant():\n    form = FORM(\n                \'Select to Rate\',\n                 SELECT(\'bad\', \'good\', \'very good\', \'excellent\', _name = \'rating\'),\n                 BR(),BR(),\n                 \n                 \'your comment: \', TEXTAREA(_name = \'commentText\', requires = IS_NOT_EMPTY()),\n                 BR(),BR(),\n                 \n                 INPUT(_type = \'submit\', _value = \'Go submit\')\n                )\n    \n    if form.process().accepted:\n        place = db.Restaurants(session.currentRestaurant)\n        currentRating = place.rating\n        if form.vars.rating == \'bad\':\n            currentRating -= 1\n        if form.vars.rating == \'good\':\n            currentRating += 1\n        if form.vars.rating == \'very good\':\n            currentRating += 2         \n        if form.vars.rating == \'excellent\':\n            currentRating += 3 \n                \n        userINFO = db.auth_user(auth.user_id)\n        db.rcomments.insert(comment = form.vars.commentText, belongTo = session.currentRestaurant, commentor = userINFO.first_name + \' \' + userINFO.last_name, rateDate = datetime.utcnow())    \n                    \n        db(db.Restaurants.id == session.currentRestaurant).validate_and_update(rating = currentRating)\n        db.commit()\n        \n        redirect(URL(\'readRestaurant\', args = [session.currentRestaurant]))\n    return dict(form = form)\n    \n        \n                \ndef user():\n    """\n    exposes:\n    http://..../[app]/default/user/login\n    http://..../[app]/default/user/logout\n    http://..../[app]/default/user/register\n    http://..../[app]/default/user/profile\n    http://..../[app]/default/user/retrieve_password\n    http://..../[app]/default/user/change_password\n    use @auth.requires_login()\n        @auth.requires_membership(\'group name\')\n        @auth.requires_permission(\'read\',\'table name\',record_id)\n    to decorate functions that need access control\n    """\n    return dict(form=auth())\n\n    \n\ndef download():\n    """\n    allows downloading of uploaded files\n    http://..../[app]/default/download/[filename]\n    """\n    return response.download(request,db)\n\n\ndef call():\n    """\n    exposes services. for example:\n    http://..../[app]/default/call/jsonrpc\n    decorate with @services.jsonrpc the functions to expose\n    supports xml, json, xmlrpc, jsonrpc, amfrpc, rss, csv\n    """\n    return service()\n\n\n@auth.requires_signature()\ndef data():\n    """\n    http://..../[app]/default/data/tables\n    http://..../[app]/default/data/create/[table]\n    http://..../[app]/default/data/read/[table]/[id]\n    http://..../[app]/default/data/update/[table]/[id]\n    http://..../[app]/default/data/delete/[table]/[id]\n    http://..../[app]/default/data/select/[table]\n    http://..../[app]/default/data/search/[table]\n    but URLs must be signed, i.e. linked with\n      A(\'table\',_href=URL(\'data/tables\',user_signature=True))\n    or with the signed load operator\n      LOAD(\'default\',\'data.load\',args=\'tables\',ajax=True,user_signature=True)\n    """\n    return dict(form=crud())\n\nresponse._vars=response._caller(readRestaurant)\n'
p7
sS'snapshot'
p8
(dp9
S'exception'
p10
(dp11
S'__hash__'
p12
S"<method-wrapper '__hash__' of exceptions.AttributeError object>"
p13
sS'__setattr__'
p14
S"<method-wrapper '__setattr__' of exceptions.AttributeError object>"
p15
sS'__reduce_ex__'
p16
S'<built-in method __reduce_ex__ of exceptions.AttributeError object>'
p17
sS'__getslice__'
p18
S"<method-wrapper '__getslice__' of exceptions.AttributeError object>"
p19
sS'__getitem__'
p20
S"<method-wrapper '__getitem__' of exceptions.AttributeError object>"
p21
sS'__setstate__'
p22
S'<built-in method __setstate__ of exceptions.AttributeError object>'
p23
sS'__reduce__'
p24
S'<built-in method __reduce__ of exceptions.AttributeError object>'
p25
sS'__str__'
p26
S"<method-wrapper '__str__' of exceptions.AttributeError object>"
p27
sS'__format__'
p28
S'<built-in method __format__ of exceptions.AttributeError object>'
p29
sS'__getattribute__'
p30
S"<method-wrapper '__getattribute__' of exceptions.AttributeError object>"
p31
sS'__class__'
p32
S"<type 'exceptions.AttributeError'>"
p33
sS'__unicode__'
p34
S'<built-in method __unicode__ of exceptions.AttributeError object>'
p35
sS'__delattr__'
p36
S"<method-wrapper '__delattr__' of exceptions.AttributeError object>"
p37
sS'__subclasshook__'
p38
S'<built-in method __subclasshook__ of type object>'
p39
sS'__repr__'
p40
S"<method-wrapper '__repr__' of exceptions.AttributeError object>"
p41
sS'args'
p42
S'("\'function\' object has no attribute \'owner\'",)'
p43
sS'__dict__'
p44
S'{}'
p45
sS'__sizeof__'
p46
S'<built-in method __sizeof__ of exceptions.AttributeError object>'
p47
sS'__doc__'
p48
S"'Attribute not found.'"
p49
sS'__init__'
p50
S"<method-wrapper '__init__' of exceptions.AttributeError object>"
p51
sS'__new__'
p52
S'<built-in method __new__ of type object>'
p53
ssS'evalue'
p54
S"'function' object has no attribute 'owner'"
p55
sS'request'
p56
ccopy_reg
_reconstructor
p57
(cgluon.html
BEAUTIFY
p58
c__builtin__
object
p59
NtRp60
(dp61
S'attributes'
p62
(dp63
sS'components'
p64
(lp65
g57
(cgluon.html
TABLE
p66
g59
NtRp67
(dp68
g62
(dp69
S'level'
p70
I5
ssS'parent'
p71
Nsg64
(lp72
g57
(cgluon.html
TR
p73
g59
NtRp74
(dp75
g62
(dp76
sg71
g67
sg64
(lp77
g57
(cgluon.html
TD
p78
g59
NtRp79
(dp80
g62
(dp81
S'_style'
p82
S'font-weight:bold;vertical-align:top'
p83
ssg71
g74
sg64
(lp84
S'ajax'
p85
asbag57
(g78
g59
NtRp86
(dp87
g62
(dp88
S'_valign'
p89
S'top'
p90
ssg71
g74
sg64
(lp91
S':'
asbag57
(g78
g59
NtRp92
(dp93
g62
(dp94
sg71
g74
sg64
(lp95
g57
(g58
g59
NtRp96
(dp97
g62
(dp98
g70
I5
ssg71
g92
sg64
(lp99
S'False'
p100
asbasbasbag57
(g73
g59
NtRp101
(dp102
g62
(dp103
sg71
g67
sg64
(lp104
g57
(g78
g59
NtRp105
(dp106
g62
(dp107
g82
g83
ssg71
g101
sg64
(lp108
S'application'
p109
asbag57
(g78
g59
NtRp110
(dp111
g62
(dp112
g89
g90
ssg71
g101
sg64
(lp113
S':'
asbag57
(g78
g59
NtRp114
(dp115
g62
(dp116
sg71
g101
sg64
(lp117
g57
(g58
g59
NtRp118
(dp119
g62
(dp120
g70
I5
ssg71
g114
sg64
(lp121
S'QSunTasteBudsV2'
p122
asbasbasbag57
(g73
g59
NtRp123
(dp124
g62
(dp125
sg71
g67
sg64
(lp126
g57
(g78
g59
NtRp127
(dp128
g62
(dp129
g82
g83
ssg71
g123
sg64
(lp130
g42
asbag57
(g78
g59
NtRp131
(dp132
g62
(dp133
g89
g90
ssg71
g123
sg64
(lp134
S':'
asbag57
(g78
g59
NtRp135
(dp136
g62
(dp137
sg71
g123
sg64
(lp138
g57
(g58
g59
NtRp139
(dp140
g62
(dp141
g70
I5
ssg71
g135
sg64
(lp142
g57
(g66
g59
NtRp143
(dp144
g62
(dp145
g70
I4
ssg71
Nsg64
(lp146
g57
(g73
g59
NtRp147
(dp148
g62
(dp149
sg71
g143
sg64
(lp150
g57
(g78
g59
NtRp151
(dp152
g62
(dp153
sg71
g147
sg64
(lp154
g57
(g58
g59
NtRp155
(dp156
g62
(dp157
g70
I4
ssg71
g151
sg64
(lp158
S'5'
asbasbasbasbasbasbasbag57
(g73
g59
NtRp159
(dp160
g62
(dp161
sg71
g67
sg64
(lp162
g57
(g78
g59
NtRp163
(dp164
g62
(dp165
g82
g83
ssg71
g159
sg64
(lp166
S'body'
p167
asbag57
(g78
g59
NtRp168
(dp169
g62
(dp170
g89
g90
ssg71
g159
sg64
(lp171
S':'
asbag57
(g78
g59
NtRp172
(dp173
g62
(dp174
sg71
g159
sg64
(lp175
g57
(g58
g59
NtRp176
(dp177
g62
(dp178
g70
I5
ssg71
g172
sg64
(lp179
S"<open file '<fdopen>', mode 'w+b' at 0x044F2758>"
p180
asbasbasbag57
(g73
g59
NtRp181
(dp182
g62
(dp183
sg71
g67
sg64
(lp184
g57
(g78
g59
NtRp185
(dp186
g62
(dp187
g82
g83
ssg71
g181
sg64
(lp188
S'cid'
p189
asbag57
(g78
g59
NtRp190
(dp191
g62
(dp192
g89
g90
ssg71
g181
sg64
(lp193
S':'
asbag57
(g78
g59
NtRp194
(dp195
g62
(dp196
sg71
g181
sg64
(lp197
g57
(g58
g59
NtRp198
(dp199
g62
(dp200
g70
I5
ssg71
g194
sg64
(lp201
S'None'
p202
asbasbasbag57
(g73
g59
NtRp203
(dp204
g62
(dp205
sg71
g67
sg64
(lp206
g57
(g78
g59
NtRp207
(dp208
g62
(dp209
g82
g83
ssg71
g203
sg64
(lp210
S'client'
p211
asbag57
(g78
g59
NtRp212
(dp213
g62
(dp214
g89
g90
ssg71
g203
sg64
(lp215
S':'
asbag57
(g78
g59
NtRp216
(dp217
g62
(dp218
sg71
g203
sg64
(lp219
g57
(g58
g59
NtRp220
(dp221
g62
(dp222
g70
I5
ssg71
g216
sg64
(lp223
S'127.0.0.1'
p224
asbasbasbag57
(g73
g59
NtRp225
(dp226
g62
(dp227
sg71
g67
sg64
(lp228
g57
(g78
g59
NtRp229
(dp230
g62
(dp231
g82
g83
ssg71
g225
sg64
(lp232
S'controller'
p233
asbag57
(g78
g59
NtRp234
(dp235
g62
(dp236
g89
g90
ssg71
g225
sg64
(lp237
S':'
asbag57
(g78
g59
NtRp238
(dp239
g62
(dp240
sg71
g225
sg64
(lp241
g57
(g58
g59
NtRp242
(dp243
g62
(dp244
g70
I5
ssg71
g238
sg64
(lp245
S'default'
p246
asbasbasbag57
(g73
g59
NtRp247
(dp248
g62
(dp249
sg71
g67
sg64
(lp250
g57
(g78
g59
NtRp251
(dp252
g62
(dp253
g82
g83
ssg71
g247
sg64
(lp254
S'cookies'
p255
asbag57
(g78
g59
NtRp256
(dp257
g62
(dp258
g89
g90
ssg71
g247
sg64
(lp259
S':'
asbag57
(g78
g59
NtRp260
(dp261
g62
(dp262
sg71
g247
sg64
(lp263
g57
(g58
g59
NtRp264
(dp265
g62
(dp266
g70
I5
ssg71
g260
sg64
(lp267
g57
(g66
g59
NtRp268
(dp269
g62
(dp270
g70
I4
ssg71
Nsg64
(lp271
g57
(g73
g59
NtRp272
(dp273
g62
(dp274
sg71
g268
sg64
(lp275
g57
(g78
g59
NtRp276
(dp277
g62
(dp278
g82
g83
ssg71
g272
sg64
(lp279
S'session_id_admin'
p280
asbag57
(g78
g59
NtRp281
(dp282
g62
(dp283
g89
g90
ssg71
g272
sg64
(lp284
S':'
asbag57
(g78
g59
NtRp285
(dp286
g62
(dp287
sg71
g272
sg64
(lp288
g57
(g58
g59
NtRp289
(dp290
g62
(dp291
g70
I4
ssg71
g285
sg64
(lp292
S'127.0.0.1-304ee069-1576-4fbf-bd8b-3f7ad31c7229'
p293
ag57
(g66
g59
NtRp294
(dp295
g62
(dp296
g70
I3
ssg71
Nsg64
(lp297
g57
(g73
g59
NtRp298
(dp299
g62
(dp300
sg71
g294
sg64
(lp301
g57
(g78
g59
NtRp302
(dp303
g62
(dp304
g82
g83
ssg71
g298
sg64
(lp305
S'comment'
p306
asbag57
(g78
g59
NtRp307
(dp308
g62
(dp309
g89
g90
ssg71
g298
sg64
(lp310
S':'
asbag57
(g78
g59
NtRp311
(dp312
g62
(dp313
sg71
g298
sg64
(lp314
g57
(g58
g59
NtRp315
(dp316
g62
(dp317
g70
I3
ssg71
g311
sg64
(lp318
S''
asbasbasbag57
(g73
g59
NtRp319
(dp320
g62
(dp321
sg71
g294
sg64
(lp322
g57
(g78
g59
NtRp323
(dp324
g62
(dp325
g82
g83
ssg71
g319
sg64
(lp326
S'domain'
p327
asbag57
(g78
g59
NtRp328
(dp329
g62
(dp330
g89
g90
ssg71
g319
sg64
(lp331
S':'
asbag57
(g78
g59
NtRp332
(dp333
g62
(dp334
sg71
g319
sg64
(lp335
g57
(g58
g59
NtRp336
(dp337
g62
(dp338
g70
I3
ssg71
g332
sg64
(lp339
S''
asbasbasbag57
(g73
g59
NtRp340
(dp341
g62
(dp342
sg71
g294
sg64
(lp343
g57
(g78
g59
NtRp344
(dp345
g62
(dp346
g82
g83
ssg71
g340
sg64
(lp347
S'expires'
p348
asbag57
(g78
g59
NtRp349
(dp350
g62
(dp351
g89
g90
ssg71
g340
sg64
(lp352
S':'
asbag57
(g78
g59
NtRp353
(dp354
g62
(dp355
sg71
g340
sg64
(lp356
g57
(g58
g59
NtRp357
(dp358
g62
(dp359
g70
I3
ssg71
g353
sg64
(lp360
S''
asbasbasbag57
(g73
g59
NtRp361
(dp362
g62
(dp363
sg71
g294
sg64
(lp364
g57
(g78
g59
NtRp365
(dp366
g62
(dp367
g82
g83
ssg71
g361
sg64
(lp368
S'httponly'
p369
asbag57
(g78
g59
NtRp370
(dp371
g62
(dp372
g89
g90
ssg71
g361
sg64
(lp373
S':'
asbag57
(g78
g59
NtRp374
(dp375
g62
(dp376
sg71
g361
sg64
(lp377
g57
(g58
g59
NtRp378
(dp379
g62
(dp380
g70
I3
ssg71
g374
sg64
(lp381
S''
asbasbasbag57
(g73
g59
NtRp382
(dp383
g62
(dp384
sg71
g294
sg64
(lp385
g57
(g78
g59
NtRp386
(dp387
g62
(dp388
g82
g83
ssg71
g382
sg64
(lp389
S'max-age'
p390
asbag57
(g78
g59
NtRp391
(dp392
g62
(dp393
g89
g90
ssg71
g382
sg64
(lp394
S':'
asbag57
(g78
g59
NtRp395
(dp396
g62
(dp397
sg71
g382
sg64
(lp398
g57
(g58
g59
NtRp399
(dp400
g62
(dp401
g70
I3
ssg71
g395
sg64
(lp402
S''
asbasbasbag57
(g73
g59
NtRp403
(dp404
g62
(dp405
sg71
g294
sg64
(lp406
g57
(g78
g59
NtRp407
(dp408
g62
(dp409
g82
g83
ssg71
g403
sg64
(lp410
S'path'
p411
asbag57
(g78
g59
NtRp412
(dp413
g62
(dp414
g89
g90
ssg71
g403
sg64
(lp415
S':'
asbag57
(g78
g59
NtRp416
(dp417
g62
(dp418
sg71
g403
sg64
(lp419
g57
(g58
g59
NtRp420
(dp421
g62
(dp422
g70
I3
ssg71
g416
sg64
(lp423
S''
asbasbasbag57
(g73
g59
NtRp424
(dp425
g62
(dp426
sg71
g294
sg64
(lp427
g57
(g78
g59
NtRp428
(dp429
g62
(dp430
g82
g83
ssg71
g424
sg64
(lp431
S'secure'
p432
asbag57
(g78
g59
NtRp433
(dp434
g62
(dp435
g89
g90
ssg71
g424
sg64
(lp436
S':'
asbag57
(g78
g59
NtRp437
(dp438
g62
(dp439
sg71
g424
sg64
(lp440
g57
(g58
g59
NtRp441
(dp442
g62
(dp443
g70
I3
ssg71
g437
sg64
(lp444
S''
asbasbasbag57
(g73
g59
NtRp445
(dp446
g62
(dp447
sg71
g294
sg64
(lp448
g57
(g78
g59
NtRp449
(dp450
g62
(dp451
g82
g83
ssg71
g445
sg64
(lp452
S'version'
p453
asbag57
(g78
g59
NtRp454
(dp455
g62
(dp456
g89
g90
ssg71
g445
sg64
(lp457
S':'
asbag57
(g78
g59
NtRp458
(dp459
g62
(dp460
sg71
g445
sg64
(lp461
g57
(g58
g59
NtRp462
(dp463
g62
(dp464
g70
I3
ssg71
g458
sg64
(lp465
S''
asbasbasbasbasbasbasbag57
(g73
g59
NtRp466
(dp467
g62
(dp468
sg71
g268
sg64
(lp469
g57
(g78
g59
NtRp470
(dp471
g62
(dp472
g82
g83
ssg71
g466
sg64
(lp473
S'session_id_qsuntastebudsv2'
p474
asbag57
(g78
g59
NtRp475
(dp476
g62
(dp477
g89
g90
ssg71
g466
sg64
(lp478
S':'
asbag57
(g78
g59
NtRp479
(dp480
g62
(dp481
sg71
g466
sg64
(lp482
g57
(g58
g59
NtRp483
(dp484
g62
(dp485
g70
I4
ssg71
g479
sg64
(lp486
S'127.0.0.1-03c509ec-2cef-426f-a88b-6eb0c079c2a6'
p487
ag57
(g66
g59
NtRp488
(dp489
g62
(dp490
g70
I3
ssg71
Nsg64
(lp491
g57
(g73
g59
NtRp492
(dp493
g62
(dp494
sg71
g488
sg64
(lp495
g57
(g78
g59
NtRp496
(dp497
g62
(dp498
g82
g83
ssg71
g492
sg64
(lp499
g306
asbag57
(g78
g59
NtRp500
(dp501
g62
(dp502
g89
g90
ssg71
g492
sg64
(lp503
S':'
asbag57
(g78
g59
NtRp504
(dp505
g62
(dp506
sg71
g492
sg64
(lp507
g57
(g58
g59
NtRp508
(dp509
g62
(dp510
g70
I3
ssg71
g504
sg64
(lp511
S''
asbasbasbag57
(g73
g59
NtRp512
(dp513
g62
(dp514
sg71
g488
sg64
(lp515
g57
(g78
g59
NtRp516
(dp517
g62
(dp518
g82
g83
ssg71
g512
sg64
(lp519
g327
asbag57
(g78
g59
NtRp520
(dp521
g62
(dp522
g89
g90
ssg71
g512
sg64
(lp523
S':'
asbag57
(g78
g59
NtRp524
(dp525
g62
(dp526
sg71
g512
sg64
(lp527
g57
(g58
g59
NtRp528
(dp529
g62
(dp530
g70
I3
ssg71
g524
sg64
(lp531
S''
asbasbasbag57
(g73
g59
NtRp532
(dp533
g62
(dp534
sg71
g488
sg64
(lp535
g57
(g78
g59
NtRp536
(dp537
g62
(dp538
g82
g83
ssg71
g532
sg64
(lp539
g348
asbag57
(g78
g59
NtRp540
(dp541
g62
(dp542
g89
g90
ssg71
g532
sg64
(lp543
S':'
asbag57
(g78
g59
NtRp544
(dp545
g62
(dp546
sg71
g532
sg64
(lp547
g57
(g58
g59
NtRp548
(dp549
g62
(dp550
g70
I3
ssg71
g544
sg64
(lp551
S''
asbasbasbag57
(g73
g59
NtRp552
(dp553
g62
(dp554
sg71
g488
sg64
(lp555
g57
(g78
g59
NtRp556
(dp557
g62
(dp558
g82
g83
ssg71
g552
sg64
(lp559
g369
asbag57
(g78
g59
NtRp560
(dp561
g62
(dp562
g89
g90
ssg71
g552
sg64
(lp563
S':'
asbag57
(g78
g59
NtRp564
(dp565
g62
(dp566
sg71
g552
sg64
(lp567
g57
(g58
g59
NtRp568
(dp569
g62
(dp570
g70
I3
ssg71
g564
sg64
(lp571
S''
asbasbasbag57
(g73
g59
NtRp572
(dp573
g62
(dp574
sg71
g488
sg64
(lp575
g57
(g78
g59
NtRp576
(dp577
g62
(dp578
g82
g83
ssg71
g572
sg64
(lp579
g390
asbag57
(g78
g59
NtRp580
(dp581
g62
(dp582
g89
g90
ssg71
g572
sg64
(lp583
S':'
asbag57
(g78
g59
NtRp584
(dp585
g62
(dp586
sg71
g572
sg64
(lp587
g57
(g58
g59
NtRp588
(dp589
g62
(dp590
g70
I3
ssg71
g584
sg64
(lp591
S''
asbasbasbag57
(g73
g59
NtRp592
(dp593
g62
(dp594
sg71
g488
sg64
(lp595
g57
(g78
g59
NtRp596
(dp597
g62
(dp598
g82
g83
ssg71
g592
sg64
(lp599
g411
asbag57
(g78
g59
NtRp600
(dp601
g62
(dp602
g89
g90
ssg71
g592
sg64
(lp603
S':'
asbag57
(g78
g59
NtRp604
(dp605
g62
(dp606
sg71
g592
sg64
(lp607
g57
(g58
g59
NtRp608
(dp609
g62
(dp610
g70
I3
ssg71
g604
sg64
(lp611
S''
asbasbasbag57
(g73
g59
NtRp612
(dp613
g62
(dp614
sg71
g488
sg64
(lp615
g57
(g78
g59
NtRp616
(dp617
g62
(dp618
g82
g83
ssg71
g612
sg64
(lp619
g432
asbag57
(g78
g59
NtRp620
(dp621
g62
(dp622
g89
g90
ssg71
g612
sg64
(lp623
S':'
asbag57
(g78
g59
NtRp624
(dp625
g62
(dp626
sg71
g612
sg64
(lp627
g57
(g58
g59
NtRp628
(dp629
g62
(dp630
g70
I3
ssg71
g624
sg64
(lp631
S''
asbasbasbag57
(g73
g59
NtRp632
(dp633
g62
(dp634
sg71
g488
sg64
(lp635
g57
(g78
g59
NtRp636
(dp637
g62
(dp638
g82
g83
ssg71
g632
sg64
(lp639
g453
asbag57
(g78
g59
NtRp640
(dp641
g62
(dp642
g89
g90
ssg71
g632
sg64
(lp643
S':'
asbag57
(g78
g59
NtRp644
(dp645
g62
(dp646
sg71
g632
sg64
(lp647
g57
(g58
g59
NtRp648
(dp649
g62
(dp650
g70
I3
ssg71
g644
sg64
(lp651
S''
asbasbasbasbasbasbasbag57
(g73
g59
NtRp652
(dp653
g62
(dp654
sg71
g268
sg64
(lp655
g57
(g78
g59
NtRp656
(dp657
g62
(dp658
g82
g83
ssg71
g652
sg64
(lp659
S'session_id_welcome'
p660
asbag57
(g78
g59
NtRp661
(dp662
g62
(dp663
g89
g90
ssg71
g652
sg64
(lp664
S':'
asbag57
(g78
g59
NtRp665
(dp666
g62
(dp667
sg71
g652
sg64
(lp668
g57
(g58
g59
NtRp669
(dp670
g62
(dp671
g70
I4
ssg71
g665
sg64
(lp672
S'127.0.0.1-85cf6716-f458-4c20-b470-30e58294b230'
p673
ag57
(g66
g59
NtRp674
(dp675
g62
(dp676
g70
I3
ssg71
Nsg64
(lp677
g57
(g73
g59
NtRp678
(dp679
g62
(dp680
sg71
g674
sg64
(lp681
g57
(g78
g59
NtRp682
(dp683
g62
(dp684
g82
g83
ssg71
g678
sg64
(lp685
g306
asbag57
(g78
g59
NtRp686
(dp687
g62
(dp688
g89
g90
ssg71
g678
sg64
(lp689
S':'
asbag57
(g78
g59
NtRp690
(dp691
g62
(dp692
sg71
g678
sg64
(lp693
g57
(g58
g59
NtRp694
(dp695
g62
(dp696
g70
I3
ssg71
g690
sg64
(lp697
S''
asbasbasbag57
(g73
g59
NtRp698
(dp699
g62
(dp700
sg71
g674
sg64
(lp701
g57
(g78
g59
NtRp702
(dp703
g62
(dp704
g82
g83
ssg71
g698
sg64
(lp705
g327
asbag57
(g78
g59
NtRp706
(dp707
g62
(dp708
g89
g90
ssg71
g698
sg64
(lp709
S':'
asbag57
(g78
g59
NtRp710
(dp711
g62
(dp712
sg71
g698
sg64
(lp713
g57
(g58
g59
NtRp714
(dp715
g62
(dp716
g70
I3
ssg71
g710
sg64
(lp717
S''
asbasbasbag57
(g73
g59
NtRp718
(dp719
g62
(dp720
sg71
g674
sg64
(lp721
g57
(g78
g59
NtRp722
(dp723
g62
(dp724
g82
g83
ssg71
g718
sg64
(lp725
g348
asbag57
(g78
g59
NtRp726
(dp727
g62
(dp728
g89
g90
ssg71
g718
sg64
(lp729
S':'
asbag57
(g78
g59
NtRp730
(dp731
g62
(dp732
sg71
g718
sg64
(lp733
g57
(g58
g59
NtRp734
(dp735
g62
(dp736
g70
I3
ssg71
g730
sg64
(lp737
S''
asbasbasbag57
(g73
g59
NtRp738
(dp739
g62
(dp740
sg71
g674
sg64
(lp741
g57
(g78
g59
NtRp742
(dp743
g62
(dp744
g82
g83
ssg71
g738
sg64
(lp745
g369
asbag57
(g78
g59
NtRp746
(dp747
g62
(dp748
g89
g90
ssg71
g738
sg64
(lp749
S':'
asbag57
(g78
g59
NtRp750
(dp751
g62
(dp752
sg71
g738
sg64
(lp753
g57
(g58
g59
NtRp754
(dp755
g62
(dp756
g70
I3
ssg71
g750
sg64
(lp757
S''
asbasbasbag57
(g73
g59
NtRp758
(dp759
g62
(dp760
sg71
g674
sg64
(lp761
g57
(g78
g59
NtRp762
(dp763
g62
(dp764
g82
g83
ssg71
g758
sg64
(lp765
g390
asbag57
(g78
g59
NtRp766
(dp767
g62
(dp768
g89
g90
ssg71
g758
sg64
(lp769
S':'
asbag57
(g78
g59
NtRp770
(dp771
g62
(dp772
sg71
g758
sg64
(lp773
g57
(g58
g59
NtRp774
(dp775
g62
(dp776
g70
I3
ssg71
g770
sg64
(lp777
S''
asbasbasbag57
(g73
g59
NtRp778
(dp779
g62
(dp780
sg71
g674
sg64
(lp781
g57
(g78
g59
NtRp782
(dp783
g62
(dp784
g82
g83
ssg71
g778
sg64
(lp785
g411
asbag57
(g78
g59
NtRp786
(dp787
g62
(dp788
g89
g90
ssg71
g778
sg64
(lp789
S':'
asbag57
(g78
g59
NtRp790
(dp791
g62
(dp792
sg71
g778
sg64
(lp793
g57
(g58
g59
NtRp794
(dp795
g62
(dp796
g70
I3
ssg71
g790
sg64
(lp797
S''
asbasbasbag57
(g73
g59
NtRp798
(dp799
g62
(dp800
sg71
g674
sg64
(lp801
g57
(g78
g59
NtRp802
(dp803
g62
(dp804
g82
g83
ssg71
g798
sg64
(lp805
g432
asbag57
(g78
g59
NtRp806
(dp807
g62
(dp808
g89
g90
ssg71
g798
sg64
(lp809
S':'
asbag57
(g78
g59
NtRp810
(dp811
g62
(dp812
sg71
g798
sg64
(lp813
g57
(g58
g59
NtRp814
(dp815
g62
(dp816
g70
I3
ssg71
g810
sg64
(lp817
S''
asbasbasbag57
(g73
g59
NtRp818
(dp819
g62
(dp820
sg71
g674
sg64
(lp821
g57
(g78
g59
NtRp822
(dp823
g62
(dp824
g82
g83
ssg71
g818
sg64
(lp825
g453
asbag57
(g78
g59
NtRp826
(dp827
g62
(dp828
g89
g90
ssg71
g818
sg64
(lp829
S':'
asbag57
(g78
g59
NtRp830
(dp831
g62
(dp832
sg71
g818
sg64
(lp833
g57
(g58
g59
NtRp834
(dp835
g62
(dp836
g70
I3
ssg71
g830
sg64
(lp837
S''
asbasbasbasbasbasbasbasbasbasbasbag57
(g73
g59
NtRp838
(dp839
g62
(dp840
sg71
g67
sg64
(lp841
g57
(g78
g59
NtRp842
(dp843
g62
(dp844
g82
g83
ssg71
g838
sg64
(lp845
S'env'
p846
asbag57
(g78
g59
NtRp847
(dp848
g62
(dp849
g89
g90
ssg71
g838
sg64
(lp850
S':'
asbag57
(g78
g59
NtRp851
(dp852
g62
(dp853
sg71
g838
sg64
(lp854
g57
(g58
g59
NtRp855
(dp856
g62
(dp857
g70
I5
ssg71
g851
sg64
(lp858
g57
(g66
g59
NtRp859
(dp860
g62
(dp861
g70
I4
ssg71
Nsg64
(lp862
g57
(g73
g59
NtRp863
(dp864
g62
(dp865
sg71
g859
sg64
(lp866
g57
(g78
g59
NtRp867
(dp868
g62
(dp869
g82
g83
ssg71
g863
sg64
(lp870
S'app_folders'
p871
asbag57
(g78
g59
NtRp872
(dp873
g62
(dp874
g89
g90
ssg71
g863
sg64
(lp875
S':'
asbag57
(g78
g59
NtRp876
(dp877
g62
(dp878
sg71
g863
sg64
(lp879
g57
(g58
g59
NtRp880
(dp881
g62
(dp882
g70
I4
ssg71
g876
sg64
(lp883
S"set(['D:\\\\web2py_win\\\\web2py\\\\applications\\\\welcome\\\\', 'D:\\\\web2py_win\\\\web2py\\\\applications\\\\admin\\\\', 'D:\\\\web2py_win\\\\web2py\\\\applications\\\\QSunTasteBudsV2\\\\'])"
p884
asbasbasbag57
(g73
g59
NtRp885
(dp886
g62
(dp887
sg71
g859
sg64
(lp888
g57
(g78
g59
NtRp889
(dp890
g62
(dp891
g82
g83
ssg71
g885
sg64
(lp892
S'applications_parent'
p893
asbag57
(g78
g59
NtRp894
(dp895
g62
(dp896
g89
g90
ssg71
g885
sg64
(lp897
S':'
asbag57
(g78
g59
NtRp898
(dp899
g62
(dp900
sg71
g885
sg64
(lp901
g57
(g58
g59
NtRp902
(dp903
g62
(dp904
g70
I4
ssg71
g898
sg64
(lp905
S'D:\\web2py_win\\web2py'
p906
asbasbasbag57
(g73
g59
NtRp907
(dp908
g62
(dp909
sg71
g859
sg64
(lp910
g57
(g78
g59
NtRp911
(dp912
g62
(dp913
g82
g83
ssg71
g907
sg64
(lp914
S'cmd_args'
p915
asbag57
(g78
g59
NtRp916
(dp917
g62
(dp918
g89
g90
ssg71
g907
sg64
(lp919
S':'
asbag57
(g78
g59
NtRp920
(dp921
g62
(dp922
sg71
g907
sg64
(lp923
g57
(g58
g59
NtRp924
(dp925
g62
(dp926
g70
I4
ssg71
g920
sg64
(lp927
g57
(g66
g59
NtRp928
(dp929
g62
(dp930
g70
I3
ssg71
Nsg64
(lp931
sbasbasbasbag57
(g73
g59
NtRp932
(dp933
g62
(dp934
sg71
g859
sg64
(lp935
g57
(g78
g59
NtRp936
(dp937
g62
(dp938
g82
g83
ssg71
g932
sg64
(lp939
S'cmd_options'
p940
asbag57
(g78
g59
NtRp941
(dp942
g62
(dp943
g89
g90
ssg71
g932
sg64
(lp944
S':'
asbag57
(g78
g59
NtRp945
(dp946
g62
(dp947
sg71
g932
sg64
(lp948
g57
(g58
g59
NtRp949
(dp950
g62
(dp951
g70
I4
ssg71
g945
sg64
(lp952
S"<Values at 0x17494b8: {'verbose': False, 'ip': '127.0.0.1', 'with_scheduler': False, 'ips': [], 'shutdown_timeout': 5, 'taskbar': False, 'port': 8000, 'maxthreads': None, 'softcron': False, 'server_name': 'MICROSOF-F36848', 'bpython': False, 'nogui': False, 'nocron': False, 'extcron': False, 'run_system_tests': False, 'test': None, 'folder': 'D:\\\\web2py_win\\\\web2py', 'config': '', 'import_models': False, 'winservice': '', 'shell': None, 'run': '', 'log_filename': 'httpserver.log', 'debuglevel': 30, 'args': [''], 'socket_timeout': 5, 'ssl_ca_certificate': None, 'scheduler': None, 'profiler_filename': None, 'ssl_private_key': '', 'scheduler_groups': None, 'password': '<ask>', 'request_queue_size': 5, 'ssl_certificate': '', 'cronjob': False, 'numthreads': None, 'quiet': False, 'interfaces': None, 'minthreads': None, 'timeout': 10, 'plain': False, 'nobanner': False, 'pid_filename': 'httpserver.pid'}>"
p953
asbasbasbag57
(g73
g59
NtRp954
(dp955
g62
(dp956
sg71
g859
sg64
(lp957
g57
(g78
g59
NtRp958
(dp959
g62
(dp960
g82
g83
ssg71
g954
sg64
(lp961
S'content_length'
p962
asbag57
(g78
g59
NtRp963
(dp964
g62
(dp965
g89
g90
ssg71
g954
sg64
(lp966
S':'
asbag57
(g78
g59
NtRp967
(dp968
g62
(dp969
sg71
g954
sg64
(lp970
g57
(g58
g59
NtRp971
(dp972
g62
(dp973
g70
I4
ssg71
g967
sg64
(lp974
S'284'
p975
asbasbasbag57
(g73
g59
NtRp976
(dp977
g62
(dp978
sg71
g859
sg64
(lp979
g57
(g78
g59
NtRp980
(dp981
g62
(dp982
g82
g83
ssg71
g976
sg64
(lp983
S'content_type'
p984
asbag57
(g78
g59
NtRp985
(dp986
g62
(dp987
g89
g90
ssg71
g976
sg64
(lp988
S':'
asbag57
(g78
g59
NtRp989
(dp990
g62
(dp991
sg71
g976
sg64
(lp992
g57
(g58
g59
NtRp993
(dp994
g62
(dp995
g70
I4
ssg71
g989
sg64
(lp996
S'multipart/form-data; boundary=---------------------------7dc33c3710628'
p997
asbasbasbag57
(g73
g59
NtRp998
(dp999
g62
(dp1000
sg71
g859
sg64
(lp1001
g57
(g78
g59
NtRp1002
(dp1003
g62
(dp1004
g82
g83
ssg71
g998
sg64
(lp1005
S'db_sessions'
p1006
asbag57
(g78
g59
NtRp1007
(dp1008
g62
(dp1009
g89
g90
ssg71
g998
sg64
(lp1010
S':'
asbag57
(g78
g59
NtRp1011
(dp1012
g62
(dp1013
sg71
g998
sg64
(lp1014
g57
(g58
g59
NtRp1015
(dp1016
g62
(dp1017
g70
I4
ssg71
g1011
sg64
(lp1018
S'set([])'
p1019
asbasbasbag57
(g73
g59
NtRp1020
(dp1021
g62
(dp1022
sg71
g859
sg64
(lp1023
g57
(g78
g59
NtRp1024
(dp1025
g62
(dp1026
g82
g83
ssg71
g1020
sg64
(lp1027
S'debugging'
p1028
asbag57
(g78
g59
NtRp1029
(dp1030
g62
(dp1031
g89
g90
ssg71
g1020
sg64
(lp1032
S':'
asbag57
(g78
g59
NtRp1033
(dp1034
g62
(dp1035
sg71
g1020
sg64
(lp1036
g57
(g58
g59
NtRp1037
(dp1038
g62
(dp1039
g70
I4
ssg71
g1033
sg64
(lp1040
g100
asbasbasbag57
(g73
g59
NtRp1041
(dp1042
g62
(dp1043
sg71
g859
sg64
(lp1044
g57
(g78
g59
NtRp1045
(dp1046
g62
(dp1047
g82
g83
ssg71
g1041
sg64
(lp1048
S'gluon_parent'
p1049
asbag57
(g78
g59
NtRp1050
(dp1051
g62
(dp1052
g89
g90
ssg71
g1041
sg64
(lp1053
S':'
asbag57
(g78
g59
NtRp1054
(dp1055
g62
(dp1056
sg71
g1041
sg64
(lp1057
g57
(g58
g59
NtRp1058
(dp1059
g62
(dp1060
g70
I4
ssg71
g1054
sg64
(lp1061
S'D:\\web2py_win\\web2py'
p1062
asbasbasbag57
(g73
g59
NtRp1063
(dp1064
g62
(dp1065
sg71
g859
sg64
(lp1066
g57
(g78
g59
NtRp1067
(dp1068
g62
(dp1069
g82
g83
ssg71
g1063
sg64
(lp1070
S'http_accept'
p1071
asbag57
(g78
g59
NtRp1072
(dp1073
g62
(dp1074
g89
g90
ssg71
g1063
sg64
(lp1075
S':'
asbag57
(g78
g59
NtRp1076
(dp1077
g62
(dp1078
sg71
g1063
sg64
(lp1079
g57
(g58
g59
NtRp1080
(dp1081
g62
(dp1082
g70
I4
ssg71
g1076
sg64
(lp1083
S'image/gif, image/jpeg, image/pjpeg, image/pjpeg, application/x-shockwave-flash, application/xaml+xml, application/x-ms-xbap, application/x-ms-application, application/vnd.ms-excel, application/vnd.ms-powerpoint, application/msword, application/QVOD, application/QVOD, */*'
p1084
asbasbasbag57
(g73
g59
NtRp1085
(dp1086
g62
(dp1087
sg71
g859
sg64
(lp1088
g57
(g78
g59
NtRp1089
(dp1090
g62
(dp1091
g82
g83
ssg71
g1085
sg64
(lp1092
S'http_accept_encoding'
p1093
asbag57
(g78
g59
NtRp1094
(dp1095
g62
(dp1096
g89
g90
ssg71
g1085
sg64
(lp1097
S':'
asbag57
(g78
g59
NtRp1098
(dp1099
g62
(dp1100
sg71
g1085
sg64
(lp1101
g57
(g58
g59
NtRp1102
(dp1103
g62
(dp1104
g70
I4
ssg71
g1098
sg64
(lp1105
S'gzip, deflate'
p1106
asbasbasbag57
(g73
g59
NtRp1107
(dp1108
g62
(dp1109
sg71
g859
sg64
(lp1110
g57
(g78
g59
NtRp1111
(dp1112
g62
(dp1113
g82
g83
ssg71
g1107
sg64
(lp1114
S'http_accept_language'
p1115
asbag57
(g78
g59
NtRp1116
(dp1117
g62
(dp1118
g89
g90
ssg71
g1107
sg64
(lp1119
S':'
asbag57
(g78
g59
NtRp1120
(dp1121
g62
(dp1122
sg71
g1107
sg64
(lp1123
g57
(g58
g59
NtRp1124
(dp1125
g62
(dp1126
g70
I4
ssg71
g1120
sg64
(lp1127
S'en-US,zh-cn;q=0.5'
p1128
asbasbasbag57
(g73
g59
NtRp1129
(dp1130
g62
(dp1131
sg71
g859
sg64
(lp1132
g57
(g78
g59
NtRp1133
(dp1134
g62
(dp1135
g82
g83
ssg71
g1129
sg64
(lp1136
S'http_cache_control'
p1137
asbag57
(g78
g59
NtRp1138
(dp1139
g62
(dp1140
g89
g90
ssg71
g1129
sg64
(lp1141
S':'
asbag57
(g78
g59
NtRp1142
(dp1143
g62
(dp1144
sg71
g1129
sg64
(lp1145
g57
(g58
g59
NtRp1146
(dp1147
g62
(dp1148
g70
I4
ssg71
g1142
sg64
(lp1149
S'no-cache'
p1150
asbasbasbag57
(g73
g59
NtRp1151
(dp1152
g62
(dp1153
sg71
g859
sg64
(lp1154
g57
(g78
g59
NtRp1155
(dp1156
g62
(dp1157
g82
g83
ssg71
g1151
sg64
(lp1158
S'http_connection'
p1159
asbag57
(g78
g59
NtRp1160
(dp1161
g62
(dp1162
g89
g90
ssg71
g1151
sg64
(lp1163
S':'
asbag57
(g78
g59
NtRp1164
(dp1165
g62
(dp1166
sg71
g1151
sg64
(lp1167
g57
(g58
g59
NtRp1168
(dp1169
g62
(dp1170
g70
I4
ssg71
g1164
sg64
(lp1171
S'Keep-Alive'
p1172
asbasbasbag57
(g73
g59
NtRp1173
(dp1174
g62
(dp1175
sg71
g859
sg64
(lp1176
g57
(g78
g59
NtRp1177
(dp1178
g62
(dp1179
g82
g83
ssg71
g1173
sg64
(lp1180
S'http_content_length'
p1181
asbag57
(g78
g59
NtRp1182
(dp1183
g62
(dp1184
g89
g90
ssg71
g1173
sg64
(lp1185
S':'
asbag57
(g78
g59
NtRp1186
(dp1187
g62
(dp1188
sg71
g1173
sg64
(lp1189
g57
(g58
g59
NtRp1190
(dp1191
g62
(dp1192
g70
I4
ssg71
g1186
sg64
(lp1193
g975
asbasbasbag57
(g73
g59
NtRp1194
(dp1195
g62
(dp1196
sg71
g859
sg64
(lp1197
g57
(g78
g59
NtRp1198
(dp1199
g62
(dp1200
g82
g83
ssg71
g1194
sg64
(lp1201
S'http_content_type'
p1202
asbag57
(g78
g59
NtRp1203
(dp1204
g62
(dp1205
g89
g90
ssg71
g1194
sg64
(lp1206
S':'
asbag57
(g78
g59
NtRp1207
(dp1208
g62
(dp1209
sg71
g1194
sg64
(lp1210
g57
(g58
g59
NtRp1211
(dp1212
g62
(dp1213
g70
I4
ssg71
g1207
sg64
(lp1214
g997
asbasbasbag57
(g73
g59
NtRp1215
(dp1216
g62
(dp1217
sg71
g859
sg64
(lp1218
g57
(g78
g59
NtRp1219
(dp1220
g62
(dp1221
g82
g83
ssg71
g1215
sg64
(lp1222
S'http_cookie'
p1223
asbag57
(g78
g59
NtRp1224
(dp1225
g62
(dp1226
g89
g90
ssg71
g1215
sg64
(lp1227
S':'
asbag57
(g78
g59
NtRp1228
(dp1229
g62
(dp1230
sg71
g1215
sg64
(lp1231
g57
(g58
g59
NtRp1232
(dp1233
g62
(dp1234
g70
I4
ssg71
g1228
sg64
(lp1235
S'session_id_welcome=127.0.0.1-85cf6716-f458-4c20-b470-30e58294b230; session_id_admin=127.0.0.1-304ee069-1576-4fbf-bd8b-3f7ad31c7229; session_id_qsuntastebudsv2=127.0.0.1-03c509ec-2cef-426f-a88b-6eb0c079c2a6'
p1236
asbasbasbag57
(g73
g59
NtRp1237
(dp1238
g62
(dp1239
sg71
g859
sg64
(lp1240
g57
(g78
g59
NtRp1241
(dp1242
g62
(dp1243
g82
g83
ssg71
g1237
sg64
(lp1244
S'http_host'
p1245
asbag57
(g78
g59
NtRp1246
(dp1247
g62
(dp1248
g89
g90
ssg71
g1237
sg64
(lp1249
S':'
asbag57
(g78
g59
NtRp1250
(dp1251
g62
(dp1252
sg71
g1237
sg64
(lp1253
g57
(g58
g59
NtRp1254
(dp1255
g62
(dp1256
g70
I4
ssg71
g1250
sg64
(lp1257
S'127.0.0.1:8000'
p1258
asbasbasbag57
(g73
g59
NtRp1259
(dp1260
g62
(dp1261
sg71
g859
sg64
(lp1262
g57
(g78
g59
NtRp1263
(dp1264
g62
(dp1265
g82
g83
ssg71
g1259
sg64
(lp1266
S'http_referer'
p1267
asbag57
(g78
g59
NtRp1268
(dp1269
g62
(dp1270
g89
g90
ssg71
g1259
sg64
(lp1271
S':'
asbag57
(g78
g59
NtRp1272
(dp1273
g62
(dp1274
sg71
g1259
sg64
(lp1275
g57
(g58
g59
NtRp1276
(dp1277
g62
(dp1278
g70
I4
ssg71
g1272
sg64
(lp1279
S'http://127.0.0.1:8000/QSunTasteBudsV2/default/readRestaurant/5'
p1280
asbasbasbag57
(g73
g59
NtRp1281
(dp1282
g62
(dp1283
sg71
g859
sg64
(lp1284
g57
(g78
g59
NtRp1285
(dp1286
g62
(dp1287
g82
g83
ssg71
g1281
sg64
(lp1288
S'http_user_agent'
p1289
asbag57
(g78
g59
NtRp1290
(dp1291
g62
(dp1292
g89
g90
ssg71
g1281
sg64
(lp1293
S':'
asbag57
(g78
g59
NtRp1294
(dp1295
g62
(dp1296
sg71
g1281
sg64
(lp1297
g57
(g58
g59
NtRp1298
(dp1299
g62
(dp1300
g70
I4
ssg71
g1294
sg64
(lp1301
S'Mozilla/4.0 (compatible; MSIE 8.0; Windows NT 5.1; Trident/4.0; .NET4.0C; .NET4.0E; InfoPath.2; .NET CLR 2.0.50727; .NET CLR 3.0.04506.30)'
p1302
asbasbasbag57
(g73
g59
NtRp1303
(dp1304
g62
(dp1305
sg71
g859
sg64
(lp1306
g57
(g78
g59
NtRp1307
(dp1308
g62
(dp1309
g82
g83
ssg71
g1303
sg64
(lp1310
S'is_jython'
p1311
asbag57
(g78
g59
NtRp1312
(dp1313
g62
(dp1314
g89
g90
ssg71
g1303
sg64
(lp1315
S':'
asbag57
(g78
g59
NtRp1316
(dp1317
g62
(dp1318
sg71
g1303
sg64
(lp1319
g57
(g58
g59
NtRp1320
(dp1321
g62
(dp1322
g70
I4
ssg71
g1316
sg64
(lp1323
g100
asbasbasbag57
(g73
g59
NtRp1324
(dp1325
g62
(dp1326
sg71
g859
sg64
(lp1327
g57
(g78
g59
NtRp1328
(dp1329
g62
(dp1330
g82
g83
ssg71
g1324
sg64
(lp1331
S'is_pypy'
p1332
asbag57
(g78
g59
NtRp1333
(dp1334
g62
(dp1335
g89
g90
ssg71
g1324
sg64
(lp1336
S':'
asbag57
(g78
g59
NtRp1337
(dp1338
g62
(dp1339
sg71
g1324
sg64
(lp1340
g57
(g58
g59
NtRp1341
(dp1342
g62
(dp1343
g70
I4
ssg71
g1337
sg64
(lp1344
g100
asbasbasbag57
(g73
g59
NtRp1345
(dp1346
g62
(dp1347
sg71
g859
sg64
(lp1348
g57
(g78
g59
NtRp1349
(dp1350
g62
(dp1351
g82
g83
ssg71
g1345
sg64
(lp1352
S'path_info'
p1353
asbag57
(g78
g59
NtRp1354
(dp1355
g62
(dp1356
g89
g90
ssg71
g1345
sg64
(lp1357
S':'
asbag57
(g78
g59
NtRp1358
(dp1359
g62
(dp1360
sg71
g1345
sg64
(lp1361
g57
(g58
g59
NtRp1362
(dp1363
g62
(dp1364
g70
I4
ssg71
g1358
sg64
(lp1365
S'/QSunTasteBudsV2/default/readRestaurant/5'
p1366
asbasbasbag57
(g73
g59
NtRp1367
(dp1368
g62
(dp1369
sg71
g859
sg64
(lp1370
g57
(g78
g59
NtRp1371
(dp1372
g62
(dp1373
g82
g83
ssg71
g1367
sg64
(lp1374
S'query_string'
p1375
asbag57
(g78
g59
NtRp1376
(dp1377
g62
(dp1378
g89
g90
ssg71
g1367
sg64
(lp1379
S':'
asbag57
(g78
g59
NtRp1380
(dp1381
g62
(dp1382
sg71
g1367
sg64
(lp1383
g57
(g58
g59
NtRp1384
(dp1385
g62
(dp1386
g70
I4
ssg71
g1380
sg64
(lp1387
S''
asbasbasbag57
(g73
g59
NtRp1388
(dp1389
g62
(dp1390
sg71
g859
sg64
(lp1391
g57
(g78
g59
NtRp1392
(dp1393
g62
(dp1394
g82
g83
ssg71
g1388
sg64
(lp1395
S'remote_addr'
p1396
asbag57
(g78
g59
NtRp1397
(dp1398
g62
(dp1399
g89
g90
ssg71
g1388
sg64
(lp1400
S':'
asbag57
(g78
g59
NtRp1401
(dp1402
g62
(dp1403
sg71
g1388
sg64
(lp1404
g57
(g58
g59
NtRp1405
(dp1406
g62
(dp1407
g70
I4
ssg71
g1401
sg64
(lp1408
g224
asbasbasbag57
(g73
g59
NtRp1409
(dp1410
g62
(dp1411
sg71
g859
sg64
(lp1412
g57
(g78
g59
NtRp1413
(dp1414
g62
(dp1415
g82
g83
ssg71
g1409
sg64
(lp1416
S'remote_port'
p1417
asbag57
(g78
g59
NtRp1418
(dp1419
g62
(dp1420
g89
g90
ssg71
g1409
sg64
(lp1421
S':'
asbag57
(g78
g59
NtRp1422
(dp1423
g62
(dp1424
sg71
g1409
sg64
(lp1425
g57
(g58
g59
NtRp1426
(dp1427
g62
(dp1428
g70
I4
ssg71
g1422
sg64
(lp1429
S'2063'
p1430
asbasbasbag57
(g73
g59
NtRp1431
(dp1432
g62
(dp1433
sg71
g859
sg64
(lp1434
g57
(g78
g59
NtRp1435
(dp1436
g62
(dp1437
g82
g83
ssg71
g1431
sg64
(lp1438
S'request_method'
p1439
asbag57
(g78
g59
NtRp1440
(dp1441
g62
(dp1442
g89
g90
ssg71
g1431
sg64
(lp1443
S':'
asbag57
(g78
g59
NtRp1444
(dp1445
g62
(dp1446
sg71
g1431
sg64
(lp1447
g57
(g58
g59
NtRp1448
(dp1449
g62
(dp1450
g70
I4
ssg71
g1444
sg64
(lp1451
S'POST'
p1452
asbasbasbag57
(g73
g59
NtRp1453
(dp1454
g62
(dp1455
sg71
g859
sg64
(lp1456
g57
(g78
g59
NtRp1457
(dp1458
g62
(dp1459
g82
g83
ssg71
g1453
sg64
(lp1460
S'request_uri'
p1461
asbag57
(g78
g59
NtRp1462
(dp1463
g62
(dp1464
g89
g90
ssg71
g1453
sg64
(lp1465
S':'
asbag57
(g78
g59
NtRp1466
(dp1467
g62
(dp1468
sg71
g1453
sg64
(lp1469
g57
(g58
g59
NtRp1470
(dp1471
g62
(dp1472
g70
I4
ssg71
g1466
sg64
(lp1473
g1366
asbasbasbag57
(g73
g59
NtRp1474
(dp1475
g62
(dp1476
sg71
g859
sg64
(lp1477
g57
(g78
g59
NtRp1478
(dp1479
g62
(dp1480
g82
g83
ssg71
g1474
sg64
(lp1481
S'script_name'
p1482
asbag57
(g78
g59
NtRp1483
(dp1484
g62
(dp1485
g89
g90
ssg71
g1474
sg64
(lp1486
S':'
asbag57
(g78
g59
NtRp1487
(dp1488
g62
(dp1489
sg71
g1474
sg64
(lp1490
g57
(g58
g59
NtRp1491
(dp1492
g62
(dp1493
g70
I4
ssg71
g1487
sg64
(lp1494
S''
asbasbasbag57
(g73
g59
NtRp1495
(dp1496
g62
(dp1497
sg71
g859
sg64
(lp1498
g57
(g78
g59
NtRp1499
(dp1500
g62
(dp1501
g82
g83
ssg71
g1495
sg64
(lp1502
S'server_name'
p1503
asbag57
(g78
g59
NtRp1504
(dp1505
g62
(dp1506
g89
g90
ssg71
g1495
sg64
(lp1507
S':'
asbag57
(g78
g59
NtRp1508
(dp1509
g62
(dp1510
sg71
g1495
sg64
(lp1511
g57
(g58
g59
NtRp1512
(dp1513
g62
(dp1514
g70
I4
ssg71
g1508
sg64
(lp1515
S'MICROSOF-F36848'
p1516
asbasbasbag57
(g73
g59
NtRp1517
(dp1518
g62
(dp1519
sg71
g859
sg64
(lp1520
g57
(g78
g59
NtRp1521
(dp1522
g62
(dp1523
g82
g83
ssg71
g1517
sg64
(lp1524
S'server_port'
p1525
asbag57
(g78
g59
NtRp1526
(dp1527
g62
(dp1528
g89
g90
ssg71
g1517
sg64
(lp1529
S':'
asbag57
(g78
g59
NtRp1530
(dp1531
g62
(dp1532
sg71
g1517
sg64
(lp1533
g57
(g58
g59
NtRp1534
(dp1535
g62
(dp1536
g70
I4
ssg71
g1530
sg64
(lp1537
S'8000'
p1538
asbasbasbag57
(g73
g59
NtRp1539
(dp1540
g62
(dp1541
sg71
g859
sg64
(lp1542
g57
(g78
g59
NtRp1543
(dp1544
g62
(dp1545
g82
g83
ssg71
g1539
sg64
(lp1546
S'server_protocol'
p1547
asbag57
(g78
g59
NtRp1548
(dp1549
g62
(dp1550
g89
g90
ssg71
g1539
sg64
(lp1551
S':'
asbag57
(g78
g59
NtRp1552
(dp1553
g62
(dp1554
sg71
g1539
sg64
(lp1555
g57
(g58
g59
NtRp1556
(dp1557
g62
(dp1558
g70
I4
ssg71
g1552
sg64
(lp1559
S'HTTP/1.1'
p1560
asbasbasbag57
(g73
g59
NtRp1561
(dp1562
g62
(dp1563
sg71
g859
sg64
(lp1564
g57
(g78
g59
NtRp1565
(dp1566
g62
(dp1567
g82
g83
ssg71
g1561
sg64
(lp1568
S'server_software'
p1569
asbag57
(g78
g59
NtRp1570
(dp1571
g62
(dp1572
g89
g90
ssg71
g1561
sg64
(lp1573
S':'
asbag57
(g78
g59
NtRp1574
(dp1575
g62
(dp1576
sg71
g1561
sg64
(lp1577
g57
(g58
g59
NtRp1578
(dp1579
g62
(dp1580
g70
I4
ssg71
g1574
sg64
(lp1581
S'Rocket 1.2.4'
p1582
asbasbasbag57
(g73
g59
NtRp1583
(dp1584
g62
(dp1585
sg71
g859
sg64
(lp1586
g57
(g78
g59
NtRp1587
(dp1588
g62
(dp1589
g82
g83
ssg71
g1583
sg64
(lp1590
S'web2py_crontype'
p1591
asbag57
(g78
g59
NtRp1592
(dp1593
g62
(dp1594
g89
g90
ssg71
g1583
sg64
(lp1595
S':'
asbag57
(g78
g59
NtRp1596
(dp1597
g62
(dp1598
sg71
g1583
sg64
(lp1599
g57
(g58
g59
NtRp1600
(dp1601
g62
(dp1602
g70
I4
ssg71
g1596
sg64
(lp1603
S'hard'
p1604
asbasbasbag57
(g73
g59
NtRp1605
(dp1606
g62
(dp1607
sg71
g859
sg64
(lp1608
g57
(g78
g59
NtRp1609
(dp1610
g62
(dp1611
g82
g83
ssg71
g1605
sg64
(lp1612
S'web2py_path'
p1613
asbag57
(g78
g59
NtRp1614
(dp1615
g62
(dp1616
g89
g90
ssg71
g1605
sg64
(lp1617
S':'
asbag57
(g78
g59
NtRp1618
(dp1619
g62
(dp1620
sg71
g1605
sg64
(lp1621
g57
(g58
g59
NtRp1622
(dp1623
g62
(dp1624
g70
I4
ssg71
g1618
sg64
(lp1625
g906
asbasbasbag57
(g73
g59
NtRp1626
(dp1627
g62
(dp1628
sg71
g859
sg64
(lp1629
g57
(g78
g59
NtRp1630
(dp1631
g62
(dp1632
g82
g83
ssg71
g1626
sg64
(lp1633
S'web2py_version'
p1634
asbag57
(g78
g59
NtRp1635
(dp1636
g62
(dp1637
g89
g90
ssg71
g1626
sg64
(lp1638
S':'
asbag57
(g78
g59
NtRp1639
(dp1640
g62
(dp1641
sg71
g1626
sg64
(lp1642
g57
(g58
g59
NtRp1643
(dp1644
g62
(dp1645
g70
I4
ssg71
g1639
sg64
(lp1646
g57
(g66
g59
NtRp1647
(dp1648
g62
(dp1649
g70
I3
ssg71
Nsg64
(lp1650
g57
(g73
g59
NtRp1651
(dp1652
g62
(dp1653
sg71
g1647
sg64
(lp1654
g57
(g78
g59
NtRp1655
(dp1656
g62
(dp1657
sg71
g1651
sg64
(lp1658
g57
(g58
g59
NtRp1659
(dp1660
g62
(dp1661
g70
I3
ssg71
g1655
sg64
(lp1662
S'2'
asbasbasbag57
(g73
g59
NtRp1663
(dp1664
g62
(dp1665
sg71
g1647
sg64
(lp1666
g57
(g78
g59
NtRp1667
(dp1668
g62
(dp1669
sg71
g1663
sg64
(lp1670
g57
(g58
g59
NtRp1671
(dp1672
g62
(dp1673
g70
I3
ssg71
g1667
sg64
(lp1674
S'0'
asbasbasbag57
(g73
g59
NtRp1675
(dp1676
g62
(dp1677
sg71
g1647
sg64
(lp1678
g57
(g78
g59
NtRp1679
(dp1680
g62
(dp1681
sg71
g1675
sg64
(lp1682
g57
(g58
g59
NtRp1683
(dp1684
g62
(dp1685
g70
I3
ssg71
g1679
sg64
(lp1686
S'9'
asbasbasbag57
(g73
g59
NtRp1687
(dp1688
g62
(dp1689
sg71
g1647
sg64
(lp1690
g57
(g78
g59
NtRp1691
(dp1692
g62
(dp1693
sg71
g1687
sg64
(lp1694
g57
(g58
g59
NtRp1695
(dp1696
g62
(dp1697
g70
I3
ssg71
g1691
sg64
(lp1698
S'datetime.datetime(2012, 9, 13, 23, 51, 30)'
p1699
asbasbasbag57
(g73
g59
NtRp1700
(dp1701
g62
(dp1702
sg71
g1647
sg64
(lp1703
g57
(g78
g59
NtRp1704
(dp1705
g62
(dp1706
sg71
g1700
sg64
(lp1707
g57
(g58
g59
NtRp1708
(dp1709
g62
(dp1710
g70
I3
ssg71
g1704
sg64
(lp1711
S'stable'
p1712
asbasbasbasbasbasbasbag57
(g73
g59
NtRp1713
(dp1714
g62
(dp1715
sg71
g859
sg64
(lp1716
g57
(g78
g59
NtRp1717
(dp1718
g62
(dp1719
g82
g83
ssg71
g1713
sg64
(lp1720
S'wsgi_errors'
p1721
asbag57
(g78
g59
NtRp1722
(dp1723
g62
(dp1724
g89
g90
ssg71
g1713
sg64
(lp1725
S':'
asbag57
(g78
g59
NtRp1726
(dp1727
g62
(dp1728
sg71
g1713
sg64
(lp1729
g57
(g58
g59
NtRp1730
(dp1731
g62
(dp1732
g70
I4
ssg71
g1726
sg64
(lp1733
S"<open file '<stderr>', mode 'w' at 0x009350D0>"
p1734
asbasbasbag57
(g73
g59
NtRp1735
(dp1736
g62
(dp1737
sg71
g859
sg64
(lp1738
g57
(g78
g59
NtRp1739
(dp1740
g62
(dp1741
g82
g83
ssg71
g1735
sg64
(lp1742
S'wsgi_file_wrapper'
p1743
asbag57
(g78
g59
NtRp1744
(dp1745
g62
(dp1746
g89
g90
ssg71
g1735
sg64
(lp1747
S':'
asbag57
(g78
g59
NtRp1748
(dp1749
g62
(dp1750
sg71
g1735
sg64
(lp1751
g57
(g58
g59
NtRp1752
(dp1753
g62
(dp1754
g70
I4
ssg71
g1748
sg64
(lp1755
S'<class wsgiref.util.FileWrapper at 0x016DAF10>'
p1756
asbasbasbag57
(g73
g59
NtRp1757
(dp1758
g62
(dp1759
sg71
g859
sg64
(lp1760
g57
(g78
g59
NtRp1761
(dp1762
g62
(dp1763
g82
g83
ssg71
g1757
sg64
(lp1764
S'wsgi_input'
p1765
asbag57
(g78
g59
NtRp1766
(dp1767
g62
(dp1768
g89
g90
ssg71
g1757
sg64
(lp1769
S':'
asbag57
(g78
g59
NtRp1770
(dp1771
g62
(dp1772
sg71
g1757
sg64
(lp1773
g57
(g58
g59
NtRp1774
(dp1775
g62
(dp1776
g70
I4
ssg71
g1770
sg64
(lp1777
S'<socket._fileobject object at 0x03CAB2F0>'
p1778
asbasbasbag57
(g73
g59
NtRp1779
(dp1780
g62
(dp1781
sg71
g859
sg64
(lp1782
g57
(g78
g59
NtRp1783
(dp1784
g62
(dp1785
g82
g83
ssg71
g1779
sg64
(lp1786
S'wsgi_multiprocess'
p1787
asbag57
(g78
g59
NtRp1788
(dp1789
g62
(dp1790
g89
g90
ssg71
g1779
sg64
(lp1791
S':'
asbag57
(g78
g59
NtRp1792
(dp1793
g62
(dp1794
sg71
g1779
sg64
(lp1795
g57
(g58
g59
NtRp1796
(dp1797
g62
(dp1798
g70
I4
ssg71
g1792
sg64
(lp1799
g100
asbasbasbag57
(g73
g59
NtRp1800
(dp1801
g62
(dp1802
sg71
g859
sg64
(lp1803
g57
(g78
g59
NtRp1804
(dp1805
g62
(dp1806
g82
g83
ssg71
g1800
sg64
(lp1807
S'wsgi_multithread'
p1808
asbag57
(g78
g59
NtRp1809
(dp1810
g62
(dp1811
g89
g90
ssg71
g1800
sg64
(lp1812
S':'
asbag57
(g78
g59
NtRp1813
(dp1814
g62
(dp1815
sg71
g1800
sg64
(lp1816
g57
(g58
g59
NtRp1817
(dp1818
g62
(dp1819
g70
I4
ssg71
g1813
sg64
(lp1820
S'True'
p1821
asbasbasbag57
(g73
g59
NtRp1822
(dp1823
g62
(dp1824
sg71
g859
sg64
(lp1825
g57
(g78
g59
NtRp1826
(dp1827
g62
(dp1828
g82
g83
ssg71
g1822
sg64
(lp1829
S'wsgi_run_once'
p1830
asbag57
(g78
g59
NtRp1831
(dp1832
g62
(dp1833
g89
g90
ssg71
g1822
sg64
(lp1834
S':'
asbag57
(g78
g59
NtRp1835
(dp1836
g62
(dp1837
sg71
g1822
sg64
(lp1838
g57
(g58
g59
NtRp1839
(dp1840
g62
(dp1841
g70
I4
ssg71
g1835
sg64
(lp1842
g100
asbasbasbag57
(g73
g59
NtRp1843
(dp1844
g62
(dp1845
sg71
g859
sg64
(lp1846
g57
(g78
g59
NtRp1847
(dp1848
g62
(dp1849
g82
g83
ssg71
g1843
sg64
(lp1850
S'wsgi_url_scheme'
p1851
asbag57
(g78
g59
NtRp1852
(dp1853
g62
(dp1854
g89
g90
ssg71
g1843
sg64
(lp1855
S':'
asbag57
(g78
g59
NtRp1856
(dp1857
g62
(dp1858
sg71
g1843
sg64
(lp1859
g57
(g58
g59
NtRp1860
(dp1861
g62
(dp1862
g70
I4
ssg71
g1856
sg64
(lp1863
S'http'
p1864
asbasbasbag57
(g73
g59
NtRp1865
(dp1866
g62
(dp1867
sg71
g859
sg64
(lp1868
g57
(g78
g59
NtRp1869
(dp1870
g62
(dp1871
g82
g83
ssg71
g1865
sg64
(lp1872
S'wsgi_version'
p1873
asbag57
(g78
g59
NtRp1874
(dp1875
g62
(dp1876
g89
g90
ssg71
g1865
sg64
(lp1877
S':'
asbag57
(g78
g59
NtRp1878
(dp1879
g62
(dp1880
sg71
g1865
sg64
(lp1881
g57
(g58
g59
NtRp1882
(dp1883
g62
(dp1884
g70
I4
ssg71
g1878
sg64
(lp1885
g57
(g66
g59
NtRp1886
(dp1887
g62
(dp1888
g70
I3
ssg71
Nsg64
(lp1889
g57
(g73
g59
NtRp1890
(dp1891
g62
(dp1892
sg71
g1886
sg64
(lp1893
g57
(g78
g59
NtRp1894
(dp1895
g62
(dp1896
sg71
g1890
sg64
(lp1897
g57
(g58
g59
NtRp1898
(dp1899
g62
(dp1900
g70
I3
ssg71
g1894
sg64
(lp1901
S'1'
asbasbasbag57
(g73
g59
NtRp1902
(dp1903
g62
(dp1904
sg71
g1886
sg64
(lp1905
g57
(g78
g59
NtRp1906
(dp1907
g62
(dp1908
sg71
g1902
sg64
(lp1909
g57
(g58
g59
NtRp1910
(dp1911
g62
(dp1912
g70
I3
ssg71
g1906
sg64
(lp1913
S'0'
asbasbasbasbasbasbasbasbasbasbasbag57
(g73
g59
NtRp1914
(dp1915
g62
(dp1916
sg71
g67
sg64
(lp1917
g57
(g78
g59
NtRp1918
(dp1919
g62
(dp1920
g82
g83
ssg71
g1914
sg64
(lp1921
S'extension'
p1922
asbag57
(g78
g59
NtRp1923
(dp1924
g62
(dp1925
g89
g90
ssg71
g1914
sg64
(lp1926
S':'
asbag57
(g78
g59
NtRp1927
(dp1928
g62
(dp1929
sg71
g1914
sg64
(lp1930
g57
(g58
g59
NtRp1931
(dp1932
g62
(dp1933
g70
I5
ssg71
g1927
sg64
(lp1934
S'html'
p1935
asbasbasbag57
(g73
g59
NtRp1936
(dp1937
g62
(dp1938
sg71
g67
sg64
(lp1939
g57
(g78
g59
NtRp1940
(dp1941
g62
(dp1942
g82
g83
ssg71
g1936
sg64
(lp1943
S'folder'
p1944
asbag57
(g78
g59
NtRp1945
(dp1946
g62
(dp1947
g89
g90
ssg71
g1936
sg64
(lp1948
S':'
asbag57
(g78
g59
NtRp1949
(dp1950
g62
(dp1951
sg71
g1936
sg64
(lp1952
g57
(g58
g59
NtRp1953
(dp1954
g62
(dp1955
g70
I5
ssg71
g1949
sg64
(lp1956
S'D:\\web2py_win\\web2py\\applications\\QSunTasteBudsV2\\'
p1957
asbasbasbag57
(g73
g59
NtRp1958
(dp1959
g62
(dp1960
sg71
g67
sg64
(lp1961
g57
(g78
g59
NtRp1962
(dp1963
g62
(dp1964
g82
g83
ssg71
g1958
sg64
(lp1965
S'function'
p1966
asbag57
(g78
g59
NtRp1967
(dp1968
g62
(dp1969
g89
g90
ssg71
g1958
sg64
(lp1970
S':'
asbag57
(g78
g59
NtRp1971
(dp1972
g62
(dp1973
sg71
g1958
sg64
(lp1974
g57
(g58
g59
NtRp1975
(dp1976
g62
(dp1977
g70
I5
ssg71
g1971
sg64
(lp1978
S'readRestaurant'
p1979
asbasbasbag57
(g73
g59
NtRp1980
(dp1981
g62
(dp1982
sg71
g67
sg64
(lp1983
g57
(g78
g59
NtRp1984
(dp1985
g62
(dp1986
g82
g83
ssg71
g1980
sg64
(lp1987
S'get_vars'
p1988
asbag57
(g78
g59
NtRp1989
(dp1990
g62
(dp1991
g89
g90
ssg71
g1980
sg64
(lp1992
S':'
asbag57
(g78
g59
NtRp1993
(dp1994
g62
(dp1995
sg71
g1980
sg64
(lp1996
g57
(g58
g59
NtRp1997
(dp1998
g62
(dp1999
g70
I5
ssg71
g1993
sg64
(lp2000
g57
(g66
g59
NtRp2001
(dp2002
g62
(dp2003
g70
I4
ssg71
Nsg64
(lp2004
sbasbasbasbag57
(g73
g59
NtRp2005
(dp2006
g62
(dp2007
sg71
g67
sg64
(lp2008
g57
(g78
g59
NtRp2009
(dp2010
g62
(dp2011
g82
g83
ssg71
g2005
sg64
(lp2012
S'global_settings'
p2013
asbag57
(g78
g59
NtRp2014
(dp2015
g62
(dp2016
g89
g90
ssg71
g2005
sg64
(lp2017
S':'
asbag57
(g78
g59
NtRp2018
(dp2019
g62
(dp2020
sg71
g2005
sg64
(lp2021
g57
(g58
g59
NtRp2022
(dp2023
g62
(dp2024
g70
I5
ssg71
g2018
sg64
(lp2025
g57
(g66
g59
NtRp2026
(dp2027
g62
(dp2028
g70
I4
ssg71
Nsg64
(lp2029
g57
(g73
g59
NtRp2030
(dp2031
g62
(dp2032
sg71
g2026
sg64
(lp2033
g57
(g78
g59
NtRp2034
(dp2035
g62
(dp2036
g82
g83
ssg71
g2030
sg64
(lp2037
g871
asbag57
(g78
g59
NtRp2038
(dp2039
g62
(dp2040
g89
g90
ssg71
g2030
sg64
(lp2041
S':'
asbag57
(g78
g59
NtRp2042
(dp2043
g62
(dp2044
sg71
g2030
sg64
(lp2045
g57
(g58
g59
NtRp2046
(dp2047
g62
(dp2048
g70
I4
ssg71
g2042
sg64
(lp2049
S"set(['D:\\\\web2py_win\\\\web2py\\\\applications\\\\welcome\\\\', 'D:\\\\web2py_win\\\\web2py\\\\applications\\\\admin\\\\', 'D:\\\\web2py_win\\\\web2py\\\\applications\\\\QSunTasteBudsV2\\\\'])"
p2050
asbasbasbag57
(g73
g59
NtRp2051
(dp2052
g62
(dp2053
sg71
g2026
sg64
(lp2054
g57
(g78
g59
NtRp2055
(dp2056
g62
(dp2057
g82
g83
ssg71
g2051
sg64
(lp2058
g893
asbag57
(g78
g59
NtRp2059
(dp2060
g62
(dp2061
g89
g90
ssg71
g2051
sg64
(lp2062
S':'
asbag57
(g78
g59
NtRp2063
(dp2064
g62
(dp2065
sg71
g2051
sg64
(lp2066
g57
(g58
g59
NtRp2067
(dp2068
g62
(dp2069
g70
I4
ssg71
g2063
sg64
(lp2070
g906
asbasbasbag57
(g73
g59
NtRp2071
(dp2072
g62
(dp2073
sg71
g2026
sg64
(lp2074
g57
(g78
g59
NtRp2075
(dp2076
g62
(dp2077
g82
g83
ssg71
g2071
sg64
(lp2078
g915
asbag57
(g78
g59
NtRp2079
(dp2080
g62
(dp2081
g89
g90
ssg71
g2071
sg64
(lp2082
S':'
asbag57
(g78
g59
NtRp2083
(dp2084
g62
(dp2085
sg71
g2071
sg64
(lp2086
g57
(g58
g59
NtRp2087
(dp2088
g62
(dp2089
g70
I4
ssg71
g2083
sg64
(lp2090
g57
(g66
g59
NtRp2091
(dp2092
g62
(dp2093
g70
I3
ssg71
Nsg64
(lp2094
sbasbasbasbag57
(g73
g59
NtRp2095
(dp2096
g62
(dp2097
sg71
g2026
sg64
(lp2098
g57
(g78
g59
NtRp2099
(dp2100
g62
(dp2101
g82
g83
ssg71
g2095
sg64
(lp2102
g940
asbag57
(g78
g59
NtRp2103
(dp2104
g62
(dp2105
g89
g90
ssg71
g2095
sg64
(lp2106
S':'
asbag57
(g78
g59
NtRp2107
(dp2108
g62
(dp2109
sg71
g2095
sg64
(lp2110
g57
(g58
g59
NtRp2111
(dp2112
g62
(dp2113
g70
I4
ssg71
g2107
sg64
(lp2114
S"<Values at 0x17494b8: {'verbose': False, 'ip': '127.0.0.1', 'with_scheduler': False, 'ips': [], 'shutdown_timeout': 5, 'taskbar': False, 'port': 8000, 'maxthreads': None, 'softcron': False, 'server_name': 'MICROSOF-F36848', 'bpython': False, 'nogui': False, 'nocron': False, 'extcron': False, 'run_system_tests': False, 'test': None, 'folder': 'D:\\\\web2py_win\\\\web2py', 'config': '', 'import_models': False, 'winservice': '', 'shell': None, 'run': '', 'log_filename': 'httpserver.log', 'debuglevel': 30, 'args': [''], 'socket_timeout': 5, 'ssl_ca_certificate': None, 'scheduler': None, 'profiler_filename': None, 'ssl_private_key': '', 'scheduler_groups': None, 'password': '<ask>', 'request_queue_size': 5, 'ssl_certificate': '', 'cronjob': False, 'numthreads': None, 'quiet': False, 'interfaces': None, 'minthreads': None, 'timeout': 10, 'plain': False, 'nobanner': False, 'pid_filename': 'httpserver.pid'}>"
p2115
asbasbasbag57
(g73
g59
NtRp2116
(dp2117
g62
(dp2118
sg71
g2026
sg64
(lp2119
g57
(g78
g59
NtRp2120
(dp2121
g62
(dp2122
g82
g83
ssg71
g2116
sg64
(lp2123
g1006
asbag57
(g78
g59
NtRp2124
(dp2125
g62
(dp2126
g89
g90
ssg71
g2116
sg64
(lp2127
S':'
asbag57
(g78
g59
NtRp2128
(dp2129
g62
(dp2130
sg71
g2116
sg64
(lp2131
g57
(g58
g59
NtRp2132
(dp2133
g62
(dp2134
g70
I4
ssg71
g2128
sg64
(lp2135
S'set([])'
p2136
asbasbasbag57
(g73
g59
NtRp2137
(dp2138
g62
(dp2139
sg71
g2026
sg64
(lp2140
g57
(g78
g59
NtRp2141
(dp2142
g62
(dp2143
g82
g83
ssg71
g2137
sg64
(lp2144
g1028
asbag57
(g78
g59
NtRp2145
(dp2146
g62
(dp2147
g89
g90
ssg71
g2137
sg64
(lp2148
S':'
asbag57
(g78
g59
NtRp2149
(dp2150
g62
(dp2151
sg71
g2137
sg64
(lp2152
g57
(g58
g59
NtRp2153
(dp2154
g62
(dp2155
g70
I4
ssg71
g2149
sg64
(lp2156
g100
asbasbasbag57
(g73
g59
NtRp2157
(dp2158
g62
(dp2159
sg71
g2026
sg64
(lp2160
g57
(g78
g59
NtRp2161
(dp2162
g62
(dp2163
g82
g83
ssg71
g2157
sg64
(lp2164
g1049
asbag57
(g78
g59
NtRp2165
(dp2166
g62
(dp2167
g89
g90
ssg71
g2157
sg64
(lp2168
S':'
asbag57
(g78
g59
NtRp2169
(dp2170
g62
(dp2171
sg71
g2157
sg64
(lp2172
g57
(g58
g59
NtRp2173
(dp2174
g62
(dp2175
g70
I4
ssg71
g2169
sg64
(lp2176
g1062
asbasbasbag57
(g73
g59
NtRp2177
(dp2178
g62
(dp2179
sg71
g2026
sg64
(lp2180
g57
(g78
g59
NtRp2181
(dp2182
g62
(dp2183
g82
g83
ssg71
g2177
sg64
(lp2184
g1311
asbag57
(g78
g59
NtRp2185
(dp2186
g62
(dp2187
g89
g90
ssg71
g2177
sg64
(lp2188
S':'
asbag57
(g78
g59
NtRp2189
(dp2190
g62
(dp2191
sg71
g2177
sg64
(lp2192
g57
(g58
g59
NtRp2193
(dp2194
g62
(dp2195
g70
I4
ssg71
g2189
sg64
(lp2196
g100
asbasbasbag57
(g73
g59
NtRp2197
(dp2198
g62
(dp2199
sg71
g2026
sg64
(lp2200
g57
(g78
g59
NtRp2201
(dp2202
g62
(dp2203
g82
g83
ssg71
g2197
sg64
(lp2204
g1332
asbag57
(g78
g59
NtRp2205
(dp2206
g62
(dp2207
g89
g90
ssg71
g2197
sg64
(lp2208
S':'
asbag57
(g78
g59
NtRp2209
(dp2210
g62
(dp2211
sg71
g2197
sg64
(lp2212
g57
(g58
g59
NtRp2213
(dp2214
g62
(dp2215
g70
I4
ssg71
g2209
sg64
(lp2216
g100
asbasbasbag57
(g73
g59
NtRp2217
(dp2218
g62
(dp2219
sg71
g2026
sg64
(lp2220
g57
(g78
g59
NtRp2221
(dp2222
g62
(dp2223
g82
g83
ssg71
g2217
sg64
(lp2224
g1591
asbag57
(g78
g59
NtRp2225
(dp2226
g62
(dp2227
g89
g90
ssg71
g2217
sg64
(lp2228
S':'
asbag57
(g78
g59
NtRp2229
(dp2230
g62
(dp2231
sg71
g2217
sg64
(lp2232
g57
(g58
g59
NtRp2233
(dp2234
g62
(dp2235
g70
I4
ssg71
g2229
sg64
(lp2236
g1604
asbasbasbag57
(g73
g59
NtRp2237
(dp2238
g62
(dp2239
sg71
g2026
sg64
(lp2240
g57
(g78
g59
NtRp2241
(dp2242
g62
(dp2243
g82
g83
ssg71
g2237
sg64
(lp2244
g1634
asbag57
(g78
g59
NtRp2245
(dp2246
g62
(dp2247
g89
g90
ssg71
g2237
sg64
(lp2248
S':'
asbag57
(g78
g59
NtRp2249
(dp2250
g62
(dp2251
sg71
g2237
sg64
(lp2252
g57
(g58
g59
NtRp2253
(dp2254
g62
(dp2255
g70
I4
ssg71
g2249
sg64
(lp2256
g57
(g66
g59
NtRp2257
(dp2258
g62
(dp2259
g70
I3
ssg71
Nsg64
(lp2260
g57
(g73
g59
NtRp2261
(dp2262
g62
(dp2263
sg71
g2257
sg64
(lp2264
g57
(g78
g59
NtRp2265
(dp2266
g62
(dp2267
sg71
g2261
sg64
(lp2268
g57
(g58
g59
NtRp2269
(dp2270
g62
(dp2271
g70
I3
ssg71
g2265
sg64
(lp2272
S'2'
asbasbasbag57
(g73
g59
NtRp2273
(dp2274
g62
(dp2275
sg71
g2257
sg64
(lp2276
g57
(g78
g59
NtRp2277
(dp2278
g62
(dp2279
sg71
g2273
sg64
(lp2280
g57
(g58
g59
NtRp2281
(dp2282
g62
(dp2283
g70
I3
ssg71
g2277
sg64
(lp2284
S'0'
asbasbasbag57
(g73
g59
NtRp2285
(dp2286
g62
(dp2287
sg71
g2257
sg64
(lp2288
g57
(g78
g59
NtRp2289
(dp2290
g62
(dp2291
sg71
g2285
sg64
(lp2292
g57
(g58
g59
NtRp2293
(dp2294
g62
(dp2295
g70
I3
ssg71
g2289
sg64
(lp2296
S'9'
asbasbasbag57
(g73
g59
NtRp2297
(dp2298
g62
(dp2299
sg71
g2257
sg64
(lp2300
g57
(g78
g59
NtRp2301
(dp2302
g62
(dp2303
sg71
g2297
sg64
(lp2304
g57
(g58
g59
NtRp2305
(dp2306
g62
(dp2307
g70
I3
ssg71
g2301
sg64
(lp2308
S'datetime.datetime(2012, 9, 13, 23, 51, 30)'
p2309
asbasbasbag57
(g73
g59
NtRp2310
(dp2311
g62
(dp2312
sg71
g2257
sg64
(lp2313
g57
(g78
g59
NtRp2314
(dp2315
g62
(dp2316
sg71
g2310
sg64
(lp2317
g57
(g58
g59
NtRp2318
(dp2319
g62
(dp2320
g70
I3
ssg71
g2314
sg64
(lp2321
g1712
asbasbasbasbasbasbasbasbasbasbasbag57
(g73
g59
NtRp2322
(dp2323
g62
(dp2324
sg71
g67
sg64
(lp2325
g57
(g78
g59
NtRp2326
(dp2327
g62
(dp2328
g82
g83
ssg71
g2322
sg64
(lp2329
S'is_https'
p2330
asbag57
(g78
g59
NtRp2331
(dp2332
g62
(dp2333
g89
g90
ssg71
g2322
sg64
(lp2334
S':'
asbag57
(g78
g59
NtRp2335
(dp2336
g62
(dp2337
sg71
g2322
sg64
(lp2338
g57
(g58
g59
NtRp2339
(dp2340
g62
(dp2341
g70
I5
ssg71
g2335
sg64
(lp2342
g100
asbasbasbag57
(g73
g59
NtRp2343
(dp2344
g62
(dp2345
sg71
g67
sg64
(lp2346
g57
(g78
g59
NtRp2347
(dp2348
g62
(dp2349
g82
g83
ssg71
g2343
sg64
(lp2350
S'is_local'
p2351
asbag57
(g78
g59
NtRp2352
(dp2353
g62
(dp2354
g89
g90
ssg71
g2343
sg64
(lp2355
S':'
asbag57
(g78
g59
NtRp2356
(dp2357
g62
(dp2358
sg71
g2343
sg64
(lp2359
g57
(g58
g59
NtRp2360
(dp2361
g62
(dp2362
g70
I5
ssg71
g2356
sg64
(lp2363
g1821
asbasbasbag57
(g73
g59
NtRp2364
(dp2365
g62
(dp2366
sg71
g67
sg64
(lp2367
g57
(g78
g59
NtRp2368
(dp2369
g62
(dp2370
g82
g83
ssg71
g2364
sg64
(lp2371
S'is_restful'
p2372
asbag57
(g78
g59
NtRp2373
(dp2374
g62
(dp2375
g89
g90
ssg71
g2364
sg64
(lp2376
S':'
asbag57
(g78
g59
NtRp2377
(dp2378
g62
(dp2379
sg71
g2364
sg64
(lp2380
g57
(g58
g59
NtRp2381
(dp2382
g62
(dp2383
g70
I5
ssg71
g2377
sg64
(lp2384
g100
asbasbasbag57
(g73
g59
NtRp2385
(dp2386
g62
(dp2387
sg71
g67
sg64
(lp2388
g57
(g78
g59
NtRp2389
(dp2390
g62
(dp2391
g82
g83
ssg71
g2385
sg64
(lp2392
S'now'
p2393
asbag57
(g78
g59
NtRp2394
(dp2395
g62
(dp2396
g89
g90
ssg71
g2385
sg64
(lp2397
S':'
asbag57
(g78
g59
NtRp2398
(dp2399
g62
(dp2400
sg71
g2385
sg64
(lp2401
g57
(g58
g59
NtRp2402
(dp2403
g62
(dp2404
g70
I5
ssg71
g2398
sg64
(lp2405
S'datetime.datetime(2012, 11, 28, 1, 41, 55, 984000)'
p2406
asbasbasbag57
(g73
g59
NtRp2407
(dp2408
g62
(dp2409
sg71
g67
sg64
(lp2410
g57
(g78
g59
NtRp2411
(dp2412
g62
(dp2413
g82
g83
ssg71
g2407
sg64
(lp2414
S'post_vars'
p2415
asbag57
(g78
g59
NtRp2416
(dp2417
g62
(dp2418
g89
g90
ssg71
g2407
sg64
(lp2419
S':'
asbag57
(g78
g59
NtRp2420
(dp2421
g62
(dp2422
sg71
g2407
sg64
(lp2423
g57
(g58
g59
NtRp2424
(dp2425
g62
(dp2426
g70
I5
ssg71
g2420
sg64
(lp2427
g57
(g66
g59
NtRp2428
(dp2429
g62
(dp2430
g70
I4
ssg71
Nsg64
(lp2431
sbasbasbasbag57
(g73
g59
NtRp2432
(dp2433
g62
(dp2434
sg71
g67
sg64
(lp2435
g57
(g78
g59
NtRp2436
(dp2437
g62
(dp2438
g82
g83
ssg71
g2432
sg64
(lp2439
S'raw_args'
p2440
asbag57
(g78
g59
NtRp2441
(dp2442
g62
(dp2443
g89
g90
ssg71
g2432
sg64
(lp2444
S':'
asbag57
(g78
g59
NtRp2445
(dp2446
g62
(dp2447
sg71
g2432
sg64
(lp2448
g57
(g58
g59
NtRp2449
(dp2450
g62
(dp2451
g70
I5
ssg71
g2445
sg64
(lp2452
S'5'
asbasbasbag57
(g73
g59
NtRp2453
(dp2454
g62
(dp2455
sg71
g67
sg64
(lp2456
g57
(g78
g59
NtRp2457
(dp2458
g62
(dp2459
g82
g83
ssg71
g2453
sg64
(lp2460
S'raw_extension'
p2461
asbag57
(g78
g59
NtRp2462
(dp2463
g62
(dp2464
g89
g90
ssg71
g2453
sg64
(lp2465
S':'
asbag57
(g78
g59
NtRp2466
(dp2467
g62
(dp2468
sg71
g2453
sg64
(lp2469
g57
(g58
g59
NtRp2470
(dp2471
g62
(dp2472
g70
I5
ssg71
g2466
sg64
(lp2473
S'None'
p2474
asbasbasbag57
(g73
g59
NtRp2475
(dp2476
g62
(dp2477
sg71
g67
sg64
(lp2478
g57
(g78
g59
NtRp2479
(dp2480
g62
(dp2481
g82
g83
ssg71
g2475
sg64
(lp2482
S'url'
p2483
asbag57
(g78
g59
NtRp2484
(dp2485
g62
(dp2486
g89
g90
ssg71
g2475
sg64
(lp2487
S':'
asbag57
(g78
g59
NtRp2488
(dp2489
g62
(dp2490
sg71
g2475
sg64
(lp2491
g57
(g58
g59
NtRp2492
(dp2493
g62
(dp2494
g70
I5
ssg71
g2488
sg64
(lp2495
g1366
asbasbasbag57
(g73
g59
NtRp2496
(dp2497
g62
(dp2498
sg71
g67
sg64
(lp2499
g57
(g78
g59
NtRp2500
(dp2501
g62
(dp2502
g82
g83
ssg71
g2496
sg64
(lp2503
S'utcnow'
p2504
asbag57
(g78
g59
NtRp2505
(dp2506
g62
(dp2507
g89
g90
ssg71
g2496
sg64
(lp2508
S':'
asbag57
(g78
g59
NtRp2509
(dp2510
g62
(dp2511
sg71
g2496
sg64
(lp2512
g57
(g58
g59
NtRp2513
(dp2514
g62
(dp2515
g70
I5
ssg71
g2509
sg64
(lp2516
S'datetime.datetime(2012, 11, 27, 17, 41, 55, 984000)'
p2517
asbasbasbag57
(g73
g59
NtRp2518
(dp2519
g62
(dp2520
sg71
g67
sg64
(lp2521
g57
(g78
g59
NtRp2522
(dp2523
g62
(dp2524
g82
g83
ssg71
g2518
sg64
(lp2525
S'uuid'
p2526
asbag57
(g78
g59
NtRp2527
(dp2528
g62
(dp2529
g89
g90
ssg71
g2518
sg64
(lp2530
S':'
asbag57
(g78
g59
NtRp2531
(dp2532
g62
(dp2533
sg71
g2518
sg64
(lp2534
g57
(g58
g59
NtRp2535
(dp2536
g62
(dp2537
g70
I5
ssg71
g2531
sg64
(lp2538
S'QSunTasteBudsV2/127.0.0.1.2012-11-28.01-41-55.a52cbb88-147f-4289-822b-6bfcd0c74426'
p2539
asbasbasbag57
(g73
g59
NtRp2540
(dp2541
g62
(dp2542
sg71
g67
sg64
(lp2543
g57
(g78
g59
NtRp2544
(dp2545
g62
(dp2546
g82
g83
ssg71
g2540
sg64
(lp2547
S'vars'
p2548
asbag57
(g78
g59
NtRp2549
(dp2550
g62
(dp2551
g89
g90
ssg71
g2540
sg64
(lp2552
S':'
asbag57
(g78
g59
NtRp2553
(dp2554
g62
(dp2555
sg71
g2540
sg64
(lp2556
g57
(g58
g59
NtRp2557
(dp2558
g62
(dp2559
g70
I5
ssg71
g2553
sg64
(lp2560
g57
(g66
g59
NtRp2561
(dp2562
g62
(dp2563
g70
I4
ssg71
Nsg64
(lp2564
sbasbasbasbag57
(g73
g59
NtRp2565
(dp2566
g62
(dp2567
sg71
g67
sg64
(lp2568
g57
(g78
g59
NtRp2569
(dp2570
g62
(dp2571
g82
g83
ssg71
g2565
sg64
(lp2572
S'wsgi'
p2573
asbag57
(g78
g59
NtRp2574
(dp2575
g62
(dp2576
g89
g90
ssg71
g2565
sg64
(lp2577
S':'
asbag57
(g78
g59
NtRp2578
(dp2579
g62
(dp2580
sg71
g2565
sg64
(lp2581
g57
(g58
g59
NtRp2582
(dp2583
g62
(dp2584
g70
I5
ssg71
g2578
sg64
(lp2585
g57
(g66
g59
NtRp2586
(dp2587
g62
(dp2588
g70
I4
ssg71
Nsg64
(lp2589
g57
(g73
g59
NtRp2590
(dp2591
g62
(dp2592
sg71
g2586
sg64
(lp2593
g57
(g78
g59
NtRp2594
(dp2595
g62
(dp2596
g82
g83
ssg71
g2590
sg64
(lp2597
S'environ'
p2598
asbag57
(g78
g59
NtRp2599
(dp2600
g62
(dp2601
g89
g90
ssg71
g2590
sg64
(lp2602
S':'
asbag57
(g78
g59
NtRp2603
(dp2604
g62
(dp2605
sg71
g2590
sg64
(lp2606
g57
(g58
g59
NtRp2607
(dp2608
g62
(dp2609
g70
I4
ssg71
g2603
sg64
(lp2610
g57
(g66
g59
NtRp2611
(dp2612
g62
(dp2613
g70
I3
ssg71
Nsg64
(lp2614
g57
(g73
g59
NtRp2615
(dp2616
g62
(dp2617
sg71
g2611
sg64
(lp2618
g57
(g78
g59
NtRp2619
(dp2620
g62
(dp2621
g82
g83
ssg71
g2615
sg64
(lp2622
S'CONTENT_LENGTH'
p2623
asbag57
(g78
g59
NtRp2624
(dp2625
g62
(dp2626
g89
g90
ssg71
g2615
sg64
(lp2627
S':'
asbag57
(g78
g59
NtRp2628
(dp2629
g62
(dp2630
sg71
g2615
sg64
(lp2631
g57
(g58
g59
NtRp2632
(dp2633
g62
(dp2634
g70
I3
ssg71
g2628
sg64
(lp2635
g975
asbasbasbag57
(g73
g59
NtRp2636
(dp2637
g62
(dp2638
sg71
g2611
sg64
(lp2639
g57
(g78
g59
NtRp2640
(dp2641
g62
(dp2642
g82
g83
ssg71
g2636
sg64
(lp2643
S'CONTENT_TYPE'
p2644
asbag57
(g78
g59
NtRp2645
(dp2646
g62
(dp2647
g89
g90
ssg71
g2636
sg64
(lp2648
S':'
asbag57
(g78
g59
NtRp2649
(dp2650
g62
(dp2651
sg71
g2636
sg64
(lp2652
g57
(g58
g59
NtRp2653
(dp2654
g62
(dp2655
g70
I3
ssg71
g2649
sg64
(lp2656
g997
asbasbasbag57
(g73
g59
NtRp2657
(dp2658
g62
(dp2659
sg71
g2611
sg64
(lp2660
g57
(g78
g59
NtRp2661
(dp2662
g62
(dp2663
g82
g83
ssg71
g2657
sg64
(lp2664
S'HTTP_ACCEPT'
p2665
asbag57
(g78
g59
NtRp2666
(dp2667
g62
(dp2668
g89
g90
ssg71
g2657
sg64
(lp2669
S':'
asbag57
(g78
g59
NtRp2670
(dp2671
g62
(dp2672
sg71
g2657
sg64
(lp2673
g57
(g58
g59
NtRp2674
(dp2675
g62
(dp2676
g70
I3
ssg71
g2670
sg64
(lp2677
g1084
asbasbasbag57
(g73
g59
NtRp2678
(dp2679
g62
(dp2680
sg71
g2611
sg64
(lp2681
g57
(g78
g59
NtRp2682
(dp2683
g62
(dp2684
g82
g83
ssg71
g2678
sg64
(lp2685
S'HTTP_ACCEPT_ENCODING'
p2686
asbag57
(g78
g59
NtRp2687
(dp2688
g62
(dp2689
g89
g90
ssg71
g2678
sg64
(lp2690
S':'
asbag57
(g78
g59
NtRp2691
(dp2692
g62
(dp2693
sg71
g2678
sg64
(lp2694
g57
(g58
g59
NtRp2695
(dp2696
g62
(dp2697
g70
I3
ssg71
g2691
sg64
(lp2698
g1106
asbasbasbag57
(g73
g59
NtRp2699
(dp2700
g62
(dp2701
sg71
g2611
sg64
(lp2702
g57
(g78
g59
NtRp2703
(dp2704
g62
(dp2705
g82
g83
ssg71
g2699
sg64
(lp2706
S'HTTP_ACCEPT_LANGUAGE'
p2707
asbag57
(g78
g59
NtRp2708
(dp2709
g62
(dp2710
g89
g90
ssg71
g2699
sg64
(lp2711
S':'
asbag57
(g78
g59
NtRp2712
(dp2713
g62
(dp2714
sg71
g2699
sg64
(lp2715
g57
(g58
g59
NtRp2716
(dp2717
g62
(dp2718
g70
I3
ssg71
g2712
sg64
(lp2719
g1128
asbasbasbag57
(g73
g59
NtRp2720
(dp2721
g62
(dp2722
sg71
g2611
sg64
(lp2723
g57
(g78
g59
NtRp2724
(dp2725
g62
(dp2726
g82
g83
ssg71
g2720
sg64
(lp2727
S'HTTP_CACHE_CONTROL'
p2728
asbag57
(g78
g59
NtRp2729
(dp2730
g62
(dp2731
g89
g90
ssg71
g2720
sg64
(lp2732
S':'
asbag57
(g78
g59
NtRp2733
(dp2734
g62
(dp2735
sg71
g2720
sg64
(lp2736
g57
(g58
g59
NtRp2737
(dp2738
g62
(dp2739
g70
I3
ssg71
g2733
sg64
(lp2740
g1150
asbasbasbag57
(g73
g59
NtRp2741
(dp2742
g62
(dp2743
sg71
g2611
sg64
(lp2744
g57
(g78
g59
NtRp2745
(dp2746
g62
(dp2747
g82
g83
ssg71
g2741
sg64
(lp2748
S'HTTP_CONNECTION'
p2749
asbag57
(g78
g59
NtRp2750
(dp2751
g62
(dp2752
g89
g90
ssg71
g2741
sg64
(lp2753
S':'
asbag57
(g78
g59
NtRp2754
(dp2755
g62
(dp2756
sg71
g2741
sg64
(lp2757
g57
(g58
g59
NtRp2758
(dp2759
g62
(dp2760
g70
I3
ssg71
g2754
sg64
(lp2761
g1172
asbasbasbag57
(g73
g59
NtRp2762
(dp2763
g62
(dp2764
sg71
g2611
sg64
(lp2765
g57
(g78
g59
NtRp2766
(dp2767
g62
(dp2768
g82
g83
ssg71
g2762
sg64
(lp2769
S'HTTP_CONTENT_LENGTH'
p2770
asbag57
(g78
g59
NtRp2771
(dp2772
g62
(dp2773
g89
g90
ssg71
g2762
sg64
(lp2774
S':'
asbag57
(g78
g59
NtRp2775
(dp2776
g62
(dp2777
sg71
g2762
sg64
(lp2778
g57
(g58
g59
NtRp2779
(dp2780
g62
(dp2781
g70
I3
ssg71
g2775
sg64
(lp2782
g975
asbasbasbag57
(g73
g59
NtRp2783
(dp2784
g62
(dp2785
sg71
g2611
sg64
(lp2786
g57
(g78
g59
NtRp2787
(dp2788
g62
(dp2789
g82
g83
ssg71
g2783
sg64
(lp2790
S'HTTP_CONTENT_TYPE'
p2791
asbag57
(g78
g59
NtRp2792
(dp2793
g62
(dp2794
g89
g90
ssg71
g2783
sg64
(lp2795
S':'
asbag57
(g78
g59
NtRp2796
(dp2797
g62
(dp2798
sg71
g2783
sg64
(lp2799
g57
(g58
g59
NtRp2800
(dp2801
g62
(dp2802
g70
I3
ssg71
g2796
sg64
(lp2803
g997
asbasbasbag57
(g73
g59
NtRp2804
(dp2805
g62
(dp2806
sg71
g2611
sg64
(lp2807
g57
(g78
g59
NtRp2808
(dp2809
g62
(dp2810
g82
g83
ssg71
g2804
sg64
(lp2811
S'HTTP_COOKIE'
p2812
asbag57
(g78
g59
NtRp2813
(dp2814
g62
(dp2815
g89
g90
ssg71
g2804
sg64
(lp2816
S':'
asbag57
(g78
g59
NtRp2817
(dp2818
g62
(dp2819
sg71
g2804
sg64
(lp2820
g57
(g58
g59
NtRp2821
(dp2822
g62
(dp2823
g70
I3
ssg71
g2817
sg64
(lp2824
g1236
asbasbasbag57
(g73
g59
NtRp2825
(dp2826
g62
(dp2827
sg71
g2611
sg64
(lp2828
g57
(g78
g59
NtRp2829
(dp2830
g62
(dp2831
g82
g83
ssg71
g2825
sg64
(lp2832
S'HTTP_HOST'
p2833
asbag57
(g78
g59
NtRp2834
(dp2835
g62
(dp2836
g89
g90
ssg71
g2825
sg64
(lp2837
S':'
asbag57
(g78
g59
NtRp2838
(dp2839
g62
(dp2840
sg71
g2825
sg64
(lp2841
g57
(g58
g59
NtRp2842
(dp2843
g62
(dp2844
g70
I3
ssg71
g2838
sg64
(lp2845
g1258
asbasbasbag57
(g73
g59
NtRp2846
(dp2847
g62
(dp2848
sg71
g2611
sg64
(lp2849
g57
(g78
g59
NtRp2850
(dp2851
g62
(dp2852
g82
g83
ssg71
g2846
sg64
(lp2853
S'HTTP_REFERER'
p2854
asbag57
(g78
g59
NtRp2855
(dp2856
g62
(dp2857
g89
g90
ssg71
g2846
sg64
(lp2858
S':'
asbag57
(g78
g59
NtRp2859
(dp2860
g62
(dp2861
sg71
g2846
sg64
(lp2862
g57
(g58
g59
NtRp2863
(dp2864
g62
(dp2865
g70
I3
ssg71
g2859
sg64
(lp2866
g1280
asbasbasbag57
(g73
g59
NtRp2867
(dp2868
g62
(dp2869
sg71
g2611
sg64
(lp2870
g57
(g78
g59
NtRp2871
(dp2872
g62
(dp2873
g82
g83
ssg71
g2867
sg64
(lp2874
S'HTTP_USER_AGENT'
p2875
asbag57
(g78
g59
NtRp2876
(dp2877
g62
(dp2878
g89
g90
ssg71
g2867
sg64
(lp2879
S':'
asbag57
(g78
g59
NtRp2880
(dp2881
g62
(dp2882
sg71
g2867
sg64
(lp2883
g57
(g58
g59
NtRp2884
(dp2885
g62
(dp2886
g70
I3
ssg71
g2880
sg64
(lp2887
g1302
asbasbasbag57
(g73
g59
NtRp2888
(dp2889
g62
(dp2890
sg71
g2611
sg64
(lp2891
g57
(g78
g59
NtRp2892
(dp2893
g62
(dp2894
g82
g83
ssg71
g2888
sg64
(lp2895
S'PATH_INFO'
p2896
asbag57
(g78
g59
NtRp2897
(dp2898
g62
(dp2899
g89
g90
ssg71
g2888
sg64
(lp2900
S':'
asbag57
(g78
g59
NtRp2901
(dp2902
g62
(dp2903
sg71
g2888
sg64
(lp2904
g57
(g58
g59
NtRp2905
(dp2906
g62
(dp2907
g70
I3
ssg71
g2901
sg64
(lp2908
g1366
asbasbasbag57
(g73
g59
NtRp2909
(dp2910
g62
(dp2911
sg71
g2611
sg64
(lp2912
g57
(g78
g59
NtRp2913
(dp2914
g62
(dp2915
g82
g83
ssg71
g2909
sg64
(lp2916
S'QUERY_STRING'
p2917
asbag57
(g78
g59
NtRp2918
(dp2919
g62
(dp2920
g89
g90
ssg71
g2909
sg64
(lp2921
S':'
asbag57
(g78
g59
NtRp2922
(dp2923
g62
(dp2924
sg71
g2909
sg64
(lp2925
g57
(g58
g59
NtRp2926
(dp2927
g62
(dp2928
g70
I3
ssg71
g2922
sg64
(lp2929
S''
asbasbasbag57
(g73
g59
NtRp2930
(dp2931
g62
(dp2932
sg71
g2611
sg64
(lp2933
g57
(g78
g59
NtRp2934
(dp2935
g62
(dp2936
g82
g83
ssg71
g2930
sg64
(lp2937
S'REMOTE_ADDR'
p2938
asbag57
(g78
g59
NtRp2939
(dp2940
g62
(dp2941
g89
g90
ssg71
g2930
sg64
(lp2942
S':'
asbag57
(g78
g59
NtRp2943
(dp2944
g62
(dp2945
sg71
g2930
sg64
(lp2946
g57
(g58
g59
NtRp2947
(dp2948
g62
(dp2949
g70
I3
ssg71
g2943
sg64
(lp2950
g224
asbasbasbag57
(g73
g59
NtRp2951
(dp2952
g62
(dp2953
sg71
g2611
sg64
(lp2954
g57
(g78
g59
NtRp2955
(dp2956
g62
(dp2957
g82
g83
ssg71
g2951
sg64
(lp2958
S'REMOTE_PORT'
p2959
asbag57
(g78
g59
NtRp2960
(dp2961
g62
(dp2962
g89
g90
ssg71
g2951
sg64
(lp2963
S':'
asbag57
(g78
g59
NtRp2964
(dp2965
g62
(dp2966
sg71
g2951
sg64
(lp2967
g57
(g58
g59
NtRp2968
(dp2969
g62
(dp2970
g70
I3
ssg71
g2964
sg64
(lp2971
g1430
asbasbasbag57
(g73
g59
NtRp2972
(dp2973
g62
(dp2974
sg71
g2611
sg64
(lp2975
g57
(g78
g59
NtRp2976
(dp2977
g62
(dp2978
g82
g83
ssg71
g2972
sg64
(lp2979
S'REQUEST_METHOD'
p2980
asbag57
(g78
g59
NtRp2981
(dp2982
g62
(dp2983
g89
g90
ssg71
g2972
sg64
(lp2984
S':'
asbag57
(g78
g59
NtRp2985
(dp2986
g62
(dp2987
sg71
g2972
sg64
(lp2988
g57
(g58
g59
NtRp2989
(dp2990
g62
(dp2991
g70
I3
ssg71
g2985
sg64
(lp2992
g1452
asbasbasbag57
(g73
g59
NtRp2993
(dp2994
g62
(dp2995
sg71
g2611
sg64
(lp2996
g57
(g78
g59
NtRp2997
(dp2998
g62
(dp2999
g82
g83
ssg71
g2993
sg64
(lp3000
S'REQUEST_URI'
p3001
asbag57
(g78
g59
NtRp3002
(dp3003
g62
(dp3004
g89
g90
ssg71
g2993
sg64
(lp3005
S':'
asbag57
(g78
g59
NtRp3006
(dp3007
g62
(dp3008
sg71
g2993
sg64
(lp3009
g57
(g58
g59
NtRp3010
(dp3011
g62
(dp3012
g70
I3
ssg71
g3006
sg64
(lp3013
g1366
asbasbasbag57
(g73
g59
NtRp3014
(dp3015
g62
(dp3016
sg71
g2611
sg64
(lp3017
g57
(g78
g59
NtRp3018
(dp3019
g62
(dp3020
g82
g83
ssg71
g3014
sg64
(lp3021
S'SCRIPT_NAME'
p3022
asbag57
(g78
g59
NtRp3023
(dp3024
g62
(dp3025
g89
g90
ssg71
g3014
sg64
(lp3026
S':'
asbag57
(g78
g59
NtRp3027
(dp3028
g62
(dp3029
sg71
g3014
sg64
(lp3030
g57
(g58
g59
NtRp3031
(dp3032
g62
(dp3033
g70
I3
ssg71
g3027
sg64
(lp3034
S''
asbasbasbag57
(g73
g59
NtRp3035
(dp3036
g62
(dp3037
sg71
g2611
sg64
(lp3038
g57
(g78
g59
NtRp3039
(dp3040
g62
(dp3041
g82
g83
ssg71
g3035
sg64
(lp3042
S'SERVER_NAME'
p3043
asbag57
(g78
g59
NtRp3044
(dp3045
g62
(dp3046
g89
g90
ssg71
g3035
sg64
(lp3047
S':'
asbag57
(g78
g59
NtRp3048
(dp3049
g62
(dp3050
sg71
g3035
sg64
(lp3051
g57
(g58
g59
NtRp3052
(dp3053
g62
(dp3054
g70
I3
ssg71
g3048
sg64
(lp3055
g1516
asbasbasbag57
(g73
g59
NtRp3056
(dp3057
g62
(dp3058
sg71
g2611
sg64
(lp3059
g57
(g78
g59
NtRp3060
(dp3061
g62
(dp3062
g82
g83
ssg71
g3056
sg64
(lp3063
S'SERVER_PORT'
p3064
asbag57
(g78
g59
NtRp3065
(dp3066
g62
(dp3067
g89
g90
ssg71
g3056
sg64
(lp3068
S':'
asbag57
(g78
g59
NtRp3069
(dp3070
g62
(dp3071
sg71
g3056
sg64
(lp3072
g57
(g58
g59
NtRp3073
(dp3074
g62
(dp3075
g70
I3
ssg71
g3069
sg64
(lp3076
g1538
asbasbasbag57
(g73
g59
NtRp3077
(dp3078
g62
(dp3079
sg71
g2611
sg64
(lp3080
g57
(g78
g59
NtRp3081
(dp3082
g62
(dp3083
g82
g83
ssg71
g3077
sg64
(lp3084
S'SERVER_PROTOCOL'
p3085
asbag57
(g78
g59
NtRp3086
(dp3087
g62
(dp3088
g89
g90
ssg71
g3077
sg64
(lp3089
S':'
asbag57
(g78
g59
NtRp3090
(dp3091
g62
(dp3092
sg71
g3077
sg64
(lp3093
g57
(g58
g59
NtRp3094
(dp3095
g62
(dp3096
g70
I3
ssg71
g3090
sg64
(lp3097
g1560
asbasbasbag57
(g73
g59
NtRp3098
(dp3099
g62
(dp3100
sg71
g2611
sg64
(lp3101
g57
(g78
g59
NtRp3102
(dp3103
g62
(dp3104
g82
g83
ssg71
g3098
sg64
(lp3105
S'SERVER_SOFTWARE'
p3106
asbag57
(g78
g59
NtRp3107
(dp3108
g62
(dp3109
g89
g90
ssg71
g3098
sg64
(lp3110
S':'
asbag57
(g78
g59
NtRp3111
(dp3112
g62
(dp3113
sg71
g3098
sg64
(lp3114
g57
(g58
g59
NtRp3115
(dp3116
g62
(dp3117
g70
I3
ssg71
g3111
sg64
(lp3118
g1582
asbasbasbag57
(g73
g59
NtRp3119
(dp3120
g62
(dp3121
sg71
g2611
sg64
(lp3122
g57
(g78
g59
NtRp3123
(dp3124
g62
(dp3125
g82
g83
ssg71
g3119
sg64
(lp3126
S'wsgi.errors'
p3127
asbag57
(g78
g59
NtRp3128
(dp3129
g62
(dp3130
g89
g90
ssg71
g3119
sg64
(lp3131
S':'
asbag57
(g78
g59
NtRp3132
(dp3133
g62
(dp3134
sg71
g3119
sg64
(lp3135
g57
(g58
g59
NtRp3136
(dp3137
g62
(dp3138
g70
I3
ssg71
g3132
sg64
(lp3139
S"<open file '<stderr>', mode 'w' at 0x009350D0>"
p3140
asbasbasbag57
(g73
g59
NtRp3141
(dp3142
g62
(dp3143
sg71
g2611
sg64
(lp3144
g57
(g78
g59
NtRp3145
(dp3146
g62
(dp3147
g82
g83
ssg71
g3141
sg64
(lp3148
S'wsgi.file_wrapper'
p3149
asbag57
(g78
g59
NtRp3150
(dp3151
g62
(dp3152
g89
g90
ssg71
g3141
sg64
(lp3153
S':'
asbag57
(g78
g59
NtRp3154
(dp3155
g62
(dp3156
sg71
g3141
sg64
(lp3157
g57
(g58
g59
NtRp3158
(dp3159
g62
(dp3160
g70
I3
ssg71
g3154
sg64
(lp3161
S'<class wsgiref.util.FileWrapper at 0x016DAF10>'
p3162
asbasbasbag57
(g73
g59
NtRp3163
(dp3164
g62
(dp3165
sg71
g2611
sg64
(lp3166
g57
(g78
g59
NtRp3167
(dp3168
g62
(dp3169
g82
g83
ssg71
g3163
sg64
(lp3170
S'wsgi.input'
p3171
asbag57
(g78
g59
NtRp3172
(dp3173
g62
(dp3174
g89
g90
ssg71
g3163
sg64
(lp3175
S':'
asbag57
(g78
g59
NtRp3176
(dp3177
g62
(dp3178
sg71
g3163
sg64
(lp3179
g57
(g58
g59
NtRp3180
(dp3181
g62
(dp3182
g70
I3
ssg71
g3176
sg64
(lp3183
S"<open file '<fdopen>', mode 'w+b' at 0x044F2758>"
p3184
asbasbasbag57
(g73
g59
NtRp3185
(dp3186
g62
(dp3187
sg71
g2611
sg64
(lp3188
g57
(g78
g59
NtRp3189
(dp3190
g62
(dp3191
g82
g83
ssg71
g3185
sg64
(lp3192
S'wsgi.multiprocess'
p3193
asbag57
(g78
g59
NtRp3194
(dp3195
g62
(dp3196
g89
g90
ssg71
g3185
sg64
(lp3197
S':'
asbag57
(g78
g59
NtRp3198
(dp3199
g62
(dp3200
sg71
g3185
sg64
(lp3201
g57
(g58
g59
NtRp3202
(dp3203
g62
(dp3204
g70
I3
ssg71
g3198
sg64
(lp3205
g100
asbasbasbag57
(g73
g59
NtRp3206
(dp3207
g62
(dp3208
sg71
g2611
sg64
(lp3209
g57
(g78
g59
NtRp3210
(dp3211
g62
(dp3212
g82
g83
ssg71
g3206
sg64
(lp3213
S'wsgi.multithread'
p3214
asbag57
(g78
g59
NtRp3215
(dp3216
g62
(dp3217
g89
g90
ssg71
g3206
sg64
(lp3218
S':'
asbag57
(g78
g59
NtRp3219
(dp3220
g62
(dp3221
sg71
g3206
sg64
(lp3222
g57
(g58
g59
NtRp3223
(dp3224
g62
(dp3225
g70
I3
ssg71
g3219
sg64
(lp3226
g1821
asbasbasbag57
(g73
g59
NtRp3227
(dp3228
g62
(dp3229
sg71
g2611
sg64
(lp3230
g57
(g78
g59
NtRp3231
(dp3232
g62
(dp3233
g82
g83
ssg71
g3227
sg64
(lp3234
S'wsgi.run_once'
p3235
asbag57
(g78
g59
NtRp3236
(dp3237
g62
(dp3238
g89
g90
ssg71
g3227
sg64
(lp3239
S':'
asbag57
(g78
g59
NtRp3240
(dp3241
g62
(dp3242
sg71
g3227
sg64
(lp3243
g57
(g58
g59
NtRp3244
(dp3245
g62
(dp3246
g70
I3
ssg71
g3240
sg64
(lp3247
g100
asbasbasbag57
(g73
g59
NtRp3248
(dp3249
g62
(dp3250
sg71
g2611
sg64
(lp3251
g57
(g78
g59
NtRp3252
(dp3253
g62
(dp3254
g82
g83
ssg71
g3248
sg64
(lp3255
S'wsgi.url_scheme'
p3256
asbag57
(g78
g59
NtRp3257
(dp3258
g62
(dp3259
g89
g90
ssg71
g3248
sg64
(lp3260
S':'
asbag57
(g78
g59
NtRp3261
(dp3262
g62
(dp3263
sg71
g3248
sg64
(lp3264
g57
(g58
g59
NtRp3265
(dp3266
g62
(dp3267
g70
I3
ssg71
g3261
sg64
(lp3268
g1864
asbasbasbag57
(g73
g59
NtRp3269
(dp3270
g62
(dp3271
sg71
g2611
sg64
(lp3272
g57
(g78
g59
NtRp3273
(dp3274
g62
(dp3275
g82
g83
ssg71
g3269
sg64
(lp3276
S'wsgi.version'
p3277
asbag57
(g78
g59
NtRp3278
(dp3279
g62
(dp3280
g89
g90
ssg71
g3269
sg64
(lp3281
S':'
asbag57
(g78
g59
NtRp3282
(dp3283
g62
(dp3284
sg71
g3269
sg64
(lp3285
g57
(g58
g59
NtRp3286
(dp3287
g62
(dp3288
g70
I3
ssg71
g3282
sg64
(lp3289
S'1'
asbasbasbasbasbasbasbasbasbasbasbasbasbsS'frames'
p3290
(lp3291
(dp3292
S'file'
p3293
S'D:\\web2py_win\\web2py\\gluon\\restricted.py'
p3294
sS'dump'
p3295
(dp3296
sS'lnum'
p3297
I209
sS'lines'
p3298
(dp3299
sS'call'
p3300
S"(code='# -*- coding: utf-8 -*-\\n# this file is released ...\\nresponse._vars=response._caller(readRestaurant)\\n', environment={'A': <class 'gluon.html.A'>, 'Auth': <class 'gluon.tools.Auth'>, 'B': <class 'gluon.html.B'>, 'BEAUTIFY': <class 'gluon.html.BEAUTIFY'>, 'BODY': <class 'gluon.html.BODY'>, 'BR': <class 'gluon.html.BR'>, 'BUTTON': <class 'gluon.html.BUTTON'>, 'CAT': <class 'gluon.html.CAT'>, 'CENTER': <class 'gluon.html.CENTER'>, 'CLEANUP': <class 'gluon.validators.CLEANUP'>, ...}, layer=r'D:\\web2py_win\\web2py\\applications\\QSunTasteBudsV2\\controllers/default.py')"
p3301
sS'func'
p3302
S'restricted'
p3303
sa(dp3304
g3293
S'D:\\web2py_win\\web2py\\applications\\QSunTasteBudsV2\\controllers\\default.py'
p3305
sg3295
(dp3306
sg3297
I212
sg3298
(dp3307
I201
S'    http://..../[app]/default/data/update/[table]/[id]'
p3308
sI202
S'    http://..../[app]/default/data/delete/[table]/[id]'
p3309
sI203
S'    http://..../[app]/default/data/select/[table]'
p3310
sI204
S'    http://..../[app]/default/data/search/[table]'
p3311
sI205
S'    but URLs must be signed, i.e. linked with'
p3312
sI206
S"      A('table',_href=URL('data/tables',user_signature=True))"
p3313
sI207
S'    or with the signed load operator'
p3314
sI208
S"      LOAD('default','data.load',args='tables',ajax=True,user_signature=True)"
p3315
sI209
S'    """'
p3316
sI210
S'    return dict(form=crud())'
p3317
ssg3300
S'()'
p3318
sg3302
S'<module>'
p3319
sa(dp3320
g3293
S'D:\\web2py_win\\web2py\\gluon\\globals.py'
p3321
sg3295
(dp3322
sg3297
I186
sg3298
(dp3323
sg3300
S'(f=<function readRestaurant>)'
p3324
sg3302
S'<lambda>'
p3325
sa(dp3326
g3293
S'D:\\web2py_win\\web2py\\applications\\QSunTasteBudsV2\\controllers\\default.py'
p3327
sg3295
(dp3328
sg3297
I83
sg3298
(dp3329
I78
S"                     INPUT(_type = 'submit', _value = 'Rate and Comment')"
p3330
sI79
S'                )'
p3331
sI80
S'    commentList = db(db.rcomments.belongTo == session.currentRestaurant).select()'
p3332
sI81
S'    if rateForm.process().accepted:'
p3333
sI82
S'        session.title = place.name'
p3334
sI83
S'        session.owner = place.owner.first_name + " " + recipe.owner.last_name'
p3335
sI84
S"        redirect(URL('rateRestaurant'))"
p3336
sI85
S'    return dict(place = place, rateForm = rateForm, commentList = commentList)'
p3337
sI86
S''
sI87
S'@auth.requires_login()'
p3338
ssg3300
S'()'
p3339
sg3302
S'readRestaurant'
p3340
sasS'pyver'
p3341
S'Python 2.7: D:\\web2py_win\\web2py\\web2py.exe'
p3342
sS'session'
p3343
g57
(g58
g59
NtRp3344
(dp3345
g62
(dp3346
sg64
(lp3347
g57
(g66
g59
NtRp3348
(dp3349
g62
(dp3350
g70
I5
ssg71
Nsg64
(lp3351
g57
(g73
g59
NtRp3352
(dp3353
g62
(dp3354
sg71
g3348
sg64
(lp3355
g57
(g78
g59
NtRp3356
(dp3357
g62
(dp3358
g82
g83
ssg71
g3352
sg64
(lp3359
S'auth'
p3360
asbag57
(g78
g59
NtRp3361
(dp3362
g62
(dp3363
g89
g90
ssg71
g3352
sg64
(lp3364
S':'
asbag57
(g78
g59
NtRp3365
(dp3366
g62
(dp3367
sg71
g3352
sg64
(lp3368
g57
(g58
g59
NtRp3369
(dp3370
g62
(dp3371
g70
I5
ssg71
g3365
sg64
(lp3372
g57
(g66
g59
NtRp3373
(dp3374
g62
(dp3375
g70
I4
ssg71
Nsg64
(lp3376
g57
(g73
g59
NtRp3377
(dp3378
g62
(dp3379
sg71
g3373
sg64
(lp3380
g57
(g78
g59
NtRp3381
(dp3382
g62
(dp3383
g82
g83
ssg71
g3377
sg64
(lp3384
S'expiration'
p3385
asbag57
(g78
g59
NtRp3386
(dp3387
g62
(dp3388
g89
g90
ssg71
g3377
sg64
(lp3389
S':'
asbag57
(g78
g59
NtRp3390
(dp3391
g62
(dp3392
sg71
g3377
sg64
(lp3393
g57
(g58
g59
NtRp3394
(dp3395
g62
(dp3396
g70
I4
ssg71
g3390
sg64
(lp3397
S'3600'
p3398
asbasbasbag57
(g73
g59
NtRp3399
(dp3400
g62
(dp3401
sg71
g3373
sg64
(lp3402
g57
(g78
g59
NtRp3403
(dp3404
g62
(dp3405
g82
g83
ssg71
g3399
sg64
(lp3406
S'hmac_key'
p3407
asbag57
(g78
g59
NtRp3408
(dp3409
g62
(dp3410
g89
g90
ssg71
g3399
sg64
(lp3411
S':'
asbag57
(g78
g59
NtRp3412
(dp3413
g62
(dp3414
sg71
g3399
sg64
(lp3415
g57
(g58
g59
NtRp3416
(dp3417
g62
(dp3418
g70
I4
ssg71
g3412
sg64
(lp3419
S'b490506d-8e7a-4f4a-ba38-66bc586e3613'
p3420
asbasbasbag57
(g73
g59
NtRp3421
(dp3422
g62
(dp3423
sg71
g3373
sg64
(lp3424
g57
(g78
g59
NtRp3425
(dp3426
g62
(dp3427
g82
g83
ssg71
g3421
sg64
(lp3428
S'last_visit'
p3429
asbag57
(g78
g59
NtRp3430
(dp3431
g62
(dp3432
g89
g90
ssg71
g3421
sg64
(lp3433
S':'
asbag57
(g78
g59
NtRp3434
(dp3435
g62
(dp3436
sg71
g3421
sg64
(lp3437
g57
(g58
g59
NtRp3438
(dp3439
g62
(dp3440
g70
I4
ssg71
g3434
sg64
(lp3441
S'datetime.datetime(2012, 11, 28, 1, 40, 32, 62000)'
p3442
asbasbasbag57
(g73
g59
NtRp3443
(dp3444
g62
(dp3445
sg71
g3373
sg64
(lp3446
g57
(g78
g59
NtRp3447
(dp3448
g62
(dp3449
g82
g83
ssg71
g3443
sg64
(lp3450
S'remember'
p3451
asbag57
(g78
g59
NtRp3452
(dp3453
g62
(dp3454
g89
g90
ssg71
g3443
sg64
(lp3455
S':'
asbag57
(g78
g59
NtRp3456
(dp3457
g62
(dp3458
sg71
g3443
sg64
(lp3459
g57
(g58
g59
NtRp3460
(dp3461
g62
(dp3462
g70
I4
ssg71
g3456
sg64
(lp3463
g100
asbasbasbag57
(g73
g59
NtRp3464
(dp3465
g62
(dp3466
sg71
g3373
sg64
(lp3467
g57
(g78
g59
NtRp3468
(dp3469
g62
(dp3470
g82
g83
ssg71
g3464
sg64
(lp3471
S'user'
p3472
asbag57
(g78
g59
NtRp3473
(dp3474
g62
(dp3475
g89
g90
ssg71
g3464
sg64
(lp3476
S':'
asbag57
(g78
g59
NtRp3477
(dp3478
g62
(dp3479
sg71
g3464
sg64
(lp3480
g57
(g58
g59
NtRp3481
(dp3482
g62
(dp3483
g70
I4
ssg71
g3477
sg64
(lp3484
g57
(g66
g59
NtRp3485
(dp3486
g62
(dp3487
g70
I3
ssg71
Nsg64
(lp3488
g57
(g73
g59
NtRp3489
(dp3490
g62
(dp3491
sg71
g3485
sg64
(lp3492
g57
(g78
g59
NtRp3493
(dp3494
g62
(dp3495
g82
g83
ssg71
g3489
sg64
(lp3496
S'email'
p3497
asbag57
(g78
g59
NtRp3498
(dp3499
g62
(dp3500
g89
g90
ssg71
g3489
sg64
(lp3501
S':'
asbag57
(g78
g59
NtRp3502
(dp3503
g62
(dp3504
sg71
g3489
sg64
(lp3505
g57
(g58
g59
NtRp3506
(dp3507
g62
(dp3508
g70
I3
ssg71
g3502
sg64
(lp3509
S'qsun@ucsc.edu'
p3510
asbasbasbag57
(g73
g59
NtRp3511
(dp3512
g62
(dp3513
sg71
g3485
sg64
(lp3514
g57
(g78
g59
NtRp3515
(dp3516
g62
(dp3517
g82
g83
ssg71
g3511
sg64
(lp3518
S'first_name'
p3519
asbag57
(g78
g59
NtRp3520
(dp3521
g62
(dp3522
g89
g90
ssg71
g3511
sg64
(lp3523
S':'
asbag57
(g78
g59
NtRp3524
(dp3525
g62
(dp3526
sg71
g3511
sg64
(lp3527
g57
(g58
g59
NtRp3528
(dp3529
g62
(dp3530
g70
I3
ssg71
g3524
sg64
(lp3531
S'You'
p3532
asbasbasbag57
(g73
g59
NtRp3533
(dp3534
g62
(dp3535
sg71
g3485
sg64
(lp3536
g57
(g78
g59
NtRp3537
(dp3538
g62
(dp3539
g82
g83
ssg71
g3533
sg64
(lp3540
S'id'
p3541
asbag57
(g78
g59
NtRp3542
(dp3543
g62
(dp3544
g89
g90
ssg71
g3533
sg64
(lp3545
S':'
asbag57
(g78
g59
NtRp3546
(dp3547
g62
(dp3548
sg71
g3533
sg64
(lp3549
g57
(g58
g59
NtRp3550
(dp3551
g62
(dp3552
g70
I3
ssg71
g3546
sg64
(lp3553
S'2'
asbasbasbag57
(g73
g59
NtRp3554
(dp3555
g62
(dp3556
sg71
g3485
sg64
(lp3557
g57
(g78
g59
NtRp3558
(dp3559
g62
(dp3560
g82
g83
ssg71
g3554
sg64
(lp3561
S'last_name'
p3562
asbag57
(g78
g59
NtRp3563
(dp3564
g62
(dp3565
g89
g90
ssg71
g3554
sg64
(lp3566
S':'
asbag57
(g78
g59
NtRp3567
(dp3568
g62
(dp3569
sg71
g3554
sg64
(lp3570
g57
(g58
g59
NtRp3571
(dp3572
g62
(dp3573
g70
I3
ssg71
g3567
sg64
(lp3574
S'Folks'
p3575
asbasbasbag57
(g73
g59
NtRp3576
(dp3577
g62
(dp3578
sg71
g3485
sg64
(lp3579
g57
(g78
g59
NtRp3580
(dp3581
g62
(dp3582
g82
g83
ssg71
g3576
sg64
(lp3583
S'password'
p3584
asbag57
(g78
g59
NtRp3585
(dp3586
g62
(dp3587
g89
g90
ssg71
g3576
sg64
(lp3588
S':'
asbag57
(g78
g59
NtRp3589
(dp3590
g62
(dp3591
sg71
g3576
sg64
(lp3592
g57
(g58
g59
NtRp3593
(dp3594
g62
(dp3595
g70
I3
ssg71
g3589
sg64
(lp3596
S'pbkdf2(1000,20,sha512)$be2ae34bd8ab6f89$1becf62efcea01de9b58832835686ca56a464d32'
p3597
asbasbasbag57
(g73
g59
NtRp3598
(dp3599
g62
(dp3600
sg71
g3485
sg64
(lp3601
g57
(g78
g59
NtRp3602
(dp3603
g62
(dp3604
g82
g83
ssg71
g3598
sg64
(lp3605
S'registration_id'
p3606
asbag57
(g78
g59
NtRp3607
(dp3608
g62
(dp3609
g89
g90
ssg71
g3598
sg64
(lp3610
S':'
asbag57
(g78
g59
NtRp3611
(dp3612
g62
(dp3613
sg71
g3598
sg64
(lp3614
g57
(g58
g59
NtRp3615
(dp3616
g62
(dp3617
g70
I3
ssg71
g3611
sg64
(lp3618
S''
asbasbasbag57
(g73
g59
NtRp3619
(dp3620
g62
(dp3621
sg71
g3485
sg64
(lp3622
g57
(g78
g59
NtRp3623
(dp3624
g62
(dp3625
g82
g83
ssg71
g3619
sg64
(lp3626
S'registration_key'
p3627
asbag57
(g78
g59
NtRp3628
(dp3629
g62
(dp3630
g89
g90
ssg71
g3619
sg64
(lp3631
S':'
asbag57
(g78
g59
NtRp3632
(dp3633
g62
(dp3634
sg71
g3619
sg64
(lp3635
g57
(g58
g59
NtRp3636
(dp3637
g62
(dp3638
g70
I3
ssg71
g3632
sg64
(lp3639
S''
asbasbasbag57
(g73
g59
NtRp3640
(dp3641
g62
(dp3642
sg71
g3485
sg64
(lp3643
g57
(g78
g59
NtRp3644
(dp3645
g62
(dp3646
g82
g83
ssg71
g3640
sg64
(lp3647
S'reset_password_key'
p3648
asbag57
(g78
g59
NtRp3649
(dp3650
g62
(dp3651
g89
g90
ssg71
g3640
sg64
(lp3652
S':'
asbag57
(g78
g59
NtRp3653
(dp3654
g62
(dp3655
sg71
g3640
sg64
(lp3656
g57
(g58
g59
NtRp3657
(dp3658
g62
(dp3659
g70
I3
ssg71
g3653
sg64
(lp3660
S''
asbasbasbasbasbasbasbag57
(g73
g59
NtRp3661
(dp3662
g62
(dp3663
sg71
g3373
sg64
(lp3664
g57
(g78
g59
NtRp3665
(dp3666
g62
(dp3667
g82
g83
ssg71
g3661
sg64
(lp3668
S'user_groups'
p3669
asbag57
(g78
g59
NtRp3670
(dp3671
g62
(dp3672
g89
g90
ssg71
g3661
sg64
(lp3673
S':'
asbag57
(g78
g59
NtRp3674
(dp3675
g62
(dp3676
sg71
g3661
sg64
(lp3677
g57
(g58
g59
NtRp3678
(dp3679
g62
(dp3680
g70
I4
ssg71
g3674
sg64
(lp3681
g57
(g66
g59
NtRp3682
(dp3683
g62
(dp3684
g70
I3
ssg71
Nsg64
(lp3685
g57
(g73
g59
NtRp3686
(dp3687
g62
(dp3688
sg71
g3682
sg64
(lp3689
g57
(g78
g59
NtRp3690
(dp3691
g62
(dp3692
g82
g83
ssg71
g3686
sg64
(lp3693
S'2'
asbag57
(g78
g59
NtRp3694
(dp3695
g62
(dp3696
g89
g90
ssg71
g3686
sg64
(lp3697
S':'
asbag57
(g78
g59
NtRp3698
(dp3699
g62
(dp3700
sg71
g3686
sg64
(lp3701
g57
(g58
g59
NtRp3702
(dp3703
g62
(dp3704
g70
I3
ssg71
g3698
sg64
(lp3705
S'user_2'
p3706
asbasbasbasbasbasbasbasbasbasbasbag57
(g73
g59
NtRp3707
(dp3708
g62
(dp3709
sg71
g3348
sg64
(lp3710
g57
(g78
g59
NtRp3711
(dp3712
g62
(dp3713
g82
g83
ssg71
g3707
sg64
(lp3714
S'currentRecipe'
p3715
asbag57
(g78
g59
NtRp3716
(dp3717
g62
(dp3718
g89
g90
ssg71
g3707
sg64
(lp3719
S':'
asbag57
(g78
g59
NtRp3720
(dp3721
g62
(dp3722
sg71
g3707
sg64
(lp3723
g57
(g58
g59
NtRp3724
(dp3725
g62
(dp3726
g70
I5
ssg71
g3720
sg64
(lp3727
S'5'
asbasbasbag57
(g73
g59
NtRp3728
(dp3729
g62
(dp3730
sg71
g3348
sg64
(lp3731
g57
(g78
g59
NtRp3732
(dp3733
g62
(dp3734
g82
g83
ssg71
g3728
sg64
(lp3735
S'currentRestaurant'
p3736
asbag57
(g78
g59
NtRp3737
(dp3738
g62
(dp3739
g89
g90
ssg71
g3728
sg64
(lp3740
S':'
asbag57
(g78
g59
NtRp3741
(dp3742
g62
(dp3743
sg71
g3728
sg64
(lp3744
g57
(g58
g59
NtRp3745
(dp3746
g62
(dp3747
g70
I5
ssg71
g3741
sg64
(lp3748
S'5'
asbasbasbag57
(g73
g59
NtRp3749
(dp3750
g62
(dp3751
sg71
g3348
sg64
(lp3752
g57
(g78
g59
NtRp3753
(dp3754
g62
(dp3755
g82
g83
ssg71
g3749
sg64
(lp3756
S'flash'
p3757
asbag57
(g78
g59
NtRp3758
(dp3759
g62
(dp3760
g89
g90
ssg71
g3749
sg64
(lp3761
S':'
asbag57
(g78
g59
NtRp3762
(dp3763
g62
(dp3764
sg71
g3749
sg64
(lp3765
g57
(g58
g59
NtRp3766
(dp3767
g62
(dp3768
g70
I5
ssg71
g3762
sg64
(lp3769
S'None'
p3770
asbasbasbag57
(g73
g59
NtRp3771
(dp3772
g62
(dp3773
sg71
g3348
sg64
(lp3774
g57
(g78
g59
NtRp3775
(dp3776
g62
(dp3777
g82
g83
ssg71
g3771
sg64
(lp3778
S'last_orderby'
p3779
asbag57
(g78
g59
NtRp3780
(dp3781
g62
(dp3782
g89
g90
ssg71
g3771
sg64
(lp3783
S':'
asbag57
(g78
g59
NtRp3784
(dp3785
g62
(dp3786
sg71
g3771
sg64
(lp3787
g57
(g58
g59
NtRp3788
(dp3789
g62
(dp3790
g70
I5
ssg71
g3784
sg64
(lp3791
S'None'
p3792
asbasbasbag57
(g73
g59
NtRp3793
(dp3794
g62
(dp3795
sg71
g3348
sg64
(lp3796
g57
(g78
g59
NtRp3797
(dp3798
g62
(dp3799
g82
g83
ssg71
g3793
sg64
(lp3800
S'last_query'
p3801
asbag57
(g78
g59
NtRp3802
(dp3803
g62
(dp3804
g89
g90
ssg71
g3793
sg64
(lp3805
S':'
asbag57
(g78
g59
NtRp3806
(dp3807
g62
(dp3808
sg71
g3793
sg64
(lp3809
g57
(g58
g59
NtRp3810
(dp3811
g62
(dp3812
g70
I5
ssg71
g3806
sg64
(lp3813
S'db.Restaurants.id>0'
p3814
asbasbasbag57
(g73
g59
NtRp3815
(dp3816
g62
(dp3817
sg71
g3348
sg64
(lp3818
g57
(g78
g59
NtRp3819
(dp3820
g62
(dp3821
g82
g83
ssg71
g3815
sg64
(lp3822
S'owner'
p3823
asbag57
(g78
g59
NtRp3824
(dp3825
g62
(dp3826
g89
g90
ssg71
g3815
sg64
(lp3827
S':'
asbag57
(g78
g59
NtRp3828
(dp3829
g62
(dp3830
sg71
g3815
sg64
(lp3831
g57
(g58
g59
NtRp3832
(dp3833
g62
(dp3834
g70
I5
ssg71
g3828
sg64
(lp3835
S'You Folks'
p3836
asbasbasbag57
(g73
g59
NtRp3837
(dp3838
g62
(dp3839
sg71
g3348
sg64
(lp3840
g57
(g78
g59
NtRp3841
(dp3842
g62
(dp3843
g82
g83
ssg71
g3837
sg64
(lp3844
S'title'
p3845
asbag57
(g78
g59
NtRp3846
(dp3847
g62
(dp3848
g89
g90
ssg71
g3837
sg64
(lp3849
S':'
asbag57
(g78
g59
NtRp3850
(dp3851
g62
(dp3852
sg71
g3837
sg64
(lp3853
g57
(g58
g59
NtRp3854
(dp3855
g62
(dp3856
g70
I5
ssg71
g3850
sg64
(lp3857
S'Hula Island Grill And Tiki Room'
p3858
asbasbasbasbasbsS'etype'
p3859
S"<type 'exceptions.AttributeError'>"
p3860
sS'date'
p3861
S'Wed Nov 28 01:41:56 2012'
p3862
sS'response'
p3863
g57
(g58
g59
NtRp3864
(dp3865
g62
(dp3866
sg64
(lp3867
g57
(g66
g59
NtRp3868
(dp3869
g62
(dp3870
g70
I5
ssg71
Nsg64
(lp3871
g57
(g73
g59
NtRp3872
(dp3873
g62
(dp3874
sg71
g3868
sg64
(lp3875
g57
(g78
g59
NtRp3876
(dp3877
g62
(dp3878
g82
g83
ssg71
g3872
sg64
(lp3879
g167
asbag57
(g78
g59
NtRp3880
(dp3881
g62
(dp3882
g89
g90
ssg71
g3872
sg64
(lp3883
S':'
asbag57
(g78
g59
NtRp3884
(dp3885
g62
(dp3886
sg71
g3872
sg64
(lp3887
g57
(g58
g59
NtRp3888
(dp3889
g62
(dp3890
g70
I5
ssg71
g3884
sg64
(lp3891
S'<cStringIO.StringO object at 0x05272A40>'
p3892
asbasbasbag57
(g73
g59
NtRp3893
(dp3894
g62
(dp3895
sg71
g3868
sg64
(lp3896
g57
(g78
g59
NtRp3897
(dp3898
g62
(dp3899
g82
g83
ssg71
g3893
sg64
(lp3900
g255
asbag57
(g78
g59
NtRp3901
(dp3902
g62
(dp3903
g89
g90
ssg71
g3893
sg64
(lp3904
S':'
asbag57
(g78
g59
NtRp3905
(dp3906
g62
(dp3907
sg71
g3893
sg64
(lp3908
g57
(g58
g59
NtRp3909
(dp3910
g62
(dp3911
g70
I5
ssg71
g3905
sg64
(lp3912
g57
(g66
g59
NtRp3913
(dp3914
g62
(dp3915
g70
I4
ssg71
Nsg64
(lp3916
g57
(g73
g59
NtRp3917
(dp3918
g62
(dp3919
sg71
g3913
sg64
(lp3920
g57
(g78
g59
NtRp3921
(dp3922
g62
(dp3923
g82
g83
ssg71
g3917
sg64
(lp3924
S'session_id_qsuntastebudsv2'
p3925
asbag57
(g78
g59
NtRp3926
(dp3927
g62
(dp3928
g89
g90
ssg71
g3917
sg64
(lp3929
S':'
asbag57
(g78
g59
NtRp3930
(dp3931
g62
(dp3932
sg71
g3917
sg64
(lp3933
g57
(g58
g59
NtRp3934
(dp3935
g62
(dp3936
g70
I4
ssg71
g3930
sg64
(lp3937
g487
ag57
(g66
g59
NtRp3938
(dp3939
g62
(dp3940
g70
I3
ssg71
Nsg64
(lp3941
g57
(g73
g59
NtRp3942
(dp3943
g62
(dp3944
sg71
g3938
sg64
(lp3945
g57
(g78
g59
NtRp3946
(dp3947
g62
(dp3948
g82
g83
ssg71
g3942
sg64
(lp3949
g306
asbag57
(g78
g59
NtRp3950
(dp3951
g62
(dp3952
g89
g90
ssg71
g3942
sg64
(lp3953
S':'
asbag57
(g78
g59
NtRp3954
(dp3955
g62
(dp3956
sg71
g3942
sg64
(lp3957
g57
(g58
g59
NtRp3958
(dp3959
g62
(dp3960
g70
I3
ssg71
g3954
sg64
(lp3961
S''
asbasbasbag57
(g73
g59
NtRp3962
(dp3963
g62
(dp3964
sg71
g3938
sg64
(lp3965
g57
(g78
g59
NtRp3966
(dp3967
g62
(dp3968
g82
g83
ssg71
g3962
sg64
(lp3969
g327
asbag57
(g78
g59
NtRp3970
(dp3971
g62
(dp3972
g89
g90
ssg71
g3962
sg64
(lp3973
S':'
asbag57
(g78
g59
NtRp3974
(dp3975
g62
(dp3976
sg71
g3962
sg64
(lp3977
g57
(g58
g59
NtRp3978
(dp3979
g62
(dp3980
g70
I3
ssg71
g3974
sg64
(lp3981
S''
asbasbasbag57
(g73
g59
NtRp3982
(dp3983
g62
(dp3984
sg71
g3938
sg64
(lp3985
g57
(g78
g59
NtRp3986
(dp3987
g62
(dp3988
g82
g83
ssg71
g3982
sg64
(lp3989
g348
asbag57
(g78
g59
NtRp3990
(dp3991
g62
(dp3992
g89
g90
ssg71
g3982
sg64
(lp3993
S':'
asbag57
(g78
g59
NtRp3994
(dp3995
g62
(dp3996
sg71
g3982
sg64
(lp3997
g57
(g58
g59
NtRp3998
(dp3999
g62
(dp4000
g70
I3
ssg71
g3994
sg64
(lp4001
S''
asbasbasbag57
(g73
g59
NtRp4002
(dp4003
g62
(dp4004
sg71
g3938
sg64
(lp4005
g57
(g78
g59
NtRp4006
(dp4007
g62
(dp4008
g82
g83
ssg71
g4002
sg64
(lp4009
g369
asbag57
(g78
g59
NtRp4010
(dp4011
g62
(dp4012
g89
g90
ssg71
g4002
sg64
(lp4013
S':'
asbag57
(g78
g59
NtRp4014
(dp4015
g62
(dp4016
sg71
g4002
sg64
(lp4017
g57
(g58
g59
NtRp4018
(dp4019
g62
(dp4020
g70
I3
ssg71
g4014
sg64
(lp4021
S''
asbasbasbag57
(g73
g59
NtRp4022
(dp4023
g62
(dp4024
sg71
g3938
sg64
(lp4025
g57
(g78
g59
NtRp4026
(dp4027
g62
(dp4028
g82
g83
ssg71
g4022
sg64
(lp4029
g390
asbag57
(g78
g59
NtRp4030
(dp4031
g62
(dp4032
g89
g90
ssg71
g4022
sg64
(lp4033
S':'
asbag57
(g78
g59
NtRp4034
(dp4035
g62
(dp4036
sg71
g4022
sg64
(lp4037
g57
(g58
g59
NtRp4038
(dp4039
g62
(dp4040
g70
I3
ssg71
g4034
sg64
(lp4041
S''
asbasbasbag57
(g73
g59
NtRp4042
(dp4043
g62
(dp4044
sg71
g3938
sg64
(lp4045
g57
(g78
g59
NtRp4046
(dp4047
g62
(dp4048
g82
g83
ssg71
g4042
sg64
(lp4049
g411
asbag57
(g78
g59
NtRp4050
(dp4051
g62
(dp4052
g89
g90
ssg71
g4042
sg64
(lp4053
S':'
asbag57
(g78
g59
NtRp4054
(dp4055
g62
(dp4056
sg71
g4042
sg64
(lp4057
g57
(g58
g59
NtRp4058
(dp4059
g62
(dp4060
g70
I3
ssg71
g4054
sg64
(lp4061
S'/'
asbasbasbag57
(g73
g59
NtRp4062
(dp4063
g62
(dp4064
sg71
g3938
sg64
(lp4065
g57
(g78
g59
NtRp4066
(dp4067
g62
(dp4068
g82
g83
ssg71
g4062
sg64
(lp4069
g432
asbag57
(g78
g59
NtRp4070
(dp4071
g62
(dp4072
g89
g90
ssg71
g4062
sg64
(lp4073
S':'
asbag57
(g78
g59
NtRp4074
(dp4075
g62
(dp4076
sg71
g4062
sg64
(lp4077
g57
(g58
g59
NtRp4078
(dp4079
g62
(dp4080
g70
I3
ssg71
g4074
sg64
(lp4081
S''
asbasbasbag57
(g73
g59
NtRp4082
(dp4083
g62
(dp4084
sg71
g3938
sg64
(lp4085
g57
(g78
g59
NtRp4086
(dp4087
g62
(dp4088
g82
g83
ssg71
g4082
sg64
(lp4089
g453
asbag57
(g78
g59
NtRp4090
(dp4091
g62
(dp4092
g89
g90
ssg71
g4082
sg64
(lp4093
S':'
asbag57
(g78
g59
NtRp4094
(dp4095
g62
(dp4096
sg71
g4082
sg64
(lp4097
g57
(g58
g59
NtRp4098
(dp4099
g62
(dp4100
g70
I3
ssg71
g4094
sg64
(lp4101
S''
asbasbasbasbasbasbasbasbasbasbasbag57
(g73
g59
NtRp4102
(dp4103
g62
(dp4104
sg71
g3868
sg64
(lp4105
g57
(g78
g59
NtRp4106
(dp4107
g62
(dp4108
g82
g83
ssg71
g4102
sg64
(lp4109
S'delimiters'
p4110
asbag57
(g78
g59
NtRp4111
(dp4112
g62
(dp4113
g89
g90
ssg71
g4102
sg64
(lp4114
S':'
asbag57
(g78
g59
NtRp4115
(dp4116
g62
(dp4117
sg71
g4102
sg64
(lp4118
g57
(g58
g59
NtRp4119
(dp4120
g62
(dp4121
g70
I5
ssg71
g4115
sg64
(lp4122
g57
(g66
g59
NtRp4123
(dp4124
g62
(dp4125
g70
I4
ssg71
Nsg64
(lp4126
g57
(g73
g59
NtRp4127
(dp4128
g62
(dp4129
sg71
g4123
sg64
(lp4130
g57
(g78
g59
NtRp4131
(dp4132
g62
(dp4133
sg71
g4127
sg64
(lp4134
g57
(g58
g59
NtRp4135
(dp4136
g62
(dp4137
g70
I4
ssg71
g4131
sg64
(lp4138
S'{{'
p4139
asbasbasbag57
(g73
g59
NtRp4140
(dp4141
g62
(dp4142
sg71
g4123
sg64
(lp4143
g57
(g78
g59
NtRp4144
(dp4145
g62
(dp4146
sg71
g4140
sg64
(lp4147
g57
(g58
g59
NtRp4148
(dp4149
g62
(dp4150
g70
I4
ssg71
g4144
sg64
(lp4151
S'}}'
p4152
asbasbasbasbasbasbasbag57
(g73
g59
NtRp4153
(dp4154
g62
(dp4155
sg71
g3868
sg64
(lp4156
g57
(g78
g59
NtRp4157
(dp4158
g62
(dp4159
g82
g83
ssg71
g4153
sg64
(lp4160
S'files'
p4161
asbag57
(g78
g59
NtRp4162
(dp4163
g62
(dp4164
g89
g90
ssg71
g4153
sg64
(lp4165
S':'
asbag57
(g78
g59
NtRp4166
(dp4167
g62
(dp4168
sg71
g4153
sg64
(lp4169
g57
(g58
g59
NtRp4170
(dp4171
g62
(dp4172
g70
I5
ssg71
g4166
sg64
(lp4173
g57
(g66
g59
NtRp4174
(dp4175
g62
(dp4176
g70
I4
ssg71
Nsg64
(lp4177
sbasbasbasbag57
(g73
g59
NtRp4178
(dp4179
g62
(dp4180
sg71
g3868
sg64
(lp4181
g57
(g78
g59
NtRp4182
(dp4183
g62
(dp4184
g82
g83
ssg71
g4178
sg64
(lp4185
S'flash'
p4186
asbag57
(g78
g59
NtRp4187
(dp4188
g62
(dp4189
g89
g90
ssg71
g4178
sg64
(lp4190
S':'
asbag57
(g78
g59
NtRp4191
(dp4192
g62
(dp4193
sg71
g4178
sg64
(lp4194
g57
(g58
g59
NtRp4195
(dp4196
g62
(dp4197
g70
I5
ssg71
g4191
sg64
(lp4198
cgluon.languages
lazyT_unpickle
p4199
(S's\x08\x00\x00\x00Success!'
tRp4200
asbasbasbag57
(g73
g59
NtRp4201
(dp4202
g62
(dp4203
sg71
g3868
sg64
(lp4204
g57
(g78
g59
NtRp4205
(dp4206
g62
(dp4207
g82
g83
ssg71
g4201
sg64
(lp4208
S'generic_patterns'
p4209
asbag57
(g78
g59
NtRp4210
(dp4211
g62
(dp4212
g89
g90
ssg71
g4201
sg64
(lp4213
S':'
asbag57
(g78
g59
NtRp4214
(dp4215
g62
(dp4216
sg71
g4201
sg64
(lp4217
g57
(g58
g59
NtRp4218
(dp4219
g62
(dp4220
g70
I5
ssg71
g4214
sg64
(lp4221
g57
(g66
g59
NtRp4222
(dp4223
g62
(dp4224
g70
I4
ssg71
Nsg64
(lp4225
g57
(g73
g59
NtRp4226
(dp4227
g62
(dp4228
sg71
g4222
sg64
(lp4229
g57
(g78
g59
NtRp4230
(dp4231
g62
(dp4232
sg71
g4226
sg64
(lp4233
g57
(g58
g59
NtRp4234
(dp4235
g62
(dp4236
g70
I4
ssg71
g4230
sg64
(lp4237
S'*'
asbasbasbasbasbasbasbag57
(g73
g59
NtRp4238
(dp4239
g62
(dp4240
sg71
g3868
sg64
(lp4241
g57
(g78
g59
NtRp4242
(dp4243
g62
(dp4244
g82
g83
ssg71
g4238
sg64
(lp4245
S'google_analytics_id'
p4246
asbag57
(g78
g59
NtRp4247
(dp4248
g62
(dp4249
g89
g90
ssg71
g4238
sg64
(lp4250
S':'
asbag57
(g78
g59
NtRp4251
(dp4252
g62
(dp4253
sg71
g4238
sg64
(lp4254
g57
(g58
g59
NtRp4255
(dp4256
g62
(dp4257
g70
I5
ssg71
g4251
sg64
(lp4258
S'None'
p4259
asbasbasbag57
(g73
g59
NtRp4260
(dp4261
g62
(dp4262
sg71
g3868
sg64
(lp4263
g57
(g78
g59
NtRp4264
(dp4265
g62
(dp4266
g82
g83
ssg71
g4260
sg64
(lp4267
S'headers'
p4268
asbag57
(g78
g59
NtRp4269
(dp4270
g62
(dp4271
g89
g90
ssg71
g4260
sg64
(lp4272
S':'
asbag57
(g78
g59
NtRp4273
(dp4274
g62
(dp4275
sg71
g4260
sg64
(lp4276
g57
(g58
g59
NtRp4277
(dp4278
g62
(dp4279
g70
I5
ssg71
g4273
sg64
(lp4280
g57
(g66
g59
NtRp4281
(dp4282
g62
(dp4283
g70
I4
ssg71
Nsg64
(lp4284
g57
(g73
g59
NtRp4285
(dp4286
g62
(dp4287
sg71
g4281
sg64
(lp4288
g57
(g78
g59
NtRp4289
(dp4290
g62
(dp4291
g82
g83
ssg71
g4285
sg64
(lp4292
S'X-Powered-By'
p4293
asbag57
(g78
g59
NtRp4294
(dp4295
g62
(dp4296
g89
g90
ssg71
g4285
sg64
(lp4297
S':'
asbag57
(g78
g59
NtRp4298
(dp4299
g62
(dp4300
sg71
g4285
sg64
(lp4301
g57
(g58
g59
NtRp4302
(dp4303
g62
(dp4304
g70
I4
ssg71
g4298
sg64
(lp4305
S'web2py'
p4306
asbasbasbasbasbasbasbag57
(g73
g59
NtRp4307
(dp4308
g62
(dp4309
sg71
g3868
sg64
(lp4310
g57
(g78
g59
NtRp4311
(dp4312
g62
(dp4313
g82
g83
ssg71
g4307
sg64
(lp4314
S'menu'
p4315
asbag57
(g78
g59
NtRp4316
(dp4317
g62
(dp4318
g89
g90
ssg71
g4307
sg64
(lp4319
S':'
asbag57
(g78
g59
NtRp4320
(dp4321
g62
(dp4322
sg71
g4307
sg64
(lp4323
g57
(g58
g59
NtRp4324
(dp4325
g62
(dp4326
g70
I5
ssg71
g4320
sg64
(lp4327
g57
(g66
g59
NtRp4328
(dp4329
g62
(dp4330
g70
I4
ssg71
Nsg64
(lp4331
g57
(g73
g59
NtRp4332
(dp4333
g62
(dp4334
sg71
g4328
sg64
(lp4335
g57
(g78
g59
NtRp4336
(dp4337
g62
(dp4338
sg71
g4332
sg64
(lp4339
g57
(g58
g59
NtRp4340
(dp4341
g62
(dp4342
g70
I4
ssg71
g4336
sg64
(lp4343
g57
(g66
g59
NtRp4344
(dp4345
g62
(dp4346
g70
I3
ssg71
Nsg64
(lp4347
g57
(g73
g59
NtRp4348
(dp4349
g62
(dp4350
sg71
g4344
sg64
(lp4351
g57
(g78
g59
NtRp4352
(dp4353
g62
(dp4354
sg71
g4348
sg64
(lp4355
g57
(g58
g59
NtRp4356
(dp4357
g62
(dp4358
g70
I3
ssg71
g4352
sg64
(lp4359
g4199
(S't\x04\x00\x00\x00Home'
tRp4360
asbasbasbag57
(g73
g59
NtRp4361
(dp4362
g62
(dp4363
sg71
g4344
sg64
(lp4364
g57
(g78
g59
NtRp4365
(dp4366
g62
(dp4367
sg71
g4361
sg64
(lp4368
g57
(g58
g59
NtRp4369
(dp4370
g62
(dp4371
g70
I3
ssg71
g4365
sg64
(lp4372
g100
asbasbasbag57
(g73
g59
NtRp4373
(dp4374
g62
(dp4375
sg71
g4344
sg64
(lp4376
g57
(g78
g59
NtRp4377
(dp4378
g62
(dp4379
sg71
g4373
sg64
(lp4380
g57
(g58
g59
NtRp4381
(dp4382
g62
(dp4383
g70
I3
ssg71
g4377
sg64
(lp4384
S'/QSunTasteBudsV2/default/index'
p4385
asbasbasbag57
(g73
g59
NtRp4386
(dp4387
g62
(dp4388
sg71
g4344
sg64
(lp4389
g57
(g78
g59
NtRp4390
(dp4391
g62
(dp4392
sg71
g4386
sg64
(lp4393
g57
(g58
g59
NtRp4394
(dp4395
g62
(dp4396
g70
I3
ssg71
g4390
sg64
(lp4397
g57
(g66
g59
NtRp4398
(dp4399
g62
(dp4400
g70
I2
ssg71
Nsg64
(lp4401
sbasbasbasbasbasbasbasbag57
(g73
g59
NtRp4402
(dp4403
g62
(dp4404
sg71
g4328
sg64
(lp4405
g57
(g78
g59
NtRp4406
(dp4407
g62
(dp4408
sg71
g4402
sg64
(lp4409
g57
(g58
g59
NtRp4410
(dp4411
g62
(dp4412
g70
I4
ssg71
g4406
sg64
(lp4413
g57
(g66
g59
NtRp4414
(dp4415
g62
(dp4416
g70
I3
ssg71
Nsg64
(lp4417
g57
(g73
g59
NtRp4418
(dp4419
g62
(dp4420
sg71
g4414
sg64
(lp4421
g57
(g78
g59
NtRp4422
(dp4423
g62
(dp4424
sg71
g4418
sg64
(lp4425
g57
(g58
g59
NtRp4426
(dp4427
g62
(dp4428
g70
I3
ssg71
g4422
sg64
(lp4429
g57
(cgluon.html
SPAN
p4430
g59
NtRp4431
(dp4432
g62
(dp4433
g82
S'color:yellow'
p4434
ssg71
Nsg64
(lp4435
g4306
asbasbasbasbag57
(g73
g59
NtRp4436
(dp4437
g62
(dp4438
sg71
g4414
sg64
(lp4439
g57
(g78
g59
NtRp4440
(dp4441
g62
(dp4442
sg71
g4436
sg64
(lp4443
g57
(g58
g59
NtRp4444
(dp4445
g62
(dp4446
g70
I3
ssg71
g4440
sg64
(lp4447
g100
asbasbasbag57
(g73
g59
NtRp4448
(dp4449
g62
(dp4450
sg71
g4414
sg64
(lp4451
g57
(g78
g59
NtRp4452
(dp4453
g62
(dp4454
sg71
g4448
sg64
(lp4455
g57
(g58
g59
NtRp4456
(dp4457
g62
(dp4458
g70
I3
ssg71
g4452
sg64
(lp4459
S'http://web2py.com'
p4460
asbasbasbag57
(g73
g59
NtRp4461
(dp4462
g62
(dp4463
sg71
g4414
sg64
(lp4464
g57
(g78
g59
NtRp4465
(dp4466
g62
(dp4467
sg71
g4461
sg64
(lp4468
g57
(g58
g59
NtRp4469
(dp4470
g62
(dp4471
g70
I3
ssg71
g4465
sg64
(lp4472
g57
(g66
g59
NtRp4473
(dp4474
g62
(dp4475
g70
I2
ssg71
Nsg64
(lp4476
g57
(g73
g59
NtRp4477
(dp4478
g62
(dp4479
sg71
g4473
sg64
(lp4480
g57
(g78
g59
NtRp4481
(dp4482
g62
(dp4483
sg71
g4477
sg64
(lp4484
g57
(g58
g59
NtRp4485
(dp4486
g62
(dp4487
g70
I2
ssg71
g4481
sg64
(lp4488
g57
(g66
g59
NtRp4489
(dp4490
g62
(dp4491
g70
I1
ssg71
Nsg64
(lp4492
g57
(g73
g59
NtRp4493
(dp4494
g62
(dp4495
sg71
g4489
sg64
(lp4496
g57
(g78
g59
NtRp4497
(dp4498
g62
(dp4499
sg71
g4493
sg64
(lp4500
g57
(g58
g59
NtRp4501
(dp4502
g62
(dp4503
g70
I1
ssg71
g4497
sg64
(lp4504
g4199
(S's\x08\x00\x00\x00My Sites'
tRp4505
asbasbasbag57
(g73
g59
NtRp4506
(dp4507
g62
(dp4508
sg71
g4489
sg64
(lp4509
g57
(g78
g59
NtRp4510
(dp4511
g62
(dp4512
sg71
g4506
sg64
(lp4513
g57
(g58
g59
NtRp4514
(dp4515
g62
(dp4516
g70
I1
ssg71
g4510
sg64
(lp4517
I00
asbasbasbag57
(g73
g59
NtRp4518
(dp4519
g62
(dp4520
sg71
g4489
sg64
(lp4521
g57
(g78
g59
NtRp4522
(dp4523
g62
(dp4524
sg71
g4518
sg64
(lp4525
g57
(g58
g59
NtRp4526
(dp4527
g62
(dp4528
g70
I1
ssg71
g4522
sg64
(lp4529
S'/admin/default/site'
p4530
asbasbasbasbasbasbasbag57
(g73
g59
NtRp4531
(dp4532
g62
(dp4533
sg71
g4473
sg64
(lp4534
g57
(g78
g59
NtRp4535
(dp4536
g62
(dp4537
sg71
g4531
sg64
(lp4538
g57
(g58
g59
NtRp4539
(dp4540
g62
(dp4541
g70
I2
ssg71
g4535
sg64
(lp4542
g57
(g66
g59
NtRp4543
(dp4544
g62
(dp4545
g70
I1
ssg71
Nsg64
(lp4546
g57
(g73
g59
NtRp4547
(dp4548
g62
(dp4549
sg71
g4543
sg64
(lp4550
g57
(g78
g59
NtRp4551
(dp4552
g62
(dp4553
sg71
g4547
sg64
(lp4554
g57
(g58
g59
NtRp4555
(dp4556
g62
(dp4557
g70
I1
ssg71
g4551
sg64
(lp4558
g4199
(S's\x08\x00\x00\x00This App'
tRp4559
asbasbasbag57
(g73
g59
NtRp4560
(dp4561
g62
(dp4562
sg71
g4543
sg64
(lp4563
g57
(g78
g59
NtRp4564
(dp4565
g62
(dp4566
sg71
g4560
sg64
(lp4567
g57
(g58
g59
NtRp4568
(dp4569
g62
(dp4570
g70
I1
ssg71
g4564
sg64
(lp4571
I00
asbasbasbag57
(g73
g59
NtRp4572
(dp4573
g62
(dp4574
sg71
g4543
sg64
(lp4575
g57
(g78
g59
NtRp4576
(dp4577
g62
(dp4578
sg71
g4572
sg64
(lp4579
g57
(g58
g59
NtRp4580
(dp4581
g62
(dp4582
g70
I1
ssg71
g4576
sg64
(lp4583
S'/admin/default/design/QSunTasteBudsV2'
p4584
asbasbasbag57
(g73
g59
NtRp4585
(dp4586
g62
(dp4587
sg71
g4543
sg64
(lp4588
g57
(g78
g59
NtRp4589
(dp4590
g62
(dp4591
sg71
g4585
sg64
(lp4592
g57
(g58
g59
NtRp4593
(dp4594
g62
(dp4595
g70
I1
ssg71
g4589
sg64
(lp4596
(lp4597
(g4199
(S't\n\x00\x00\x00Controller'
tRp4598
I00
S'/admin/default/edit/QSunTasteBudsV2/controllers/default.py'
tp4599
a(g4199
(S't\x04\x00\x00\x00View'
tRp4600
I00
S'/admin/default/edit/QSunTasteBudsV2/views/default/readRestaurant.html'
tp4601
a(g4199
(S't\x06\x00\x00\x00Layout'
tRp4602
I00
S'/admin/default/edit/QSunTasteBudsV2/views/layout.html'
tp4603
a(g4199
(S't\n\x00\x00\x00Stylesheet'
tRp4604
I00
S'/admin/default/edit/QSunTasteBudsV2/static/css/web2py.css'
tp4605
a(g4199
(S's\x08\x00\x00\x00DB Model'
tRp4606
I00
S'/admin/default/edit/QSunTasteBudsV2/models/db.py'
tp4607
a(g4199
(S's\n\x00\x00\x00Menu Model'
tRp4608
I00
S'/admin/default/edit/QSunTasteBudsV2/models/menu.py'
tp4609
a(g4199
(S't\x08\x00\x00\x00Database'
tRp4610
I00
S'/QSunTasteBudsV2/appadmin/index'
tp4611
a(g4199
(S't\x06\x00\x00\x00Errors'
tRp4612
I00
S'/admin/default/errors/QSunTasteBudsV2'
tp4613
a(g4199
(S't\x05\x00\x00\x00About'
tRp4614
I00
S'/admin/default/about/QSunTasteBudsV2'
tp4615
aasbasbasbasbasbasbasbag57
(g73
g59
NtRp4616
(dp4617
g62
(dp4618
sg71
g4473
sg64
(lp4619
g57
(g78
g59
NtRp4620
(dp4621
g62
(dp4622
sg71
g4616
sg64
(lp4623
g57
(g58
g59
NtRp4624
(dp4625
g62
(dp4626
g70
I2
ssg71
g4620
sg64
(lp4627
g57
(g66
g59
NtRp4628
(dp4629
g62
(dp4630
g70
I1
ssg71
Nsg64
(lp4631
g57
(g73
g59
NtRp4632
(dp4633
g62
(dp4634
sg71
g4628
sg64
(lp4635
g57
(g78
g59
NtRp4636
(dp4637
g62
(dp4638
sg71
g4632
sg64
(lp4639
g57
(g58
g59
NtRp4640
(dp4641
g62
(dp4642
g70
I1
ssg71
g4636
sg64
(lp4643
S'web2py.com'
p4644
asbasbasbag57
(g73
g59
NtRp4645
(dp4646
g62
(dp4647
sg71
g4628
sg64
(lp4648
g57
(g78
g59
NtRp4649
(dp4650
g62
(dp4651
sg71
g4645
sg64
(lp4652
g57
(g58
g59
NtRp4653
(dp4654
g62
(dp4655
g70
I1
ssg71
g4649
sg64
(lp4656
I00
asbasbasbag57
(g73
g59
NtRp4657
(dp4658
g62
(dp4659
sg71
g4628
sg64
(lp4660
g57
(g78
g59
NtRp4661
(dp4662
g62
(dp4663
sg71
g4657
sg64
(lp4664
g57
(g58
g59
NtRp4665
(dp4666
g62
(dp4667
g70
I1
ssg71
g4661
sg64
(lp4668
S'http://www.web2py.com'
p4669
asbasbasbag57
(g73
g59
NtRp4670
(dp4671
g62
(dp4672
sg71
g4628
sg64
(lp4673
g57
(g78
g59
NtRp4674
(dp4675
g62
(dp4676
sg71
g4670
sg64
(lp4677
g57
(g58
g59
NtRp4678
(dp4679
g62
(dp4680
g70
I1
ssg71
g4674
sg64
(lp4681
(lp4682
(g4199
(S't\x08\x00\x00\x00Download'
tRp4683
I00
S'http://www.web2py.com/examples/default/download'
p4684
tp4685
a(g4199
(S't\x07\x00\x00\x00Support'
tRp4686
I00
S'http://www.web2py.com/examples/default/support'
p4687
tp4688
a(g4199
(S't\x04\x00\x00\x00Demo'
tRp4689
I00
S'http://web2py.com/demo_admin'
p4690
tp4691
a(g4199
(S's\x0e\x00\x00\x00Quick Examples'
tRp4692
I00
S'http://web2py.com/examples/default/examples'
p4693
tp4694
a(g4199
(S't\x03\x00\x00\x00FAQ'
tRp4695
I00
S'http://web2py.com/AlterEgo'
p4696
tp4697
a(g4199
(S't\x06\x00\x00\x00Videos'
tRp4698
I00
S'http://www.web2py.com/examples/default/videos/'
p4699
tp4700
a(g4199
(S's\x11\x00\x00\x00Free Applications'
tRp4701
I00
S'http://web2py.com/appliances'
p4702
tp4703
a(g4199
(S't\x07\x00\x00\x00Plugins'
tRp4704
I00
S'http://web2py.com/plugins'
p4705
tp4706
a(g4199
(S't\x07\x00\x00\x00Layouts'
tRp4707
I00
S'http://web2py.com/layouts'
p4708
tp4709
a(g4199
(S't\x07\x00\x00\x00Recipes'
tRp4710
I00
S'http://web2pyslices.com/'
p4711
tp4712
a(g4199
(S't\x08\x00\x00\x00Semantic'
tRp4713
I00
S'http://web2py.com/semantic'
p4714
tp4715
aasbasbasbasbasbasbasbag57
(g73
g59
NtRp4716
(dp4717
g62
(dp4718
sg71
g4473
sg64
(lp4719
g57
(g78
g59
NtRp4720
(dp4721
g62
(dp4722
sg71
g4716
sg64
(lp4723
g57
(g58
g59
NtRp4724
(dp4725
g62
(dp4726
g70
I2
ssg71
g4720
sg64
(lp4727
g57
(g66
g59
NtRp4728
(dp4729
g62
(dp4730
g70
I1
ssg71
Nsg64
(lp4731
g57
(g73
g59
NtRp4732
(dp4733
g62
(dp4734
sg71
g4728
sg64
(lp4735
g57
(g78
g59
NtRp4736
(dp4737
g62
(dp4738
sg71
g4732
sg64
(lp4739
g57
(g58
g59
NtRp4740
(dp4741
g62
(dp4742
g70
I1
ssg71
g4736
sg64
(lp4743
g4199
(S't\r\x00\x00\x00Documentation'
tRp4744
asbasbasbag57
(g73
g59
NtRp4745
(dp4746
g62
(dp4747
sg71
g4728
sg64
(lp4748
g57
(g78
g59
NtRp4749
(dp4750
g62
(dp4751
sg71
g4745
sg64
(lp4752
g57
(g58
g59
NtRp4753
(dp4754
g62
(dp4755
g70
I1
ssg71
g4749
sg64
(lp4756
I00
asbasbasbag57
(g73
g59
NtRp4757
(dp4758
g62
(dp4759
sg71
g4728
sg64
(lp4760
g57
(g78
g59
NtRp4761
(dp4762
g62
(dp4763
sg71
g4757
sg64
(lp4764
g57
(g58
g59
NtRp4765
(dp4766
g62
(dp4767
g70
I1
ssg71
g4761
sg64
(lp4768
S'http://www.web2py.com/book'
p4769
asbasbasbag57
(g73
g59
NtRp4770
(dp4771
g62
(dp4772
sg71
g4728
sg64
(lp4773
g57
(g78
g59
NtRp4774
(dp4775
g62
(dp4776
sg71
g4770
sg64
(lp4777
g57
(g58
g59
NtRp4778
(dp4779
g62
(dp4780
g70
I1
ssg71
g4774
sg64
(lp4781
(lp4782
(g4199
(S't\x07\x00\x00\x00Preface'
tRp4783
I00
S'http://www.web2py.com/book/default/chapter/00'
p4784
tp4785
a(g4199
(S't\x0c\x00\x00\x00Introduction'
tRp4786
I00
S'http://www.web2py.com/book/default/chapter/01'
p4787
tp4788
a(g4199
(S't\x06\x00\x00\x00Python'
tRp4789
I00
S'http://www.web2py.com/book/default/chapter/02'
p4790
tp4791
a(g4199
(S't\x08\x00\x00\x00Overview'
tRp4792
I00
S'http://www.web2py.com/book/default/chapter/03'
p4793
tp4794
a(g4199
(S's\x08\x00\x00\x00The Core'
tRp4795
I00
S'http://www.web2py.com/book/default/chapter/04'
p4796
tp4797
a(g4199
(S's\t\x00\x00\x00The Views'
tRp4798
I00
S'http://www.web2py.com/book/default/chapter/05'
p4799
tp4800
a(g4199
(S't\x08\x00\x00\x00Database'
tRp4801
I00
S'http://www.web2py.com/book/default/chapter/06'
p4802
tp4803
a(g4199
(S's\x14\x00\x00\x00Forms and Validators'
tRp4804
I00
S'http://www.web2py.com/book/default/chapter/07'
p4805
tp4806
a(g4199
(S's\r\x00\x00\x00Email and SMS'
tRp4807
I00
S'http://www.web2py.com/book/default/chapter/08'
p4808
tp4809
a(g4199
(S's\x0e\x00\x00\x00Access Control'
tRp4810
I00
S'http://www.web2py.com/book/default/chapter/09'
p4811
tp4812
a(g4199
(S't\x08\x00\x00\x00Services'
tRp4813
I00
S'http://www.web2py.com/book/default/chapter/10'
p4814
tp4815
a(g4199
(S's\x0c\x00\x00\x00Ajax Recipes'
tRp4816
I00
S'http://www.web2py.com/book/default/chapter/11'
p4817
tp4818
a(g4199
(S's\x16\x00\x00\x00Components and Plugins'
tRp4819
I00
S'http://www.web2py.com/book/default/chapter/12'
p4820
tp4821
a(g4199
(S's\x12\x00\x00\x00Deployment Recipes'
tRp4822
I00
S'http://www.web2py.com/book/default/chapter/13'
p4823
tp4824
a(g4199
(S's\r\x00\x00\x00Other Recipes'
tRp4825
I00
S'http://www.web2py.com/book/default/chapter/14'
p4826
tp4827
a(g4199
(S's\r\x00\x00\x00Buy this book'
tRp4828
I00
S'http://stores.lulu.com/web2py'
p4829
tp4830
aasbasbasbasbasbasbasbag57
(g73
g59
NtRp4831
(dp4832
g62
(dp4833
sg71
g4473
sg64
(lp4834
g57
(g78
g59
NtRp4835
(dp4836
g62
(dp4837
sg71
g4831
sg64
(lp4838
g57
(g58
g59
NtRp4839
(dp4840
g62
(dp4841
g70
I2
ssg71
g4835
sg64
(lp4842
g57
(g66
g59
NtRp4843
(dp4844
g62
(dp4845
g70
I1
ssg71
Nsg64
(lp4846
g57
(g73
g59
NtRp4847
(dp4848
g62
(dp4849
sg71
g4843
sg64
(lp4850
g57
(g78
g59
NtRp4851
(dp4852
g62
(dp4853
sg71
g4847
sg64
(lp4854
g57
(g58
g59
NtRp4855
(dp4856
g62
(dp4857
g70
I1
ssg71
g4851
sg64
(lp4858
g4199
(S't\t\x00\x00\x00Community'
tRp4859
asbasbasbag57
(g73
g59
NtRp4860
(dp4861
g62
(dp4862
sg71
g4843
sg64
(lp4863
g57
(g78
g59
NtRp4864
(dp4865
g62
(dp4866
sg71
g4860
sg64
(lp4867
g57
(g58
g59
NtRp4868
(dp4869
g62
(dp4870
g70
I1
ssg71
g4864
sg64
(lp4871
I00
asbasbasbag57
(g73
g59
NtRp4872
(dp4873
g62
(dp4874
sg71
g4843
sg64
(lp4875
g57
(g78
g59
NtRp4876
(dp4877
g62
(dp4878
sg71
g4872
sg64
(lp4879
g57
(g58
g59
NtRp4880
(dp4881
g62
(dp4882
g70
I1
ssg71
g4876
sg64
(lp4883
Nasbasbasbag57
(g73
g59
NtRp4884
(dp4885
g62
(dp4886
sg71
g4843
sg64
(lp4887
g57
(g78
g59
NtRp4888
(dp4889
g62
(dp4890
sg71
g4884
sg64
(lp4891
g57
(g58
g59
NtRp4892
(dp4893
g62
(dp4894
g70
I1
ssg71
g4888
sg64
(lp4895
(lp4896
(g4199
(S't\x06\x00\x00\x00Groups'
tRp4897
I00
S'http://www.web2py.com/examples/default/usergroups'
p4898
tp4899
a(g4199
(S't\x07\x00\x00\x00Twitter'
tRp4900
I00
S'http://twitter.com/web2py'
p4901
tp4902
a(g4199
(S's\t\x00\x00\x00Live Chat'
tRp4903
I00
S'http://webchat.freenode.net/?channels=web2py'
p4904
tp4905
aasbasbasbasbasbasbasbag57
(g73
g59
NtRp4906
(dp4907
g62
(dp4908
sg71
g4473
sg64
(lp4909
g57
(g78
g59
NtRp4910
(dp4911
g62
(dp4912
sg71
g4906
sg64
(lp4913
g57
(g58
g59
NtRp4914
(dp4915
g62
(dp4916
g70
I2
ssg71
g4910
sg64
(lp4917
g57
(g66
g59
NtRp4918
(dp4919
g62
(dp4920
g70
I1
ssg71
Nsg64
(lp4921
g57
(g73
g59
NtRp4922
(dp4923
g62
(dp4924
sg71
g4918
sg64
(lp4925
g57
(g78
g59
NtRp4926
(dp4927
g62
(dp4928
sg71
g4922
sg64
(lp4929
g57
(g58
g59
NtRp4930
(dp4931
g62
(dp4932
g70
I1
ssg71
g4926
sg64
(lp4933
g4199
(S't\x07\x00\x00\x00Plugins'
tRp4934
asbasbasbag57
(g73
g59
NtRp4935
(dp4936
g62
(dp4937
sg71
g4918
sg64
(lp4938
g57
(g78
g59
NtRp4939
(dp4940
g62
(dp4941
sg71
g4935
sg64
(lp4942
g57
(g58
g59
NtRp4943
(dp4944
g62
(dp4945
g70
I1
ssg71
g4939
sg64
(lp4946
I00
asbasbasbag57
(g73
g59
NtRp4947
(dp4948
g62
(dp4949
sg71
g4918
sg64
(lp4950
g57
(g78
g59
NtRp4951
(dp4952
g62
(dp4953
sg71
g4947
sg64
(lp4954
g57
(g58
g59
NtRp4955
(dp4956
g62
(dp4957
g70
I1
ssg71
g4951
sg64
(lp4958
Nasbasbasbag57
(g73
g59
NtRp4959
(dp4960
g62
(dp4961
sg71
g4918
sg64
(lp4962
g57
(g78
g59
NtRp4963
(dp4964
g62
(dp4965
sg71
g4959
sg64
(lp4966
g57
(g58
g59
NtRp4967
(dp4968
g62
(dp4969
g70
I1
ssg71
g4963
sg64
(lp4970
(lp4971
(S'plugin_wiki'
p4972
I00
S'http://web2py.com/examples/default/download'
p4973
tp4974
a(g4199
(S's\r\x00\x00\x00Other Plugins'
tRp4975
I00
g4705
tp4976
a(g4199
(S's\x0e\x00\x00\x00Layout Plugins'
tRp4977
I00
g4708
tp4978
aasbasbasbasbasbasbasbasbasbasbasbasbasbasbasbasbasbasbasbag57
(g73
g59
NtRp4979
(dp4980
g62
(dp4981
sg71
g3868
sg64
(lp4982
g57
(g78
g59
NtRp4983
(dp4984
g62
(dp4985
g82
g83
ssg71
g4979
sg64
(lp4986
S'meta'
p4987
asbag57
(g78
g59
NtRp4988
(dp4989
g62
(dp4990
g89
g90
ssg71
g4979
sg64
(lp4991
S':'
asbag57
(g78
g59
NtRp4992
(dp4993
g62
(dp4994
sg71
g4979
sg64
(lp4995
g57
(g58
g59
NtRp4996
(dp4997
g62
(dp4998
g70
I5
ssg71
g4992
sg64
(lp4999
g57
(g66
g59
NtRp5000
(dp5001
g62
(dp5002
g70
I4
ssg71
Nsg64
(lp5003
g57
(g73
g59
NtRp5004
(dp5005
g62
(dp5006
sg71
g5000
sg64
(lp5007
g57
(g78
g59
NtRp5008
(dp5009
g62
(dp5010
g82
g83
ssg71
g5004
sg64
(lp5011
S'author'
p5012
asbag57
(g78
g59
NtRp5013
(dp5014
g62
(dp5015
g89
g90
ssg71
g5004
sg64
(lp5016
S':'
asbag57
(g78
g59
NtRp5017
(dp5018
g62
(dp5019
sg71
g5004
sg64
(lp5020
g57
(g58
g59
NtRp5021
(dp5022
g62
(dp5023
g70
I4
ssg71
g5017
sg64
(lp5024
S'Your Name <you@example.com>'
p5025
asbasbasbag57
(g73
g59
NtRp5026
(dp5027
g62
(dp5028
sg71
g5000
sg64
(lp5029
g57
(g78
g59
NtRp5030
(dp5031
g62
(dp5032
g82
g83
ssg71
g5026
sg64
(lp5033
S'description'
p5034
asbag57
(g78
g59
NtRp5035
(dp5036
g62
(dp5037
g89
g90
ssg71
g5026
sg64
(lp5038
S':'
asbag57
(g78
g59
NtRp5039
(dp5040
g62
(dp5041
sg71
g5026
sg64
(lp5042
g57
(g58
g59
NtRp5043
(dp5044
g62
(dp5045
g70
I4
ssg71
g5039
sg64
(lp5046
S'a cool new app'
p5047
asbasbasbag57
(g73
g59
NtRp5048
(dp5049
g62
(dp5050
sg71
g5000
sg64
(lp5051
g57
(g78
g59
NtRp5052
(dp5053
g62
(dp5054
g82
g83
ssg71
g5048
sg64
(lp5055
S'generator'
p5056
asbag57
(g78
g59
NtRp5057
(dp5058
g62
(dp5059
g89
g90
ssg71
g5048
sg64
(lp5060
S':'
asbag57
(g78
g59
NtRp5061
(dp5062
g62
(dp5063
sg71
g5048
sg64
(lp5064
g57
(g58
g59
NtRp5065
(dp5066
g62
(dp5067
g70
I4
ssg71
g5061
sg64
(lp5068
S'Web2py Web Framework'
p5069
asbasbasbag57
(g73
g59
NtRp5070
(dp5071
g62
(dp5072
sg71
g5000
sg64
(lp5073
g57
(g78
g59
NtRp5074
(dp5075
g62
(dp5076
g82
g83
ssg71
g5070
sg64
(lp5077
S'keywords'
p5078
asbag57
(g78
g59
NtRp5079
(dp5080
g62
(dp5081
g89
g90
ssg71
g5070
sg64
(lp5082
S':'
asbag57
(g78
g59
NtRp5083
(dp5084
g62
(dp5085
sg71
g5070
sg64
(lp5086
g57
(g58
g59
NtRp5087
(dp5088
g62
(dp5089
g70
I4
ssg71
g5083
sg64
(lp5090
S'web2py, python, framework'
p5091
asbasbasbasbasbasbasbag57
(g73
g59
NtRp5092
(dp5093
g62
(dp5094
sg71
g3868
sg64
(lp5095
g57
(g78
g59
NtRp5096
(dp5097
g62
(dp5098
g82
g83
ssg71
g5092
sg64
(lp5099
S'models_to_run'
p5100
asbag57
(g78
g59
NtRp5101
(dp5102
g62
(dp5103
g89
g90
ssg71
g5092
sg64
(lp5104
S':'
asbag57
(g78
g59
NtRp5105
(dp5106
g62
(dp5107
sg71
g5092
sg64
(lp5108
g57
(g58
g59
NtRp5109
(dp5110
g62
(dp5111
g70
I5
ssg71
g5105
sg64
(lp5112
g57
(g66
g59
NtRp5113
(dp5114
g62
(dp5115
g70
I4
ssg71
Nsg64
(lp5116
g57
(g73
g59
NtRp5117
(dp5118
g62
(dp5119
sg71
g5113
sg64
(lp5120
g57
(g78
g59
NtRp5121
(dp5122
g62
(dp5123
sg71
g5117
sg64
(lp5124
g57
(g58
g59
NtRp5125
(dp5126
g62
(dp5127
g70
I4
ssg71
g5121
sg64
(lp5128
S'^\\w+\\.py$'
p5129
asbasbasbag57
(g73
g59
NtRp5130
(dp5131
g62
(dp5132
sg71
g5113
sg64
(lp5133
g57
(g78
g59
NtRp5134
(dp5135
g62
(dp5136
sg71
g5130
sg64
(lp5137
g57
(g58
g59
NtRp5138
(dp5139
g62
(dp5140
g70
I4
ssg71
g5134
sg64
(lp5141
S'^default/\\w+\\.py$'
p5142
asbasbasbag57
(g73
g59
NtRp5143
(dp5144
g62
(dp5145
sg71
g5113
sg64
(lp5146
g57
(g78
g59
NtRp5147
(dp5148
g62
(dp5149
sg71
g5143
sg64
(lp5150
g57
(g58
g59
NtRp5151
(dp5152
g62
(dp5153
g70
I4
ssg71
g5147
sg64
(lp5154
S'^default/readRestaurant/\\w+\\.py$'
p5155
asbasbasbasbasbasbasbag57
(g73
g59
NtRp5156
(dp5157
g62
(dp5158
sg71
g3868
sg64
(lp5159
g57
(g78
g59
NtRp5160
(dp5161
g62
(dp5162
g82
g83
ssg71
g5156
sg64
(lp5163
S'postprocessing'
p5164
asbag57
(g78
g59
NtRp5165
(dp5166
g62
(dp5167
g89
g90
ssg71
g5156
sg64
(lp5168
S':'
asbag57
(g78
g59
NtRp5169
(dp5170
g62
(dp5171
sg71
g5156
sg64
(lp5172
g57
(g58
g59
NtRp5173
(dp5174
g62
(dp5175
g70
I5
ssg71
g5169
sg64
(lp5176
g57
(g66
g59
NtRp5177
(dp5178
g62
(dp5179
g70
I4
ssg71
Nsg64
(lp5180
sbasbasbasbag57
(g73
g59
NtRp5181
(dp5182
g62
(dp5183
sg71
g3868
sg64
(lp5184
g57
(g78
g59
NtRp5185
(dp5186
g62
(dp5187
g82
g83
ssg71
g5181
sg64
(lp5188
S'session_file'
p5189
asbag57
(g78
g59
NtRp5190
(dp5191
g62
(dp5192
g89
g90
ssg71
g5181
sg64
(lp5193
S':'
asbag57
(g78
g59
NtRp5194
(dp5195
g62
(dp5196
sg71
g5181
sg64
(lp5197
g57
(g58
g59
NtRp5198
(dp5199
g62
(dp5200
g70
I5
ssg71
g5194
sg64
(lp5201
S"<open file 'D:\\web2py_win\\web2py\\applications\\QSunTasteBudsV2\\sessions\\127.0.0.1-03c509ec-2cef-426f-a88b-6eb0c079c2a6', mode 'rb+' at 0x044B1700>"
p5202
asbasbasbag57
(g73
g59
NtRp5203
(dp5204
g62
(dp5205
sg71
g3868
sg64
(lp5206
g57
(g78
g59
NtRp5207
(dp5208
g62
(dp5209
g82
g83
ssg71
g5203
sg64
(lp5210
S'session_filename'
p5211
asbag57
(g78
g59
NtRp5212
(dp5213
g62
(dp5214
g89
g90
ssg71
g5203
sg64
(lp5215
S':'
asbag57
(g78
g59
NtRp5216
(dp5217
g62
(dp5218
sg71
g5203
sg64
(lp5219
g57
(g58
g59
NtRp5220
(dp5221
g62
(dp5222
g70
I5
ssg71
g5216
sg64
(lp5223
S'D:\\web2py_win\\web2py\\applications\\QSunTasteBudsV2\\sessions\\127.0.0.1-03c509ec-2cef-426f-a88b-6eb0c079c2a6'
p5224
asbasbasbag57
(g73
g59
NtRp5225
(dp5226
g62
(dp5227
sg71
g3868
sg64
(lp5228
g57
(g78
g59
NtRp5229
(dp5230
g62
(dp5231
g82
g83
ssg71
g5225
sg64
(lp5232
S'session_id'
p5233
asbag57
(g78
g59
NtRp5234
(dp5235
g62
(dp5236
g89
g90
ssg71
g5225
sg64
(lp5237
S':'
asbag57
(g78
g59
NtRp5238
(dp5239
g62
(dp5240
sg71
g5225
sg64
(lp5241
g57
(g58
g59
NtRp5242
(dp5243
g62
(dp5244
g70
I5
ssg71
g5238
sg64
(lp5245
g487
asbasbasbag57
(g73
g59
NtRp5246
(dp5247
g62
(dp5248
sg71
g3868
sg64
(lp5249
g57
(g78
g59
NtRp5250
(dp5251
g62
(dp5252
g82
g83
ssg71
g5246
sg64
(lp5253
S'session_id_name'
p5254
asbag57
(g78
g59
NtRp5255
(dp5256
g62
(dp5257
g89
g90
ssg71
g5246
sg64
(lp5258
S':'
asbag57
(g78
g59
NtRp5259
(dp5260
g62
(dp5261
sg71
g5246
sg64
(lp5262
g57
(g58
g59
NtRp5263
(dp5264
g62
(dp5265
g70
I5
ssg71
g5259
sg64
(lp5266
g3925
asbasbasbag57
(g73
g59
NtRp5267
(dp5268
g62
(dp5269
sg71
g3868
sg64
(lp5270
g57
(g78
g59
NtRp5271
(dp5272
g62
(dp5273
g82
g83
ssg71
g5267
sg64
(lp5274
S'session_locked'
p5275
asbag57
(g78
g59
NtRp5276
(dp5277
g62
(dp5278
g89
g90
ssg71
g5267
sg64
(lp5279
S':'
asbag57
(g78
g59
NtRp5280
(dp5281
g62
(dp5282
sg71
g5267
sg64
(lp5283
g57
(g58
g59
NtRp5284
(dp5285
g62
(dp5286
g70
I5
ssg71
g5280
sg64
(lp5287
g1821
asbasbasbag57
(g73
g59
NtRp5288
(dp5289
g62
(dp5290
sg71
g3868
sg64
(lp5291
g57
(g78
g59
NtRp5292
(dp5293
g62
(dp5294
g82
g83
ssg71
g5288
sg64
(lp5295
S'session_new'
p5296
asbag57
(g78
g59
NtRp5297
(dp5298
g62
(dp5299
g89
g90
ssg71
g5288
sg64
(lp5300
S':'
asbag57
(g78
g59
NtRp5301
(dp5302
g62
(dp5303
sg71
g5288
sg64
(lp5304
g57
(g58
g59
NtRp5305
(dp5306
g62
(dp5307
g70
I5
ssg71
g5301
sg64
(lp5308
g100
asbasbasbag57
(g73
g59
NtRp5309
(dp5310
g62
(dp5311
sg71
g3868
sg64
(lp5312
g57
(g78
g59
NtRp5313
(dp5314
g62
(dp5315
g82
g83
ssg71
g5309
sg64
(lp5316
S'status'
p5317
asbag57
(g78
g59
NtRp5318
(dp5319
g62
(dp5320
g89
g90
ssg71
g5309
sg64
(lp5321
S':'
asbag57
(g78
g59
NtRp5322
(dp5323
g62
(dp5324
sg71
g5309
sg64
(lp5325
g57
(g58
g59
NtRp5326
(dp5327
g62
(dp5328
g70
I5
ssg71
g5322
sg64
(lp5329
S'200'
p5330
asbasbasbag57
(g73
g59
NtRp5331
(dp5332
g62
(dp5333
sg71
g3868
sg64
(lp5334
g57
(g78
g59
NtRp5335
(dp5336
g62
(dp5337
g82
g83
ssg71
g5331
sg64
(lp5338
S'subtitle'
p5339
asbag57
(g78
g59
NtRp5340
(dp5341
g62
(dp5342
g89
g90
ssg71
g5331
sg64
(lp5343
S':'
asbag57
(g78
g59
NtRp5344
(dp5345
g62
(dp5346
sg71
g5331
sg64
(lp5347
g57
(g58
g59
NtRp5348
(dp5349
g62
(dp5350
g70
I5
ssg71
g5344
sg64
(lp5351
g4199
(S's\r\x00\x00\x00customize me!'
tRp5352
asbasbasbag57
(g73
g59
NtRp5353
(dp5354
g62
(dp5355
sg71
g3868
sg64
(lp5356
g57
(g78
g59
NtRp5357
(dp5358
g62
(dp5359
g82
g83
ssg71
g5353
sg64
(lp5360
S'title'
p5361
asbag57
(g78
g59
NtRp5362
(dp5363
g62
(dp5364
g89
g90
ssg71
g5353
sg64
(lp5365
S':'
asbag57
(g78
g59
NtRp5366
(dp5367
g62
(dp5368
sg71
g5353
sg64
(lp5369
g57
(g58
g59
NtRp5370
(dp5371
g62
(dp5372
g70
I5
ssg71
g5366
sg64
(lp5373
S'Qsuntastebudsv2'
p5374
asbasbasbag57
(g73
g59
NtRp5375
(dp5376
g62
(dp5377
sg71
g3868
sg64
(lp5378
g57
(g78
g59
NtRp5379
(dp5380
g62
(dp5381
g82
g83
ssg71
g5375
sg64
(lp5382
S'view'
p5383
asbag57
(g78
g59
NtRp5384
(dp5385
g62
(dp5386
g89
g90
ssg71
g5375
sg64
(lp5387
S':'
asbag57
(g78
g59
NtRp5388
(dp5389
g62
(dp5390
sg71
g5375
sg64
(lp5391
g57
(g58
g59
NtRp5392
(dp5393
g62
(dp5394
g70
I5
ssg71
g5388
sg64
(lp5395
S'default/readRestaurant.html'
p5396
asbasbasbasbasbsS'locals'
p5397
(dp5398
S'commentList'
p5399
S'<Rows (0)>'
p5400
sS'rateForm'
p5401
S'<gluon.html.FORM object>'
p5402
sS'place'
p5403
S"<Row {'rating': 7.0, 'uploadTime': datetime.date...es\\r\\nCaters: No\\r\\nWheelchair Accessible: Yes'}>"
p5404
sssS'traceback'
p5405
S'Traceback (most recent call last):\n  File "gluon/restricted.py", line 209, in restricted\n  File "D:\\web2py_win\\web2py\\applications\\QSunTasteBudsV2\\controllers/default.py", line 212, in <module>\n  File "gluon/globals.py", line 186, in <lambda>\n  File "D:\\web2py_win\\web2py\\applications\\QSunTasteBudsV2\\controllers/default.py", line 83, in readRestaurant\nAttributeError: \'function\' object has no attribute \'owner\'\n'
p5406
s.